GAS LISTING C:\Users\Rando\AppData\Local\Temp\ccdQm2td.s 			page 1


   1               		.file	"batmon.c"
   2               	__SP_H__ = 0x3e
   3               	__SP_L__ = 0x3d
   4               	__SREG__ = 0x3f
   5               	__tmp_reg__ = 0
   6               	__zero_reg__ = 1
   7               		.text
   8               	.Ltext0:
   9               		.cfi_sections	.debug_frame
  10               	.global	batmon_init
  11               		.type	batmon_init, @function
  12               	batmon_init:
  13               	.LFB6:
  14               		.file 1 "src/batmon.c"
   1:src/batmon.c  **** #include <include/batmon.h>
   2:src/batmon.c  **** #include <include/i2c.h>
   3:src/batmon.c  **** #include <avr/io.h>
   4:src/batmon.c  **** #include <util/delay.h>
   5:src/batmon.c  **** 
   6:src/batmon.c  **** /* Riistvaraprojekt UT 2020/21 - Rando Hinn, vastuvıtjamooduli akuhalduse setup & SOC lugemine */
   7:src/batmon.c  **** 
   8:src/batmon.c  **** 
   9:src/batmon.c  **** uint8_t batmon_init() {
  15               		.loc 1 9 0
  16               		.cfi_startproc
  17 0000 EF92      		push r14
  18               	.LCFI0:
  19               		.cfi_def_cfa_offset 3
  20               		.cfi_offset 14, -2
  21 0002 FF92      		push r15
  22               	.LCFI1:
  23               		.cfi_def_cfa_offset 4
  24               		.cfi_offset 15, -3
  25 0004 0F93      		push r16
  26               	.LCFI2:
  27               		.cfi_def_cfa_offset 5
  28               		.cfi_offset 16, -4
  29 0006 CF93      		push r28
  30               	.LCFI3:
  31               		.cfi_def_cfa_offset 6
  32               		.cfi_offset 28, -5
  33 0008 DF93      		push r29
  34               	.LCFI4:
  35               		.cfi_def_cfa_offset 7
  36               		.cfi_offset 29, -6
  37 000a 00D0      		rcall .
  38               	.LCFI5:
  39               		.cfi_def_cfa_offset 9
  40 000c CDB7      		in r28,__SP_L__
  41 000e DEB7      		in r29,__SP_H__
  42               	.LCFI6:
  43               		.cfi_def_cfa_register 28
  44               	/* prologue: function */
  45               	/* frame size = 2 */
  46               	/* stack size = 7 */
  47               	.L__stack_usage = 7
  10:src/batmon.c  **** 	DDRD &= ~(1 << DDD0);
GAS LISTING C:\Users\Rando\AppData\Local\Temp\ccdQm2td.s 			page 2


  48               		.loc 1 10 0
  49 0010 5098      		cbi 0xa,0
  11:src/batmon.c  **** 	DDRD &= ~(1 << DDD1);
  50               		.loc 1 11 0
  51 0012 5198      		cbi 0xa,1
  12:src/batmon.c  **** 
  13:src/batmon.c  **** 	i2c_init(20000L);
  52               		.loc 1 13 0
  53 0014 60E2      		ldi r22,lo8(32)
  54 0016 7EE4      		ldi r23,lo8(78)
  55 0018 80E0      		ldi r24,0
  56 001a 90E0      		ldi r25,0
  57 001c 0E94 0000 		call i2c_init
  58               	.LVL0:
  14:src/batmon.c  **** 
  15:src/batmon.c  **** 	uint8_t subCommandMSB = (BQ27441_CONTROL_DEVICE_TYPE >> 8);
  16:src/batmon.c  **** 	uint8_t subCommandLSB = (BQ27441_CONTROL_DEVICE_TYPE & 0x00FF);
  17:src/batmon.c  **** 	uint8_t command[2] = {subCommandLSB, subCommandMSB};
  18:src/batmon.c  **** 	uint8_t data[2] = {0, 0};
  59               		.loc 1 18 0
  60 0020 1982      		std Y+1,__zero_reg__
  61 0022 1A82      		std Y+2,__zero_reg__
  19:src/batmon.c  **** 	
  20:src/batmon.c  **** 	uint8_t status = i2c_start(0xAA);
  62               		.loc 1 20 0
  63 0024 8AEA      		ldi r24,lo8(-86)
  64 0026 0E94 0000 		call i2c_start
  65               	.LVL1:
  21:src/batmon.c  **** 	if(!status) {
  66               		.loc 1 21 0
  67 002a 8823      		tst r24
  68 002c 01F0      		breq .L10
  69               	.LVL2:
  70               	.L4:
  22:src/batmon.c  **** 		i2c_write(0x00);
  23:src/batmon.c  **** 		i2c_write(command[0]);
  24:src/batmon.c  **** 		i2c_write(command[1]);
  25:src/batmon.c  **** 		i2c_stop();
  26:src/batmon.c  **** 
  27:src/batmon.c  **** 		i2c_read_multiple(0xAA,0xAB,0x00,2,0,data);
  28:src/batmon.c  **** 
  29:src/batmon.c  **** 		uint16_t devt = ((uint16_t)data[1] << 8) | data[0];
  30:src/batmon.c  **** 		if(devt == 0x0421) {
  31:src/batmon.c  **** 			return 1;
  32:src/batmon.c  **** 		} 
  33:src/batmon.c  **** 	} 
  34:src/batmon.c  **** 	return 0;
  71               		.loc 1 34 0
  72 002e 80E0      		ldi r24,0
  73               	/* epilogue start */
  35:src/batmon.c  **** }
  74               		.loc 1 35 0
  75 0030 0F90      		pop __tmp_reg__
  76 0032 0F90      		pop __tmp_reg__
  77 0034 DF91      		pop r29
  78 0036 CF91      		pop r28
  79 0038 0F91      		pop r16
GAS LISTING C:\Users\Rando\AppData\Local\Temp\ccdQm2td.s 			page 3


  80 003a FF90      		pop r15
  81 003c EF90      		pop r14
  82 003e 0895      		ret
  83               	.LVL3:
  84               	.L10:
  85               	.LBB8:
  22:src/batmon.c  **** 		i2c_write(0x00);
  86               		.loc 1 22 0
  87 0040 0E94 0000 		call i2c_write
  88               	.LVL4:
  23:src/batmon.c  **** 		i2c_write(command[1]);
  89               		.loc 1 23 0
  90 0044 81E0      		ldi r24,lo8(1)
  91 0046 0E94 0000 		call i2c_write
  92               	.LVL5:
  24:src/batmon.c  **** 		i2c_stop();
  93               		.loc 1 24 0
  94 004a 80E0      		ldi r24,0
  95 004c 0E94 0000 		call i2c_write
  96               	.LVL6:
  25:src/batmon.c  **** 
  97               		.loc 1 25 0
  98 0050 0E94 0000 		call i2c_stop
  99               	.LVL7:
  27:src/batmon.c  **** 
 100               		.loc 1 27 0
 101 0054 CE01      		movw r24,r28
 102 0056 0196      		adiw r24,1
 103 0058 7C01      		movw r14,r24
 104 005a 00E0      		ldi r16,0
 105 005c 22E0      		ldi r18,lo8(2)
 106 005e 40E0      		ldi r20,0
 107 0060 6BEA      		ldi r22,lo8(-85)
 108 0062 8AEA      		ldi r24,lo8(-86)
 109 0064 0E94 0000 		call i2c_read_multiple
 110               	.LVL8:
  31:src/batmon.c  **** 		} 
 111               		.loc 1 31 0
 112 0068 81E0      		ldi r24,lo8(1)
 113 006a 2981      		ldd r18,Y+1
 114 006c 3A81      		ldd r19,Y+2
 115 006e 2132      		cpi r18,33
 116 0070 3440      		sbci r19,4
 117 0072 01F4      		brne .L4
 118               	/* epilogue start */
 119               	.LBE8:
 120               		.loc 1 35 0
 121 0074 0F90      		pop __tmp_reg__
 122 0076 0F90      		pop __tmp_reg__
 123 0078 DF91      		pop r29
 124 007a CF91      		pop r28
 125               	.LVL9:
 126 007c 0F91      		pop r16
 127               	.LVL10:
 128 007e FF90      		pop r15
 129               	.LVL11:
 130 0080 EF90      		pop r14
GAS LISTING C:\Users\Rando\AppData\Local\Temp\ccdQm2td.s 			page 4


 131               	.LVL12:
 132 0082 0895      		ret
 133               		.cfi_endproc
 134               	.LFE6:
 135               		.size	batmon_init, .-batmon_init
 136               	.global	batmon_config
 137               		.type	batmon_config, @function
 138               	batmon_config:
 139               	.LFB7:
  36:src/batmon.c  **** 
  37:src/batmon.c  **** uint8_t batmon_config(uint16_t dcap) {
 140               		.loc 1 37 0
 141               		.cfi_startproc
 142               	.LVL13:
 143 0084 DF92      		push r13
 144               	.LCFI7:
 145               		.cfi_def_cfa_offset 3
 146               		.cfi_offset 13, -2
 147 0086 EF92      		push r14
 148               	.LCFI8:
 149               		.cfi_def_cfa_offset 4
 150               		.cfi_offset 14, -3
 151 0088 FF92      		push r15
 152               	.LCFI9:
 153               		.cfi_def_cfa_offset 5
 154               		.cfi_offset 15, -4
 155 008a 0F93      		push r16
 156               	.LCFI10:
 157               		.cfi_def_cfa_offset 6
 158               		.cfi_offset 16, -5
 159 008c 1F93      		push r17
 160               	.LCFI11:
 161               		.cfi_def_cfa_offset 7
 162               		.cfi_offset 17, -6
 163 008e CF93      		push r28
 164               	.LCFI12:
 165               		.cfi_def_cfa_offset 8
 166               		.cfi_offset 28, -7
 167 0090 DF93      		push r29
 168               	.LCFI13:
 169               		.cfi_def_cfa_offset 9
 170               		.cfi_offset 29, -8
 171 0092 00D0      		rcall .
 172               	.LCFI14:
 173               		.cfi_def_cfa_offset 11
 174 0094 CDB7      		in r28,__SP_L__
 175 0096 DEB7      		in r29,__SP_H__
 176               	.LCFI15:
 177               		.cfi_def_cfa_register 28
 178               	/* prologue: function */
 179               	/* frame size = 2 */
 180               	/* stack size = 9 */
 181               	.L__stack_usage = 9
 182 0098 182F      		mov r17,r24
 183 009a D92E      		mov r13,r25
  38:src/batmon.c  **** 	uint8_t status = i2c_start(0xAA);
 184               		.loc 1 38 0
GAS LISTING C:\Users\Rando\AppData\Local\Temp\ccdQm2td.s 			page 5


 185 009c 8AEA      		ldi r24,lo8(-86)
 186               	.LVL14:
 187 009e 0E94 0000 		call i2c_start
 188               	.LVL15:
  39:src/batmon.c  **** 	if(!status) {
 189               		.loc 1 39 0
 190 00a2 8823      		tst r24
 191 00a4 01F0      		breq .L19
 192               	.LVL16:
 193               	.L13:
  40:src/batmon.c  ****         // UNSEAL IC
  41:src/batmon.c  **** 		i2c_write(0x00);
  42:src/batmon.c  **** 		i2c_write(BQ27441_UNSEAL_KEY & 0x00FF);
  43:src/batmon.c  **** 		i2c_write((BQ27441_UNSEAL_KEY & 0xFF00) >> 8);
  44:src/batmon.c  **** 		i2c_write(0x00);
  45:src/batmon.c  **** 		i2c_write(BQ27441_UNSEAL_KEY& 0x00FF);
  46:src/batmon.c  **** 		i2c_write((BQ27441_UNSEAL_KEY & 0xFF00) >> 8);
  47:src/batmon.c  **** 		i2c_stop();
  48:src/batmon.c  ****         
  49:src/batmon.c  **** 		uint8_t stat = i2c_start(0xAA);
  50:src/batmon.c  **** 		if(!stat) {
  51:src/batmon.c  ****         
  52:src/batmon.c  ****             // L‰heme CFGUPDATE OLEKUSSE
  53:src/batmon.c  **** 			i2c_write(0x00);
  54:src/batmon.c  **** 			i2c_write(0x13);
  55:src/batmon.c  **** 			i2c_write(0x00);
  56:src/batmon.c  ****             i2c_stop();
  57:src/batmon.c  **** 
  58:src/batmon.c  ****             uint8_t data[2] = {0, 0};
  59:src/batmon.c  ****             _delay_ms(1000);
  60:src/batmon.c  **** 
  61:src/batmon.c  ****             i2c_read_multiple(0xAA,0xAB,0x06,2,0,data);
  62:src/batmon.c  ****             if(data[0] & (1 << 4)) {
  63:src/batmon.c  ****                 // Enable block data memory control
  64:src/batmon.c  ****                 i2c_start(0xAA);
  65:src/batmon.c  ****                 i2c_write(0x61);
  66:src/batmon.c  ****                 i2c_write(0x00);
  67:src/batmon.c  ****                 i2c_stop();
  68:src/batmon.c  ****                 
  69:src/batmon.c  ****                 // Ligip‰‰s Design Capacity'le
  70:src/batmon.c  ****                 i2c_start(0xAA);
  71:src/batmon.c  ****                 i2c_write(0x3E);
  72:src/batmon.c  ****                 i2c_write(0x52);
  73:src/batmon.c  ****                 i2c_stop();
  74:src/batmon.c  ****                 
  75:src/batmon.c  ****                 // Kirjutame offseti
  76:src/batmon.c  ****                 i2c_start(0xAA);
  77:src/batmon.c  ****                 i2c_write(0x3F);
  78:src/batmon.c  ****                 i2c_write(0x00);
  79:src/batmon.c  ****                 i2c_stop();
  80:src/batmon.c  ****                 
  81:src/batmon.c  ****                 // Loeme algse checksum'i (TI dokumentatsioon natuke niru siin)
  82:src/batmon.c  ****                 uint8_t cs = i2c_read_single(0xAA,0xAB,0x60,0);
  83:src/batmon.c  **** 
  84:src/batmon.c  ****                 if(data[1] == 0xAC) {
  85:src/batmon.c  ****                     // Loeme design capacity, kirjutame ¸le
  86:src/batmon.c  ****                     data[0] = i2c_read_single(0xAA,0xAB,0x4A,0);
GAS LISTING C:\Users\Rando\AppData\Local\Temp\ccdQm2td.s 			page 6


  87:src/batmon.c  ****                     data[1] = i2c_read_single(0xAA,0xAB,0x4B,0);  
  88:src/batmon.c  ****                     i2c_start(0xAA);
  89:src/batmon.c  ****                     i2c_write(0x4a);
  90:src/batmon.c  ****                     i2c_write((dcap & 0xFF00)>>8);
  91:src/batmon.c  ****                     i2c_stop();
  92:src/batmon.c  ****                     i2c_start(0xAA);
  93:src/batmon.c  ****                     i2c_write(0x4b);
  94:src/batmon.c  ****                     i2c_write(dcap & 0x00FF);
  95:src/batmon.c  ****                     i2c_stop();
  96:src/batmon.c  ****                     // Arvutame uue checksum'i ja kirjutame selle. valem ptk 3.1 https://www.ti.com
  97:src/batmon.c  ****                     uint8_t temp = (255 - cs - data[0] - data[1]) % 256;
  98:src/batmon.c  ****                     uint8_t newcs = 255- ((temp+((dcap & 0xFF00)>>8)+(dcap & 0x00FF)) % 256);
  99:src/batmon.c  ****                     i2c_start(0xAA);
 100:src/batmon.c  ****                     i2c_write(0x60);
 101:src/batmon.c  ****                     i2c_write(newcs);
 102:src/batmon.c  ****                     i2c_stop();
 103:src/batmon.c  ****                     // Soft reset & seal
 104:src/batmon.c  ****                     i2c_start(0xAA);
 105:src/batmon.c  ****                     i2c_write(0x00);
 106:src/batmon.c  ****                     i2c_write(0x42);
 107:src/batmon.c  ****                     i2c_write(0x00);
 108:src/batmon.c  ****                     i2c_stop();
 109:src/batmon.c  ****                     i2c_start(0xAA);
 110:src/batmon.c  ****                     i2c_write(0x00);
 111:src/batmon.c  ****                     i2c_write(0x20);
 112:src/batmon.c  ****                     i2c_write(0x00);
 113:src/batmon.c  ****                     i2c_stop();
 114:src/batmon.c  **** 
 115:src/batmon.c  ****                 }
 116:src/batmon.c  **** 
 117:src/batmon.c  ****             }
 118:src/batmon.c  **** 		}
 119:src/batmon.c  **** 	}
 120:src/batmon.c  **** 	return 1;
 121:src/batmon.c  **** }
 194               		.loc 1 121 0
 195 00a6 81E0      		ldi r24,lo8(1)
 196               	/* epilogue start */
 197 00a8 0F90      		pop __tmp_reg__
 198 00aa 0F90      		pop __tmp_reg__
 199 00ac DF91      		pop r29
 200 00ae CF91      		pop r28
 201 00b0 1F91      		pop r17
 202 00b2 0F91      		pop r16
 203 00b4 FF90      		pop r15
 204 00b6 EF90      		pop r14
 205 00b8 DF90      		pop r13
 206 00ba 0895      		ret
 207               	.LVL17:
 208               	.L19:
 209               	.LBB9:
  41:src/batmon.c  **** 		i2c_write(BQ27441_UNSEAL_KEY & 0x00FF);
 210               		.loc 1 41 0
 211 00bc 0E94 0000 		call i2c_write
 212               	.LVL18:
  42:src/batmon.c  **** 		i2c_write((BQ27441_UNSEAL_KEY & 0xFF00) >> 8);
 213               		.loc 1 42 0
GAS LISTING C:\Users\Rando\AppData\Local\Temp\ccdQm2td.s 			page 7


 214 00c0 80E0      		ldi r24,0
 215 00c2 0E94 0000 		call i2c_write
 216               	.LVL19:
  43:src/batmon.c  **** 		i2c_write(0x00);
 217               		.loc 1 43 0
 218 00c6 80E8      		ldi r24,lo8(-128)
 219 00c8 0E94 0000 		call i2c_write
 220               	.LVL20:
  44:src/batmon.c  **** 		i2c_write(BQ27441_UNSEAL_KEY& 0x00FF);
 221               		.loc 1 44 0
 222 00cc 80E0      		ldi r24,0
 223 00ce 0E94 0000 		call i2c_write
 224               	.LVL21:
  45:src/batmon.c  **** 		i2c_write((BQ27441_UNSEAL_KEY & 0xFF00) >> 8);
 225               		.loc 1 45 0
 226 00d2 80E0      		ldi r24,0
 227 00d4 0E94 0000 		call i2c_write
 228               	.LVL22:
  46:src/batmon.c  **** 		i2c_stop();
 229               		.loc 1 46 0
 230 00d8 80E8      		ldi r24,lo8(-128)
 231 00da 0E94 0000 		call i2c_write
 232               	.LVL23:
  47:src/batmon.c  ****         
 233               		.loc 1 47 0
 234 00de 0E94 0000 		call i2c_stop
 235               	.LVL24:
  49:src/batmon.c  **** 		if(!stat) {
 236               		.loc 1 49 0
 237 00e2 8AEA      		ldi r24,lo8(-86)
 238 00e4 0E94 0000 		call i2c_start
 239               	.LVL25:
  50:src/batmon.c  ****         
 240               		.loc 1 50 0
 241 00e8 8111      		cpse r24,__zero_reg__
 242 00ea 00C0      		rjmp .L13
 243               	.LBB10:
  53:src/batmon.c  **** 			i2c_write(0x13);
 244               		.loc 1 53 0
 245 00ec 0E94 0000 		call i2c_write
 246               	.LVL26:
  54:src/batmon.c  **** 			i2c_write(0x00);
 247               		.loc 1 54 0
 248 00f0 83E1      		ldi r24,lo8(19)
 249 00f2 0E94 0000 		call i2c_write
 250               	.LVL27:
  55:src/batmon.c  ****             i2c_stop();
 251               		.loc 1 55 0
 252 00f6 80E0      		ldi r24,0
 253 00f8 0E94 0000 		call i2c_write
 254               	.LVL28:
  56:src/batmon.c  **** 
 255               		.loc 1 56 0
 256 00fc 0E94 0000 		call i2c_stop
 257               	.LVL29:
  58:src/batmon.c  ****             _delay_ms(1000);
 258               		.loc 1 58 0
GAS LISTING C:\Users\Rando\AppData\Local\Temp\ccdQm2td.s 			page 8


 259 0100 1982      		std Y+1,__zero_reg__
 260 0102 1A82      		std Y+2,__zero_reg__
 261               	.LVL30:
 262               	.LBB11:
 263               	.LBB12:
 264               		.file 2 "c:\\avr toolchain\\avr\\include\\util\\delay.h"
   1:c:\avr toolchain\avr\include\util\delay.h **** /* Copyright (c) 2002, Marek Michalkiewicz
   2:c:\avr toolchain\avr\include\util\delay.h ****    Copyright (c) 2004,2005,2007 Joerg Wunsch
   3:c:\avr toolchain\avr\include\util\delay.h ****    Copyright (c) 2007  Florin-Viorel Petrov
   4:c:\avr toolchain\avr\include\util\delay.h ****    All rights reserved.
   5:c:\avr toolchain\avr\include\util\delay.h **** 
   6:c:\avr toolchain\avr\include\util\delay.h ****    Redistribution and use in source and binary forms, with or without
   7:c:\avr toolchain\avr\include\util\delay.h ****    modification, are permitted provided that the following conditions are met:
   8:c:\avr toolchain\avr\include\util\delay.h **** 
   9:c:\avr toolchain\avr\include\util\delay.h ****    * Redistributions of source code must retain the above copyright
  10:c:\avr toolchain\avr\include\util\delay.h ****      notice, this list of conditions and the following disclaimer.
  11:c:\avr toolchain\avr\include\util\delay.h **** 
  12:c:\avr toolchain\avr\include\util\delay.h ****    * Redistributions in binary form must reproduce the above copyright
  13:c:\avr toolchain\avr\include\util\delay.h ****      notice, this list of conditions and the following disclaimer in
  14:c:\avr toolchain\avr\include\util\delay.h ****      the documentation and/or other materials provided with the
  15:c:\avr toolchain\avr\include\util\delay.h ****      distribution.
  16:c:\avr toolchain\avr\include\util\delay.h **** 
  17:c:\avr toolchain\avr\include\util\delay.h ****    * Neither the name of the copyright holders nor the names of
  18:c:\avr toolchain\avr\include\util\delay.h ****      contributors may be used to endorse or promote products derived
  19:c:\avr toolchain\avr\include\util\delay.h ****      from this software without specific prior written permission.
  20:c:\avr toolchain\avr\include\util\delay.h **** 
  21:c:\avr toolchain\avr\include\util\delay.h ****   THIS SOFTWARE IS PROVIDED BY THE COPYRIGHT HOLDERS AND CONTRIBUTORS "AS IS"
  22:c:\avr toolchain\avr\include\util\delay.h ****   AND ANY EXPRESS OR IMPLIED WARRANTIES, INCLUDING, BUT NOT LIMITED TO, THE
  23:c:\avr toolchain\avr\include\util\delay.h ****   IMPLIED WARRANTIES OF MERCHANTABILITY AND FITNESS FOR A PARTICULAR PURPOSE
  24:c:\avr toolchain\avr\include\util\delay.h ****   ARE DISCLAIMED. IN NO EVENT SHALL THE COPYRIGHT OWNER OR CONTRIBUTORS BE
  25:c:\avr toolchain\avr\include\util\delay.h ****   LIABLE FOR ANY DIRECT, INDIRECT, INCIDENTAL, SPECIAL, EXEMPLARY, OR
  26:c:\avr toolchain\avr\include\util\delay.h ****   CONSEQUENTIAL DAMAGES (INCLUDING, BUT NOT LIMITED TO, PROCUREMENT OF
  27:c:\avr toolchain\avr\include\util\delay.h ****   SUBSTITUTE GOODS OR SERVICES; LOSS OF USE, DATA, OR PROFITS; OR BUSINESS
  28:c:\avr toolchain\avr\include\util\delay.h ****   INTERRUPTION) HOWEVER CAUSED AND ON ANY THEORY OF LIABILITY, WHETHER IN
  29:c:\avr toolchain\avr\include\util\delay.h ****   CONTRACT, STRICT LIABILITY, OR TORT (INCLUDING NEGLIGENCE OR OTHERWISE)
  30:c:\avr toolchain\avr\include\util\delay.h ****   ARISING IN ANY WAY OUT OF THE USE OF THIS SOFTWARE, EVEN IF ADVISED OF THE
  31:c:\avr toolchain\avr\include\util\delay.h ****   POSSIBILITY OF SUCH DAMAGE. */
  32:c:\avr toolchain\avr\include\util\delay.h **** 
  33:c:\avr toolchain\avr\include\util\delay.h **** /* $Id$ */
  34:c:\avr toolchain\avr\include\util\delay.h **** 
  35:c:\avr toolchain\avr\include\util\delay.h **** #ifndef _UTIL_DELAY_H_
  36:c:\avr toolchain\avr\include\util\delay.h **** #define _UTIL_DELAY_H_ 1
  37:c:\avr toolchain\avr\include\util\delay.h **** 
  38:c:\avr toolchain\avr\include\util\delay.h **** #ifndef __DOXYGEN__
  39:c:\avr toolchain\avr\include\util\delay.h **** #  ifndef __HAS_DELAY_CYCLES
  40:c:\avr toolchain\avr\include\util\delay.h **** #    define __HAS_DELAY_CYCLES 1
  41:c:\avr toolchain\avr\include\util\delay.h **** #  endif
  42:c:\avr toolchain\avr\include\util\delay.h **** #endif  /* __DOXYGEN__ */
  43:c:\avr toolchain\avr\include\util\delay.h **** 
  44:c:\avr toolchain\avr\include\util\delay.h **** #include <inttypes.h>
  45:c:\avr toolchain\avr\include\util\delay.h **** #include <util/delay_basic.h>
  46:c:\avr toolchain\avr\include\util\delay.h **** #include <math.h>
  47:c:\avr toolchain\avr\include\util\delay.h **** 
  48:c:\avr toolchain\avr\include\util\delay.h **** /** \file */
  49:c:\avr toolchain\avr\include\util\delay.h **** /** \defgroup util_delay <util/delay.h>: Convenience functions for busy-wait delay loops
  50:c:\avr toolchain\avr\include\util\delay.h ****     \code
  51:c:\avr toolchain\avr\include\util\delay.h ****     #define F_CPU 1000000UL  // 1 MHz
GAS LISTING C:\Users\Rando\AppData\Local\Temp\ccdQm2td.s 			page 9


  52:c:\avr toolchain\avr\include\util\delay.h ****     //#define F_CPU 14.7456E6
  53:c:\avr toolchain\avr\include\util\delay.h ****     #include <util/delay.h>
  54:c:\avr toolchain\avr\include\util\delay.h ****     \endcode
  55:c:\avr toolchain\avr\include\util\delay.h **** 
  56:c:\avr toolchain\avr\include\util\delay.h ****     \note As an alternative method, it is possible to pass the
  57:c:\avr toolchain\avr\include\util\delay.h ****     F_CPU macro down to the compiler from the Makefile.
  58:c:\avr toolchain\avr\include\util\delay.h ****     Obviously, in that case, no \c \#define statement should be
  59:c:\avr toolchain\avr\include\util\delay.h ****     used.
  60:c:\avr toolchain\avr\include\util\delay.h **** 
  61:c:\avr toolchain\avr\include\util\delay.h ****     The functions in this header file are wrappers around the basic
  62:c:\avr toolchain\avr\include\util\delay.h ****     busy-wait functions from <util/delay_basic.h>.  They are meant as
  63:c:\avr toolchain\avr\include\util\delay.h ****     convenience functions where actual time values can be specified
  64:c:\avr toolchain\avr\include\util\delay.h ****     rather than a number of cycles to wait for.  The idea behind is
  65:c:\avr toolchain\avr\include\util\delay.h ****     that compile-time constant expressions will be eliminated by
  66:c:\avr toolchain\avr\include\util\delay.h ****     compiler optimization so floating-point expressions can be used
  67:c:\avr toolchain\avr\include\util\delay.h ****     to calculate the number of delay cycles needed based on the CPU
  68:c:\avr toolchain\avr\include\util\delay.h ****     frequency passed by the macro F_CPU.
  69:c:\avr toolchain\avr\include\util\delay.h **** 
  70:c:\avr toolchain\avr\include\util\delay.h ****     \note In order for these functions to work as intended, compiler
  71:c:\avr toolchain\avr\include\util\delay.h ****     optimizations <em>must</em> be enabled, and the delay time
  72:c:\avr toolchain\avr\include\util\delay.h ****     <em>must</em> be an expression that is a known constant at
  73:c:\avr toolchain\avr\include\util\delay.h ****     compile-time.  If these requirements are not met, the resulting
  74:c:\avr toolchain\avr\include\util\delay.h ****     delay will be much longer (and basically unpredictable), and
  75:c:\avr toolchain\avr\include\util\delay.h ****     applications that otherwise do not use floating-point calculations
  76:c:\avr toolchain\avr\include\util\delay.h ****     will experience severe code bloat by the floating-point library
  77:c:\avr toolchain\avr\include\util\delay.h ****     routines linked into the application.
  78:c:\avr toolchain\avr\include\util\delay.h **** 
  79:c:\avr toolchain\avr\include\util\delay.h ****     The functions available allow the specification of microsecond, and
  80:c:\avr toolchain\avr\include\util\delay.h ****     millisecond delays directly, using the application-supplied macro
  81:c:\avr toolchain\avr\include\util\delay.h ****     F_CPU as the CPU clock frequency (in Hertz).
  82:c:\avr toolchain\avr\include\util\delay.h **** 
  83:c:\avr toolchain\avr\include\util\delay.h **** */
  84:c:\avr toolchain\avr\include\util\delay.h **** 
  85:c:\avr toolchain\avr\include\util\delay.h **** #if !defined(__DOXYGEN__)
  86:c:\avr toolchain\avr\include\util\delay.h **** static __inline__ void _delay_us(double __us) __attribute__((__always_inline__));
  87:c:\avr toolchain\avr\include\util\delay.h **** static __inline__ void _delay_ms(double __ms) __attribute__((__always_inline__));
  88:c:\avr toolchain\avr\include\util\delay.h **** #endif
  89:c:\avr toolchain\avr\include\util\delay.h **** 
  90:c:\avr toolchain\avr\include\util\delay.h **** #ifndef F_CPU
  91:c:\avr toolchain\avr\include\util\delay.h **** /* prevent compiler error by supplying a default */
  92:c:\avr toolchain\avr\include\util\delay.h **** # warning "F_CPU not defined for <util/delay.h>"
  93:c:\avr toolchain\avr\include\util\delay.h **** /** \ingroup util_delay
  94:c:\avr toolchain\avr\include\util\delay.h ****     \def F_CPU
  95:c:\avr toolchain\avr\include\util\delay.h ****     \brief CPU frequency in Hz
  96:c:\avr toolchain\avr\include\util\delay.h **** 
  97:c:\avr toolchain\avr\include\util\delay.h ****     The macro F_CPU specifies the CPU frequency to be considered by
  98:c:\avr toolchain\avr\include\util\delay.h ****     the delay macros.  This macro is normally supplied by the
  99:c:\avr toolchain\avr\include\util\delay.h ****     environment (e.g. from within a project header, or the project's
 100:c:\avr toolchain\avr\include\util\delay.h ****     Makefile).  The value 1 MHz here is only provided as a "vanilla"
 101:c:\avr toolchain\avr\include\util\delay.h ****     fallback if no such user-provided definition could be found.
 102:c:\avr toolchain\avr\include\util\delay.h **** 
 103:c:\avr toolchain\avr\include\util\delay.h ****     In terms of the delay functions, the CPU frequency can be given as
 104:c:\avr toolchain\avr\include\util\delay.h ****     a floating-point constant (e.g. 3.6864E6 for 3.6864 MHz).
 105:c:\avr toolchain\avr\include\util\delay.h ****     However, the macros in <util/setbaud.h> require it to be an
 106:c:\avr toolchain\avr\include\util\delay.h ****     integer value.
 107:c:\avr toolchain\avr\include\util\delay.h ****  */
 108:c:\avr toolchain\avr\include\util\delay.h **** # define F_CPU 1000000UL
GAS LISTING C:\Users\Rando\AppData\Local\Temp\ccdQm2td.s 			page 10


 109:c:\avr toolchain\avr\include\util\delay.h **** #endif
 110:c:\avr toolchain\avr\include\util\delay.h **** 
 111:c:\avr toolchain\avr\include\util\delay.h **** #ifndef __OPTIMIZE__
 112:c:\avr toolchain\avr\include\util\delay.h **** # warning "Compiler optimizations disabled; functions from <util/delay.h> won't work as designed"
 113:c:\avr toolchain\avr\include\util\delay.h **** #endif
 114:c:\avr toolchain\avr\include\util\delay.h **** 
 115:c:\avr toolchain\avr\include\util\delay.h **** #if __HAS_DELAY_CYCLES && defined(__OPTIMIZE__) && \
 116:c:\avr toolchain\avr\include\util\delay.h ****   !defined(__DELAY_BACKWARD_COMPATIBLE__) &&	   \
 117:c:\avr toolchain\avr\include\util\delay.h ****   __STDC_HOSTED__
 118:c:\avr toolchain\avr\include\util\delay.h **** #  include <math.h>
 119:c:\avr toolchain\avr\include\util\delay.h **** #endif
 120:c:\avr toolchain\avr\include\util\delay.h **** 
 121:c:\avr toolchain\avr\include\util\delay.h **** /**
 122:c:\avr toolchain\avr\include\util\delay.h ****    \ingroup util_delay
 123:c:\avr toolchain\avr\include\util\delay.h **** 
 124:c:\avr toolchain\avr\include\util\delay.h ****    Perform a delay of \c __ms milliseconds, using _delay_loop_2().
 125:c:\avr toolchain\avr\include\util\delay.h **** 
 126:c:\avr toolchain\avr\include\util\delay.h ****    The macro F_CPU is supposed to be defined to a
 127:c:\avr toolchain\avr\include\util\delay.h ****    constant defining the CPU clock frequency (in Hertz).
 128:c:\avr toolchain\avr\include\util\delay.h **** 
 129:c:\avr toolchain\avr\include\util\delay.h ****    The maximal possible delay is 262.14 ms / F_CPU in MHz.
 130:c:\avr toolchain\avr\include\util\delay.h **** 
 131:c:\avr toolchain\avr\include\util\delay.h ****    When the user request delay which exceed the maximum possible one,
 132:c:\avr toolchain\avr\include\util\delay.h ****    _delay_ms() provides a decreased resolution functionality. In this
 133:c:\avr toolchain\avr\include\util\delay.h ****    mode _delay_ms() will work with a resolution of 1/10 ms, providing
 134:c:\avr toolchain\avr\include\util\delay.h ****    delays up to 6.5535 seconds (independent from CPU frequency).  The
 135:c:\avr toolchain\avr\include\util\delay.h ****    user will not be informed about decreased resolution.
 136:c:\avr toolchain\avr\include\util\delay.h **** 
 137:c:\avr toolchain\avr\include\util\delay.h ****    If the avr-gcc toolchain has __builtin_avr_delay_cycles()
 138:c:\avr toolchain\avr\include\util\delay.h ****    support, maximal possible delay is 4294967.295 ms/ F_CPU in MHz. For
 139:c:\avr toolchain\avr\include\util\delay.h ****    values greater than the maximal possible delay, overflows results in
 140:c:\avr toolchain\avr\include\util\delay.h ****    no delay i.e., 0ms.
 141:c:\avr toolchain\avr\include\util\delay.h **** 
 142:c:\avr toolchain\avr\include\util\delay.h ****    Conversion of \c __ms into clock cycles may not always result in
 143:c:\avr toolchain\avr\include\util\delay.h ****    integer.  By default, the clock cycles rounded up to next
 144:c:\avr toolchain\avr\include\util\delay.h ****    integer. This ensures that the user gets at least \c __ms
 145:c:\avr toolchain\avr\include\util\delay.h ****    microseconds of delay.
 146:c:\avr toolchain\avr\include\util\delay.h **** 
 147:c:\avr toolchain\avr\include\util\delay.h ****    Alternatively, by defining the macro \c __DELAY_ROUND_DOWN__, or
 148:c:\avr toolchain\avr\include\util\delay.h ****    \c __DELAY_ROUND_CLOSEST__, before including this header file, the
 149:c:\avr toolchain\avr\include\util\delay.h ****    algorithm can be made to round down, or round to closest integer,
 150:c:\avr toolchain\avr\include\util\delay.h ****    respectively.
 151:c:\avr toolchain\avr\include\util\delay.h **** 
 152:c:\avr toolchain\avr\include\util\delay.h ****    \note
 153:c:\avr toolchain\avr\include\util\delay.h **** 
 154:c:\avr toolchain\avr\include\util\delay.h ****    The implementation of _delay_ms() based on
 155:c:\avr toolchain\avr\include\util\delay.h ****    __builtin_avr_delay_cycles() is not backward compatible with older
 156:c:\avr toolchain\avr\include\util\delay.h ****    implementations.  In order to get functionality backward compatible
 157:c:\avr toolchain\avr\include\util\delay.h ****    with previous versions, the macro \c "__DELAY_BACKWARD_COMPATIBLE__"
 158:c:\avr toolchain\avr\include\util\delay.h ****    must be defined before including this header file. Also, the
 159:c:\avr toolchain\avr\include\util\delay.h ****    backward compatible algorithm will be chosen if the code is
 160:c:\avr toolchain\avr\include\util\delay.h ****    compiled in a <em>freestanding environment</em> (GCC option
 161:c:\avr toolchain\avr\include\util\delay.h ****    \c -ffreestanding), as the math functions required for rounding are
 162:c:\avr toolchain\avr\include\util\delay.h ****    not available to the compiler then.
 163:c:\avr toolchain\avr\include\util\delay.h **** 
 164:c:\avr toolchain\avr\include\util\delay.h ****  */
 165:c:\avr toolchain\avr\include\util\delay.h **** void
GAS LISTING C:\Users\Rando\AppData\Local\Temp\ccdQm2td.s 			page 11


 166:c:\avr toolchain\avr\include\util\delay.h **** _delay_ms(double __ms)
 167:c:\avr toolchain\avr\include\util\delay.h **** {
 168:c:\avr toolchain\avr\include\util\delay.h **** 	double __tmp ;
 169:c:\avr toolchain\avr\include\util\delay.h **** #if __HAS_DELAY_CYCLES && defined(__OPTIMIZE__) && \
 170:c:\avr toolchain\avr\include\util\delay.h ****   !defined(__DELAY_BACKWARD_COMPATIBLE__) &&	   \
 171:c:\avr toolchain\avr\include\util\delay.h ****   __STDC_HOSTED__
 172:c:\avr toolchain\avr\include\util\delay.h **** 	uint32_t __ticks_dc;
 173:c:\avr toolchain\avr\include\util\delay.h **** 	extern void __builtin_avr_delay_cycles(unsigned long);
 174:c:\avr toolchain\avr\include\util\delay.h **** 	__tmp = ((F_CPU) / 1e3) * __ms;
 175:c:\avr toolchain\avr\include\util\delay.h **** 
 176:c:\avr toolchain\avr\include\util\delay.h **** 	#if defined(__DELAY_ROUND_DOWN__)
 177:c:\avr toolchain\avr\include\util\delay.h **** 		__ticks_dc = (uint32_t)fabs(__tmp);
 178:c:\avr toolchain\avr\include\util\delay.h **** 
 179:c:\avr toolchain\avr\include\util\delay.h **** 	#elif defined(__DELAY_ROUND_CLOSEST__)
 180:c:\avr toolchain\avr\include\util\delay.h **** 		__ticks_dc = (uint32_t)(fabs(__tmp)+0.5);
 181:c:\avr toolchain\avr\include\util\delay.h **** 
 182:c:\avr toolchain\avr\include\util\delay.h **** 	#else
 183:c:\avr toolchain\avr\include\util\delay.h **** 		//round up by default
 184:c:\avr toolchain\avr\include\util\delay.h **** 		__ticks_dc = (uint32_t)(ceil(fabs(__tmp)));
 185:c:\avr toolchain\avr\include\util\delay.h **** 	#endif
 186:c:\avr toolchain\avr\include\util\delay.h **** 
 187:c:\avr toolchain\avr\include\util\delay.h **** 	__builtin_avr_delay_cycles(__ticks_dc);
 265               		.loc 2 187 0
 266 0104 2FEF      		ldi r18,lo8(3199999)
 267 0106 83ED      		ldi r24,hi8(3199999)
 268 0108 90E3      		ldi r25,hlo8(3199999)
 269 010a 2150      	1:	subi r18,1
 270 010c 8040      		sbci r24,0
 271 010e 9040      		sbci r25,0
 272 0110 01F4      		brne 1b
 273 0112 00C0      		rjmp .
 274 0114 0000      		nop
 275               	.LVL31:
 276               	.LBE12:
 277               	.LBE11:
  61:src/batmon.c  ****             if(data[0] & (1 << 4)) {
 278               		.loc 1 61 0
 279 0116 CE01      		movw r24,r28
 280 0118 0196      		adiw r24,1
 281 011a 7C01      		movw r14,r24
 282 011c 00E0      		ldi r16,0
 283 011e 22E0      		ldi r18,lo8(2)
 284 0120 46E0      		ldi r20,lo8(6)
 285 0122 6BEA      		ldi r22,lo8(-85)
 286 0124 8AEA      		ldi r24,lo8(-86)
 287 0126 0E94 0000 		call i2c_read_multiple
 288               	.LVL32:
  62:src/batmon.c  ****                 // Enable block data memory control
 289               		.loc 1 62 0
 290 012a 8981      		ldd r24,Y+1
 291 012c 84FF      		sbrs r24,4
 292 012e 00C0      		rjmp .L13
 293               	.LBB13:
  64:src/batmon.c  ****                 i2c_write(0x61);
 294               		.loc 1 64 0
 295 0130 8AEA      		ldi r24,lo8(-86)
 296 0132 0E94 0000 		call i2c_start
GAS LISTING C:\Users\Rando\AppData\Local\Temp\ccdQm2td.s 			page 12


 297               	.LVL33:
  65:src/batmon.c  ****                 i2c_write(0x00);
 298               		.loc 1 65 0
 299 0136 81E6      		ldi r24,lo8(97)
 300 0138 0E94 0000 		call i2c_write
 301               	.LVL34:
  66:src/batmon.c  ****                 i2c_stop();
 302               		.loc 1 66 0
 303 013c 80E0      		ldi r24,0
 304 013e 0E94 0000 		call i2c_write
 305               	.LVL35:
  67:src/batmon.c  ****                 
 306               		.loc 1 67 0
 307 0142 0E94 0000 		call i2c_stop
 308               	.LVL36:
  70:src/batmon.c  ****                 i2c_write(0x3E);
 309               		.loc 1 70 0
 310 0146 8AEA      		ldi r24,lo8(-86)
 311 0148 0E94 0000 		call i2c_start
 312               	.LVL37:
  71:src/batmon.c  ****                 i2c_write(0x52);
 313               		.loc 1 71 0
 314 014c 8EE3      		ldi r24,lo8(62)
 315 014e 0E94 0000 		call i2c_write
 316               	.LVL38:
  72:src/batmon.c  ****                 i2c_stop();
 317               		.loc 1 72 0
 318 0152 82E5      		ldi r24,lo8(82)
 319 0154 0E94 0000 		call i2c_write
 320               	.LVL39:
  73:src/batmon.c  ****                 
 321               		.loc 1 73 0
 322 0158 0E94 0000 		call i2c_stop
 323               	.LVL40:
  76:src/batmon.c  ****                 i2c_write(0x3F);
 324               		.loc 1 76 0
 325 015c 8AEA      		ldi r24,lo8(-86)
 326 015e 0E94 0000 		call i2c_start
 327               	.LVL41:
  77:src/batmon.c  ****                 i2c_write(0x00);
 328               		.loc 1 77 0
 329 0162 8FE3      		ldi r24,lo8(63)
 330 0164 0E94 0000 		call i2c_write
 331               	.LVL42:
  78:src/batmon.c  ****                 i2c_stop();
 332               		.loc 1 78 0
 333 0168 80E0      		ldi r24,0
 334 016a 0E94 0000 		call i2c_write
 335               	.LVL43:
  79:src/batmon.c  ****                 
 336               		.loc 1 79 0
 337 016e 0E94 0000 		call i2c_stop
 338               	.LVL44:
  82:src/batmon.c  **** 
 339               		.loc 1 82 0
 340 0172 20E0      		ldi r18,0
 341 0174 40E6      		ldi r20,lo8(96)
GAS LISTING C:\Users\Rando\AppData\Local\Temp\ccdQm2td.s 			page 13


 342 0176 6BEA      		ldi r22,lo8(-85)
 343 0178 8AEA      		ldi r24,lo8(-86)
 344 017a 0E94 0000 		call i2c_read_single
 345               	.LVL45:
 346 017e 082F      		mov r16,r24
 347               	.LVL46:
  84:src/batmon.c  ****                     // Loeme design capacity, kirjutame ¸le
 348               		.loc 1 84 0
 349 0180 8A81      		ldd r24,Y+2
 350 0182 8C3A      		cpi r24,lo8(-84)
 351 0184 01F0      		breq .+2
 352 0186 00C0      		rjmp .L13
 353               	.LBB14:
  86:src/batmon.c  ****                     data[1] = i2c_read_single(0xAA,0xAB,0x4B,0);  
 354               		.loc 1 86 0
 355 0188 20E0      		ldi r18,0
 356 018a 4AE4      		ldi r20,lo8(74)
 357 018c 6BEA      		ldi r22,lo8(-85)
 358 018e 8AEA      		ldi r24,lo8(-86)
 359 0190 0E94 0000 		call i2c_read_single
 360               	.LVL47:
 361 0194 8983      		std Y+1,r24
  87:src/batmon.c  ****                     i2c_start(0xAA);
 362               		.loc 1 87 0
 363 0196 20E0      		ldi r18,0
 364 0198 4BE4      		ldi r20,lo8(75)
 365 019a 6BEA      		ldi r22,lo8(-85)
 366 019c 8AEA      		ldi r24,lo8(-86)
 367 019e 0E94 0000 		call i2c_read_single
 368               	.LVL48:
 369 01a2 8A83      		std Y+2,r24
  88:src/batmon.c  ****                     i2c_write(0x4a);
 370               		.loc 1 88 0
 371 01a4 8AEA      		ldi r24,lo8(-86)
 372 01a6 0E94 0000 		call i2c_start
 373               	.LVL49:
  89:src/batmon.c  ****                     i2c_write((dcap & 0xFF00)>>8);
 374               		.loc 1 89 0
 375 01aa 8AE4      		ldi r24,lo8(74)
 376 01ac 0E94 0000 		call i2c_write
 377               	.LVL50:
  90:src/batmon.c  ****                     i2c_stop();
 378               		.loc 1 90 0
 379 01b0 8D2D      		mov r24,r13
 380 01b2 0E94 0000 		call i2c_write
 381               	.LVL51:
  91:src/batmon.c  ****                     i2c_start(0xAA);
 382               		.loc 1 91 0
 383 01b6 0E94 0000 		call i2c_stop
 384               	.LVL52:
  92:src/batmon.c  ****                     i2c_write(0x4b);
 385               		.loc 1 92 0
 386 01ba 8AEA      		ldi r24,lo8(-86)
 387 01bc 0E94 0000 		call i2c_start
 388               	.LVL53:
  93:src/batmon.c  ****                     i2c_write(dcap & 0x00FF);
 389               		.loc 1 93 0
GAS LISTING C:\Users\Rando\AppData\Local\Temp\ccdQm2td.s 			page 14


 390 01c0 8BE4      		ldi r24,lo8(75)
 391 01c2 0E94 0000 		call i2c_write
 392               	.LVL54:
  94:src/batmon.c  ****                     i2c_stop();
 393               		.loc 1 94 0
 394 01c6 812F      		mov r24,r17
 395 01c8 0E94 0000 		call i2c_write
 396               	.LVL55:
  95:src/batmon.c  ****                     // Arvutame uue checksum'i ja kirjutame selle. valem ptk 3.1 https://www.ti.com
 397               		.loc 1 95 0
 398 01cc 0E94 0000 		call i2c_stop
 399               	.LVL56:
  98:src/batmon.c  ****                     i2c_start(0xAA);
 400               		.loc 1 98 0
 401 01d0 8FEF      		ldi r24,lo8(-1)
 402 01d2 90E0      		ldi r25,0
 403 01d4 801B      		sub r24,r16
 404 01d6 9109      		sbc r25,__zero_reg__
 405 01d8 2981      		ldd r18,Y+1
 406 01da 821B      		sub r24,r18
 407 01dc 9109      		sbc r25,__zero_reg__
 408 01de 2A81      		ldd r18,Y+2
 409 01e0 821B      		sub r24,r18
 410 01e2 9109      		sbc r25,__zero_reg__
 411 01e4 9078      		andi r25,128
 412 01e6 97FD      		sbrc r25,7
 413 01e8 00C0      		rjmp .L20
 414               	.L18:
 415 01ea 1D0D      		add r17,r13
 416 01ec 180F      		add r17,r24
 417 01ee 1095      		com r17
 418               	.LVL57:
  99:src/batmon.c  ****                     i2c_write(0x60);
 419               		.loc 1 99 0
 420 01f0 8AEA      		ldi r24,lo8(-86)
 421 01f2 0E94 0000 		call i2c_start
 422               	.LVL58:
 100:src/batmon.c  ****                     i2c_write(newcs);
 423               		.loc 1 100 0
 424 01f6 80E6      		ldi r24,lo8(96)
 425 01f8 0E94 0000 		call i2c_write
 426               	.LVL59:
 101:src/batmon.c  ****                     i2c_stop();
 427               		.loc 1 101 0
 428 01fc 812F      		mov r24,r17
 429 01fe 0E94 0000 		call i2c_write
 430               	.LVL60:
 102:src/batmon.c  ****                     // Soft reset & seal
 431               		.loc 1 102 0
 432 0202 0E94 0000 		call i2c_stop
 433               	.LVL61:
 104:src/batmon.c  ****                     i2c_write(0x00);
 434               		.loc 1 104 0
 435 0206 8AEA      		ldi r24,lo8(-86)
 436 0208 0E94 0000 		call i2c_start
 437               	.LVL62:
 105:src/batmon.c  ****                     i2c_write(0x42);
GAS LISTING C:\Users\Rando\AppData\Local\Temp\ccdQm2td.s 			page 15


 438               		.loc 1 105 0
 439 020c 80E0      		ldi r24,0
 440 020e 0E94 0000 		call i2c_write
 441               	.LVL63:
 106:src/batmon.c  ****                     i2c_write(0x00);
 442               		.loc 1 106 0
 443 0212 82E4      		ldi r24,lo8(66)
 444 0214 0E94 0000 		call i2c_write
 445               	.LVL64:
 107:src/batmon.c  ****                     i2c_stop();
 446               		.loc 1 107 0
 447 0218 80E0      		ldi r24,0
 448 021a 0E94 0000 		call i2c_write
 449               	.LVL65:
 108:src/batmon.c  ****                     i2c_start(0xAA);
 450               		.loc 1 108 0
 451 021e 0E94 0000 		call i2c_stop
 452               	.LVL66:
 109:src/batmon.c  ****                     i2c_write(0x00);
 453               		.loc 1 109 0
 454 0222 8AEA      		ldi r24,lo8(-86)
 455 0224 0E94 0000 		call i2c_start
 456               	.LVL67:
 110:src/batmon.c  ****                     i2c_write(0x20);
 457               		.loc 1 110 0
 458 0228 80E0      		ldi r24,0
 459 022a 0E94 0000 		call i2c_write
 460               	.LVL68:
 111:src/batmon.c  ****                     i2c_write(0x00);
 461               		.loc 1 111 0
 462 022e 80E2      		ldi r24,lo8(32)
 463 0230 0E94 0000 		call i2c_write
 464               	.LVL69:
 112:src/batmon.c  ****                     i2c_stop();
 465               		.loc 1 112 0
 466 0234 80E0      		ldi r24,0
 467 0236 0E94 0000 		call i2c_write
 468               	.LVL70:
 113:src/batmon.c  **** 
 469               		.loc 1 113 0
 470 023a 0E94 0000 		call i2c_stop
 471               	.LVL71:
 472 023e 00C0      		rjmp .L13
 473               	.LVL72:
 474               	.L20:
  98:src/batmon.c  ****                     i2c_start(0xAA);
 475               		.loc 1 98 0
 476 0240 0197      		sbiw r24,1
 477 0242 9F6F      		ori r25,255
 478 0244 0196      		adiw r24,1
 479 0246 00C0      		rjmp .L18
 480               	.LBE14:
 481               	.LBE13:
 482               	.LBE10:
 483               	.LBE9:
 484               		.cfi_endproc
 485               	.LFE7:
GAS LISTING C:\Users\Rando\AppData\Local\Temp\ccdQm2td.s 			page 16


 486               		.size	batmon_config, .-batmon_config
 487               	.global	batmon_soc
 488               		.type	batmon_soc, @function
 489               	batmon_soc:
 490               	.LFB8:
 122:src/batmon.c  **** 
 123:src/batmon.c  **** uint8_t batmon_soc() {
 491               		.loc 1 123 0
 492               		.cfi_startproc
 493               	/* prologue: function */
 494               	/* frame size = 0 */
 495               	/* stack size = 0 */
 496               	.L__stack_usage = 0
 124:src/batmon.c  ****     // Loeme state of charge v‰‰rtuse
 125:src/batmon.c  ****     return i2c_read_single(0xAA,0xAB,0x1C,0);
 497               		.loc 1 125 0
 498 0248 20E0      		ldi r18,0
 499 024a 4CE1      		ldi r20,lo8(28)
 500 024c 6BEA      		ldi r22,lo8(-85)
 501 024e 8AEA      		ldi r24,lo8(-86)
 502 0250 0C94 0000 		jmp i2c_read_single
 503               	.LVL73:
 504               		.cfi_endproc
 505               	.LFE8:
 506               		.size	batmon_soc, .-batmon_soc
 507               	.Letext0:
 508               		.file 3 "c:\\avr toolchain\\avr\\include\\stdint.h"
 509               		.file 4 "./include/i2c.h"