GAS LISTING C:\Users\Rando\AppData\Local\Temp\ccMYNWTe.s 			page 1


   1               		.file	"eink.c"
   2               	__SP_H__ = 0x3e
   3               	__SP_L__ = 0x3d
   4               	__SREG__ = 0x3f
   5               	__tmp_reg__ = 0
   6               	__zero_reg__ = 1
   7               		.text
   8               	.Ltext0:
   9               		.cfi_sections	.debug_frame
  10               	.global	EINK_toggle_reset
  11               		.type	EINK_toggle_reset, @function
  12               	EINK_toggle_reset:
  13               	.LFB11:
  14               		.file 1 "src/eink.c"
   1:src/eink.c    **** #include <include/eink.h>
   2:src/eink.c    **** #include <avr/io.h>
   3:src/eink.c    **** #define F_CPU 16000000UL
   4:src/eink.c    **** #include <util/delay.h>
   5:src/eink.c    **** #include <include/spi.h>
   6:src/eink.c    **** #include <math.h>
   7:src/eink.c    **** #include <avr/pgmspace.h>
   8:src/eink.c    **** #include <stdint.h>
   9:src/eink.c    **** #include <stdlib.h>
  10:src/eink.c    **** void EINK_toggle_reset() {
  15               		.loc 1 10 0
  16               		.cfi_startproc
  17               	/* prologue: function */
  18               	/* frame size = 0 */
  19               	/* stack size = 0 */
  20               	.L__stack_usage = 0
  11:src/eink.c    **** 	PORTD &= ~(1 << PD5);
  21               		.loc 1 11 0
  22 0000 5D98      		cbi 0xb,5
  23               	.LVL0:
  24               	.LBB44:
  25               	.LBB45:
  26               		.file 2 "c:\\avr toolchain\\avr\\include\\util\\delay.h"
   1:c:\avr toolchain\avr\include\util\delay.h **** /* Copyright (c) 2002, Marek Michalkiewicz
   2:c:\avr toolchain\avr\include\util\delay.h ****    Copyright (c) 2004,2005,2007 Joerg Wunsch
   3:c:\avr toolchain\avr\include\util\delay.h ****    Copyright (c) 2007  Florin-Viorel Petrov
   4:c:\avr toolchain\avr\include\util\delay.h ****    All rights reserved.
   5:c:\avr toolchain\avr\include\util\delay.h **** 
   6:c:\avr toolchain\avr\include\util\delay.h ****    Redistribution and use in source and binary forms, with or without
   7:c:\avr toolchain\avr\include\util\delay.h ****    modification, are permitted provided that the following conditions are met:
   8:c:\avr toolchain\avr\include\util\delay.h **** 
   9:c:\avr toolchain\avr\include\util\delay.h ****    * Redistributions of source code must retain the above copyright
  10:c:\avr toolchain\avr\include\util\delay.h ****      notice, this list of conditions and the following disclaimer.
  11:c:\avr toolchain\avr\include\util\delay.h **** 
  12:c:\avr toolchain\avr\include\util\delay.h ****    * Redistributions in binary form must reproduce the above copyright
  13:c:\avr toolchain\avr\include\util\delay.h ****      notice, this list of conditions and the following disclaimer in
  14:c:\avr toolchain\avr\include\util\delay.h ****      the documentation and/or other materials provided with the
  15:c:\avr toolchain\avr\include\util\delay.h ****      distribution.
  16:c:\avr toolchain\avr\include\util\delay.h **** 
  17:c:\avr toolchain\avr\include\util\delay.h ****    * Neither the name of the copyright holders nor the names of
  18:c:\avr toolchain\avr\include\util\delay.h ****      contributors may be used to endorse or promote products derived
  19:c:\avr toolchain\avr\include\util\delay.h ****      from this software without specific prior written permission.
  20:c:\avr toolchain\avr\include\util\delay.h **** 
GAS LISTING C:\Users\Rando\AppData\Local\Temp\ccMYNWTe.s 			page 2


  21:c:\avr toolchain\avr\include\util\delay.h ****   THIS SOFTWARE IS PROVIDED BY THE COPYRIGHT HOLDERS AND CONTRIBUTORS "AS IS"
  22:c:\avr toolchain\avr\include\util\delay.h ****   AND ANY EXPRESS OR IMPLIED WARRANTIES, INCLUDING, BUT NOT LIMITED TO, THE
  23:c:\avr toolchain\avr\include\util\delay.h ****   IMPLIED WARRANTIES OF MERCHANTABILITY AND FITNESS FOR A PARTICULAR PURPOSE
  24:c:\avr toolchain\avr\include\util\delay.h ****   ARE DISCLAIMED. IN NO EVENT SHALL THE COPYRIGHT OWNER OR CONTRIBUTORS BE
  25:c:\avr toolchain\avr\include\util\delay.h ****   LIABLE FOR ANY DIRECT, INDIRECT, INCIDENTAL, SPECIAL, EXEMPLARY, OR
  26:c:\avr toolchain\avr\include\util\delay.h ****   CONSEQUENTIAL DAMAGES (INCLUDING, BUT NOT LIMITED TO, PROCUREMENT OF
  27:c:\avr toolchain\avr\include\util\delay.h ****   SUBSTITUTE GOODS OR SERVICES; LOSS OF USE, DATA, OR PROFITS; OR BUSINESS
  28:c:\avr toolchain\avr\include\util\delay.h ****   INTERRUPTION) HOWEVER CAUSED AND ON ANY THEORY OF LIABILITY, WHETHER IN
  29:c:\avr toolchain\avr\include\util\delay.h ****   CONTRACT, STRICT LIABILITY, OR TORT (INCLUDING NEGLIGENCE OR OTHERWISE)
  30:c:\avr toolchain\avr\include\util\delay.h ****   ARISING IN ANY WAY OUT OF THE USE OF THIS SOFTWARE, EVEN IF ADVISED OF THE
  31:c:\avr toolchain\avr\include\util\delay.h ****   POSSIBILITY OF SUCH DAMAGE. */
  32:c:\avr toolchain\avr\include\util\delay.h **** 
  33:c:\avr toolchain\avr\include\util\delay.h **** /* $Id$ */
  34:c:\avr toolchain\avr\include\util\delay.h **** 
  35:c:\avr toolchain\avr\include\util\delay.h **** #ifndef _UTIL_DELAY_H_
  36:c:\avr toolchain\avr\include\util\delay.h **** #define _UTIL_DELAY_H_ 1
  37:c:\avr toolchain\avr\include\util\delay.h **** 
  38:c:\avr toolchain\avr\include\util\delay.h **** #ifndef __DOXYGEN__
  39:c:\avr toolchain\avr\include\util\delay.h **** #  ifndef __HAS_DELAY_CYCLES
  40:c:\avr toolchain\avr\include\util\delay.h **** #    define __HAS_DELAY_CYCLES 1
  41:c:\avr toolchain\avr\include\util\delay.h **** #  endif
  42:c:\avr toolchain\avr\include\util\delay.h **** #endif  /* __DOXYGEN__ */
  43:c:\avr toolchain\avr\include\util\delay.h **** 
  44:c:\avr toolchain\avr\include\util\delay.h **** #include <inttypes.h>
  45:c:\avr toolchain\avr\include\util\delay.h **** #include <util/delay_basic.h>
  46:c:\avr toolchain\avr\include\util\delay.h **** #include <math.h>
  47:c:\avr toolchain\avr\include\util\delay.h **** 
  48:c:\avr toolchain\avr\include\util\delay.h **** /** \file */
  49:c:\avr toolchain\avr\include\util\delay.h **** /** \defgroup util_delay <util/delay.h>: Convenience functions for busy-wait delay loops
  50:c:\avr toolchain\avr\include\util\delay.h ****     \code
  51:c:\avr toolchain\avr\include\util\delay.h ****     #define F_CPU 1000000UL  // 1 MHz
  52:c:\avr toolchain\avr\include\util\delay.h ****     //#define F_CPU 14.7456E6
  53:c:\avr toolchain\avr\include\util\delay.h ****     #include <util/delay.h>
  54:c:\avr toolchain\avr\include\util\delay.h ****     \endcode
  55:c:\avr toolchain\avr\include\util\delay.h **** 
  56:c:\avr toolchain\avr\include\util\delay.h ****     \note As an alternative method, it is possible to pass the
  57:c:\avr toolchain\avr\include\util\delay.h ****     F_CPU macro down to the compiler from the Makefile.
  58:c:\avr toolchain\avr\include\util\delay.h ****     Obviously, in that case, no \c \#define statement should be
  59:c:\avr toolchain\avr\include\util\delay.h ****     used.
  60:c:\avr toolchain\avr\include\util\delay.h **** 
  61:c:\avr toolchain\avr\include\util\delay.h ****     The functions in this header file are wrappers around the basic
  62:c:\avr toolchain\avr\include\util\delay.h ****     busy-wait functions from <util/delay_basic.h>.  They are meant as
  63:c:\avr toolchain\avr\include\util\delay.h ****     convenience functions where actual time values can be specified
  64:c:\avr toolchain\avr\include\util\delay.h ****     rather than a number of cycles to wait for.  The idea behind is
  65:c:\avr toolchain\avr\include\util\delay.h ****     that compile-time constant expressions will be eliminated by
  66:c:\avr toolchain\avr\include\util\delay.h ****     compiler optimization so floating-point expressions can be used
  67:c:\avr toolchain\avr\include\util\delay.h ****     to calculate the number of delay cycles needed based on the CPU
  68:c:\avr toolchain\avr\include\util\delay.h ****     frequency passed by the macro F_CPU.
  69:c:\avr toolchain\avr\include\util\delay.h **** 
  70:c:\avr toolchain\avr\include\util\delay.h ****     \note In order for these functions to work as intended, compiler
  71:c:\avr toolchain\avr\include\util\delay.h ****     optimizations <em>must</em> be enabled, and the delay time
  72:c:\avr toolchain\avr\include\util\delay.h ****     <em>must</em> be an expression that is a known constant at
  73:c:\avr toolchain\avr\include\util\delay.h ****     compile-time.  If these requirements are not met, the resulting
  74:c:\avr toolchain\avr\include\util\delay.h ****     delay will be much longer (and basically unpredictable), and
  75:c:\avr toolchain\avr\include\util\delay.h ****     applications that otherwise do not use floating-point calculations
  76:c:\avr toolchain\avr\include\util\delay.h ****     will experience severe code bloat by the floating-point library
  77:c:\avr toolchain\avr\include\util\delay.h ****     routines linked into the application.
GAS LISTING C:\Users\Rando\AppData\Local\Temp\ccMYNWTe.s 			page 3


  78:c:\avr toolchain\avr\include\util\delay.h **** 
  79:c:\avr toolchain\avr\include\util\delay.h ****     The functions available allow the specification of microsecond, and
  80:c:\avr toolchain\avr\include\util\delay.h ****     millisecond delays directly, using the application-supplied macro
  81:c:\avr toolchain\avr\include\util\delay.h ****     F_CPU as the CPU clock frequency (in Hertz).
  82:c:\avr toolchain\avr\include\util\delay.h **** 
  83:c:\avr toolchain\avr\include\util\delay.h **** */
  84:c:\avr toolchain\avr\include\util\delay.h **** 
  85:c:\avr toolchain\avr\include\util\delay.h **** #if !defined(__DOXYGEN__)
  86:c:\avr toolchain\avr\include\util\delay.h **** static __inline__ void _delay_us(double __us) __attribute__((__always_inline__));
  87:c:\avr toolchain\avr\include\util\delay.h **** static __inline__ void _delay_ms(double __ms) __attribute__((__always_inline__));
  88:c:\avr toolchain\avr\include\util\delay.h **** #endif
  89:c:\avr toolchain\avr\include\util\delay.h **** 
  90:c:\avr toolchain\avr\include\util\delay.h **** #ifndef F_CPU
  91:c:\avr toolchain\avr\include\util\delay.h **** /* prevent compiler error by supplying a default */
  92:c:\avr toolchain\avr\include\util\delay.h **** # warning "F_CPU not defined for <util/delay.h>"
  93:c:\avr toolchain\avr\include\util\delay.h **** /** \ingroup util_delay
  94:c:\avr toolchain\avr\include\util\delay.h ****     \def F_CPU
  95:c:\avr toolchain\avr\include\util\delay.h ****     \brief CPU frequency in Hz
  96:c:\avr toolchain\avr\include\util\delay.h **** 
  97:c:\avr toolchain\avr\include\util\delay.h ****     The macro F_CPU specifies the CPU frequency to be considered by
  98:c:\avr toolchain\avr\include\util\delay.h ****     the delay macros.  This macro is normally supplied by the
  99:c:\avr toolchain\avr\include\util\delay.h ****     environment (e.g. from within a project header, or the project's
 100:c:\avr toolchain\avr\include\util\delay.h ****     Makefile).  The value 1 MHz here is only provided as a "vanilla"
 101:c:\avr toolchain\avr\include\util\delay.h ****     fallback if no such user-provided definition could be found.
 102:c:\avr toolchain\avr\include\util\delay.h **** 
 103:c:\avr toolchain\avr\include\util\delay.h ****     In terms of the delay functions, the CPU frequency can be given as
 104:c:\avr toolchain\avr\include\util\delay.h ****     a floating-point constant (e.g. 3.6864E6 for 3.6864 MHz).
 105:c:\avr toolchain\avr\include\util\delay.h ****     However, the macros in <util/setbaud.h> require it to be an
 106:c:\avr toolchain\avr\include\util\delay.h ****     integer value.
 107:c:\avr toolchain\avr\include\util\delay.h ****  */
 108:c:\avr toolchain\avr\include\util\delay.h **** # define F_CPU 1000000UL
 109:c:\avr toolchain\avr\include\util\delay.h **** #endif
 110:c:\avr toolchain\avr\include\util\delay.h **** 
 111:c:\avr toolchain\avr\include\util\delay.h **** #ifndef __OPTIMIZE__
 112:c:\avr toolchain\avr\include\util\delay.h **** # warning "Compiler optimizations disabled; functions from <util/delay.h> won't work as designed"
 113:c:\avr toolchain\avr\include\util\delay.h **** #endif
 114:c:\avr toolchain\avr\include\util\delay.h **** 
 115:c:\avr toolchain\avr\include\util\delay.h **** #if __HAS_DELAY_CYCLES && defined(__OPTIMIZE__) && \
 116:c:\avr toolchain\avr\include\util\delay.h ****   !defined(__DELAY_BACKWARD_COMPATIBLE__) &&	   \
 117:c:\avr toolchain\avr\include\util\delay.h ****   __STDC_HOSTED__
 118:c:\avr toolchain\avr\include\util\delay.h **** #  include <math.h>
 119:c:\avr toolchain\avr\include\util\delay.h **** #endif
 120:c:\avr toolchain\avr\include\util\delay.h **** 
 121:c:\avr toolchain\avr\include\util\delay.h **** /**
 122:c:\avr toolchain\avr\include\util\delay.h ****    \ingroup util_delay
 123:c:\avr toolchain\avr\include\util\delay.h **** 
 124:c:\avr toolchain\avr\include\util\delay.h ****    Perform a delay of \c __ms milliseconds, using _delay_loop_2().
 125:c:\avr toolchain\avr\include\util\delay.h **** 
 126:c:\avr toolchain\avr\include\util\delay.h ****    The macro F_CPU is supposed to be defined to a
 127:c:\avr toolchain\avr\include\util\delay.h ****    constant defining the CPU clock frequency (in Hertz).
 128:c:\avr toolchain\avr\include\util\delay.h **** 
 129:c:\avr toolchain\avr\include\util\delay.h ****    The maximal possible delay is 262.14 ms / F_CPU in MHz.
 130:c:\avr toolchain\avr\include\util\delay.h **** 
 131:c:\avr toolchain\avr\include\util\delay.h ****    When the user request delay which exceed the maximum possible one,
 132:c:\avr toolchain\avr\include\util\delay.h ****    _delay_ms() provides a decreased resolution functionality. In this
 133:c:\avr toolchain\avr\include\util\delay.h ****    mode _delay_ms() will work with a resolution of 1/10 ms, providing
 134:c:\avr toolchain\avr\include\util\delay.h ****    delays up to 6.5535 seconds (independent from CPU frequency).  The
GAS LISTING C:\Users\Rando\AppData\Local\Temp\ccMYNWTe.s 			page 4


 135:c:\avr toolchain\avr\include\util\delay.h ****    user will not be informed about decreased resolution.
 136:c:\avr toolchain\avr\include\util\delay.h **** 
 137:c:\avr toolchain\avr\include\util\delay.h ****    If the avr-gcc toolchain has __builtin_avr_delay_cycles()
 138:c:\avr toolchain\avr\include\util\delay.h ****    support, maximal possible delay is 4294967.295 ms/ F_CPU in MHz. For
 139:c:\avr toolchain\avr\include\util\delay.h ****    values greater than the maximal possible delay, overflows results in
 140:c:\avr toolchain\avr\include\util\delay.h ****    no delay i.e., 0ms.
 141:c:\avr toolchain\avr\include\util\delay.h **** 
 142:c:\avr toolchain\avr\include\util\delay.h ****    Conversion of \c __ms into clock cycles may not always result in
 143:c:\avr toolchain\avr\include\util\delay.h ****    integer.  By default, the clock cycles rounded up to next
 144:c:\avr toolchain\avr\include\util\delay.h ****    integer. This ensures that the user gets at least \c __ms
 145:c:\avr toolchain\avr\include\util\delay.h ****    microseconds of delay.
 146:c:\avr toolchain\avr\include\util\delay.h **** 
 147:c:\avr toolchain\avr\include\util\delay.h ****    Alternatively, by defining the macro \c __DELAY_ROUND_DOWN__, or
 148:c:\avr toolchain\avr\include\util\delay.h ****    \c __DELAY_ROUND_CLOSEST__, before including this header file, the
 149:c:\avr toolchain\avr\include\util\delay.h ****    algorithm can be made to round down, or round to closest integer,
 150:c:\avr toolchain\avr\include\util\delay.h ****    respectively.
 151:c:\avr toolchain\avr\include\util\delay.h **** 
 152:c:\avr toolchain\avr\include\util\delay.h ****    \note
 153:c:\avr toolchain\avr\include\util\delay.h **** 
 154:c:\avr toolchain\avr\include\util\delay.h ****    The implementation of _delay_ms() based on
 155:c:\avr toolchain\avr\include\util\delay.h ****    __builtin_avr_delay_cycles() is not backward compatible with older
 156:c:\avr toolchain\avr\include\util\delay.h ****    implementations.  In order to get functionality backward compatible
 157:c:\avr toolchain\avr\include\util\delay.h ****    with previous versions, the macro \c "__DELAY_BACKWARD_COMPATIBLE__"
 158:c:\avr toolchain\avr\include\util\delay.h ****    must be defined before including this header file. Also, the
 159:c:\avr toolchain\avr\include\util\delay.h ****    backward compatible algorithm will be chosen if the code is
 160:c:\avr toolchain\avr\include\util\delay.h ****    compiled in a <em>freestanding environment</em> (GCC option
 161:c:\avr toolchain\avr\include\util\delay.h ****    \c -ffreestanding), as the math functions required for rounding are
 162:c:\avr toolchain\avr\include\util\delay.h ****    not available to the compiler then.
 163:c:\avr toolchain\avr\include\util\delay.h **** 
 164:c:\avr toolchain\avr\include\util\delay.h ****  */
 165:c:\avr toolchain\avr\include\util\delay.h **** void
 166:c:\avr toolchain\avr\include\util\delay.h **** _delay_ms(double __ms)
 167:c:\avr toolchain\avr\include\util\delay.h **** {
 168:c:\avr toolchain\avr\include\util\delay.h **** 	double __tmp ;
 169:c:\avr toolchain\avr\include\util\delay.h **** #if __HAS_DELAY_CYCLES && defined(__OPTIMIZE__) && \
 170:c:\avr toolchain\avr\include\util\delay.h ****   !defined(__DELAY_BACKWARD_COMPATIBLE__) &&	   \
 171:c:\avr toolchain\avr\include\util\delay.h ****   __STDC_HOSTED__
 172:c:\avr toolchain\avr\include\util\delay.h **** 	uint32_t __ticks_dc;
 173:c:\avr toolchain\avr\include\util\delay.h **** 	extern void __builtin_avr_delay_cycles(unsigned long);
 174:c:\avr toolchain\avr\include\util\delay.h **** 	__tmp = ((F_CPU) / 1e3) * __ms;
 175:c:\avr toolchain\avr\include\util\delay.h **** 
 176:c:\avr toolchain\avr\include\util\delay.h **** 	#if defined(__DELAY_ROUND_DOWN__)
 177:c:\avr toolchain\avr\include\util\delay.h **** 		__ticks_dc = (uint32_t)fabs(__tmp);
 178:c:\avr toolchain\avr\include\util\delay.h **** 
 179:c:\avr toolchain\avr\include\util\delay.h **** 	#elif defined(__DELAY_ROUND_CLOSEST__)
 180:c:\avr toolchain\avr\include\util\delay.h **** 		__ticks_dc = (uint32_t)(fabs(__tmp)+0.5);
 181:c:\avr toolchain\avr\include\util\delay.h **** 
 182:c:\avr toolchain\avr\include\util\delay.h **** 	#else
 183:c:\avr toolchain\avr\include\util\delay.h **** 		//round up by default
 184:c:\avr toolchain\avr\include\util\delay.h **** 		__ticks_dc = (uint32_t)(ceil(fabs(__tmp)));
 185:c:\avr toolchain\avr\include\util\delay.h **** 	#endif
 186:c:\avr toolchain\avr\include\util\delay.h **** 
 187:c:\avr toolchain\avr\include\util\delay.h **** 	__builtin_avr_delay_cycles(__ticks_dc);
  27               		.loc 2 187 0
  28 0002 8FE3      		ldi r24,lo8(-25537)
  29 0004 9CE9      		ldi r25,hi8(-25537)
  30 0006 0197      	1:	sbiw r24,1
GAS LISTING C:\Users\Rando\AppData\Local\Temp\ccMYNWTe.s 			page 5


  31 0008 01F4      		brne 1b
  32 000a 00C0      		rjmp .
  33 000c 0000      		nop
  34               	.LVL1:
  35               	.LBE45:
  36               	.LBE44:
  12:src/eink.c    **** 	_delay_ms(10);
  13:src/eink.c    **** 	PORTD |= (1 << PD5);
  37               		.loc 1 13 0
  38 000e 5D9A      		sbi 0xb,5
  39 0010 0895      		ret
  40               		.cfi_endproc
  41               	.LFE11:
  42               		.size	EINK_toggle_reset, .-EINK_toggle_reset
  43               	.global	EINK_set_data
  44               		.type	EINK_set_data, @function
  45               	EINK_set_data:
  46               	.LFB12:
  14:src/eink.c    **** }
  15:src/eink.c    **** 
  16:src/eink.c    **** void EINK_set_data() {
  47               		.loc 1 16 0
  48               		.cfi_startproc
  49               	/* prologue: function */
  50               	/* frame size = 0 */
  51               	/* stack size = 0 */
  52               	.L__stack_usage = 0
  17:src/eink.c    **** 	PORTD |= (1 << PD4);
  53               		.loc 1 17 0
  54 0012 5C9A      		sbi 0xb,4
  55 0014 0895      		ret
  56               		.cfi_endproc
  57               	.LFE12:
  58               		.size	EINK_set_data, .-EINK_set_data
  59               	.global	EINK_set_command
  60               		.type	EINK_set_command, @function
  61               	EINK_set_command:
  62               	.LFB13:
  18:src/eink.c    **** }
  19:src/eink.c    **** 
  20:src/eink.c    **** void EINK_set_command() {
  63               		.loc 1 20 0
  64               		.cfi_startproc
  65               	/* prologue: function */
  66               	/* frame size = 0 */
  67               	/* stack size = 0 */
  68               	.L__stack_usage = 0
  21:src/eink.c    **** 	PORTD &= ~(1 << PD4);
  69               		.loc 1 21 0
  70 0016 5C98      		cbi 0xb,4
  71 0018 0895      		ret
  72               		.cfi_endproc
  73               	.LFE13:
  74               		.size	EINK_set_command, .-EINK_set_command
  75               	.global	EINK_send_command
  76               		.type	EINK_send_command, @function
  77               	EINK_send_command:
GAS LISTING C:\Users\Rando\AppData\Local\Temp\ccMYNWTe.s 			page 6


  78               	.LFB14:
  22:src/eink.c    **** }
  23:src/eink.c    **** 
  24:src/eink.c    **** void EINK_send_command(unsigned char command) {
  79               		.loc 1 24 0
  80               		.cfi_startproc
  81               	.LVL2:
  82 001a CF93      		push r28
  83               	.LCFI0:
  84               		.cfi_def_cfa_offset 3
  85               		.cfi_offset 28, -2
  86               	/* prologue: function */
  87               	/* frame size = 0 */
  88               	/* stack size = 1 */
  89               	.L__stack_usage = 1
  90 001c C82F      		mov r28,r24
  91               	.LBB46:
  92               	.LBB47:
  21:src/eink.c    **** 	PORTD &= ~(1 << PD4);
  93               		.loc 1 21 0
  94 001e 5C98      		cbi 0xb,4
  95               	.LBE47:
  96               	.LBE46:
  25:src/eink.c    **** 	EINK_set_command();
  26:src/eink.c    **** 	SPI_unset_EINK_cs();
  97               		.loc 1 26 0
  98 0020 0E94 0000 		call SPI_unset_EINK_cs
  99               	.LVL3:
  27:src/eink.c    **** 	SPI_send(command);
 100               		.loc 1 27 0
 101 0024 8C2F      		mov r24,r28
 102 0026 0E94 0000 		call SPI_send
 103               	.LVL4:
 104               	/* epilogue start */
  28:src/eink.c    **** 	SPI_set_EINK_cs();
  29:src/eink.c    **** }
 105               		.loc 1 29 0
 106 002a CF91      		pop r28
 107               	.LVL5:
  28:src/eink.c    **** 	SPI_set_EINK_cs();
 108               		.loc 1 28 0
 109 002c 0C94 0000 		jmp SPI_set_EINK_cs
 110               	.LVL6:
 111               		.cfi_endproc
 112               	.LFE14:
 113               		.size	EINK_send_command, .-EINK_send_command
 114               	.global	EINK_send_data
 115               		.type	EINK_send_data, @function
 116               	EINK_send_data:
 117               	.LFB15:
  30:src/eink.c    **** 
  31:src/eink.c    **** void EINK_send_data(unsigned char data) {
 118               		.loc 1 31 0
 119               		.cfi_startproc
 120               	.LVL7:
 121 0030 CF93      		push r28
 122               	.LCFI1:
GAS LISTING C:\Users\Rando\AppData\Local\Temp\ccMYNWTe.s 			page 7


 123               		.cfi_def_cfa_offset 3
 124               		.cfi_offset 28, -2
 125               	/* prologue: function */
 126               	/* frame size = 0 */
 127               	/* stack size = 1 */
 128               	.L__stack_usage = 1
 129 0032 C82F      		mov r28,r24
 130               	.LBB48:
 131               	.LBB49:
  17:src/eink.c    **** }
 132               		.loc 1 17 0
 133 0034 5C9A      		sbi 0xb,4
 134               	.LBE49:
 135               	.LBE48:
  32:src/eink.c    **** 	EINK_set_data();
  33:src/eink.c    **** 	SPI_unset_EINK_cs();
 136               		.loc 1 33 0
 137 0036 0E94 0000 		call SPI_unset_EINK_cs
 138               	.LVL8:
  34:src/eink.c    **** 	SPI_send(data);
 139               		.loc 1 34 0
 140 003a 8C2F      		mov r24,r28
 141 003c 0E94 0000 		call SPI_send
 142               	.LVL9:
 143               	/* epilogue start */
  35:src/eink.c    **** 	SPI_set_EINK_cs();
  36:src/eink.c    **** }
 144               		.loc 1 36 0
 145 0040 CF91      		pop r28
 146               	.LVL10:
  35:src/eink.c    **** 	SPI_set_EINK_cs();
 147               		.loc 1 35 0
 148 0042 0C94 0000 		jmp SPI_set_EINK_cs
 149               	.LVL11:
 150               		.cfi_endproc
 151               	.LFE15:
 152               		.size	EINK_send_data, .-EINK_send_data
 153               	.global	EINK_clear_frame
 154               		.type	EINK_clear_frame, @function
 155               	EINK_clear_frame:
 156               	.LFB16:
  37:src/eink.c    **** 
  38:src/eink.c    **** void EINK_clear_frame() {
 157               		.loc 1 38 0
 158               		.cfi_startproc
 159 0046 CF93      		push r28
 160               	.LCFI2:
 161               		.cfi_def_cfa_offset 3
 162               		.cfi_offset 28, -2
 163 0048 DF93      		push r29
 164               	.LCFI3:
 165               		.cfi_def_cfa_offset 4
 166               		.cfi_offset 29, -3
 167               	/* prologue: function */
 168               	/* frame size = 0 */
 169               	/* stack size = 2 */
 170               	.L__stack_usage = 2
GAS LISTING C:\Users\Rando\AppData\Local\Temp\ccMYNWTe.s 			page 8


  39:src/eink.c    **** 	EINK_send_command(DATA_START_TRANSMISSION_1);
 171               		.loc 1 39 0
 172 004a 80E1      		ldi r24,lo8(16)
 173 004c 0E94 0000 		call EINK_send_command
 174               	.LVL12:
 175               	.LBB50:
 176               	.LBB51:
 177               		.loc 2 187 0
 178 0050 8FE3      		ldi r24,lo8(7999)
 179 0052 9FE1      		ldi r25,hi8(7999)
 180 0054 0197      	1:	sbiw r24,1
 181 0056 01F4      		brne 1b
 182 0058 00C0      		rjmp .
 183 005a 0000      		nop
 184               	.LVL13:
 185 005c C8EC      		ldi r28,lo8(-56)
 186 005e D0E0      		ldi r29,0
 187               	.LVL14:
 188               	.L7:
 189               	.LBE51:
 190               	.LBE50:
 191               	.LBB52:
  40:src/eink.c    **** 		        _delay_ms(2);
  41:src/eink.c    **** 
  42:src/eink.c    **** 	for(int i = 0; i < WIDTH * HEIGHT / 8; i++) {
  43:src/eink.c    ****         EINK_send_data(0xFF);  
 192               		.loc 1 43 0 discriminator 3
 193 0060 8FEF      		ldi r24,lo8(-1)
 194 0062 0E94 0000 		call EINK_send_data
 195               	.LVL15:
 196 0066 2197      		sbiw r28,1
 197               	.LVL16:
  42:src/eink.c    ****         EINK_send_data(0xFF);  
 198               		.loc 1 42 0 discriminator 3
 199 0068 01F4      		brne .L7
 200               	.LVL17:
 201               	.LBE52:
 202               	.LBB53:
 203               	.LBB54:
 204               		.loc 2 187 0
 205 006a 8FE3      		ldi r24,lo8(7999)
 206 006c 9FE1      		ldi r25,hi8(7999)
 207 006e 0197      	1:	sbiw r24,1
 208 0070 01F4      		brne 1b
 209 0072 00C0      		rjmp .
 210 0074 0000      		nop
 211               	.LVL18:
 212               	.LBE54:
 213               	.LBE53:
  44:src/eink.c    ****     } 
  45:src/eink.c    **** 	        _delay_ms(2);
  46:src/eink.c    **** 
  47:src/eink.c    **** 	EINK_send_command(DATA_START_TRANSMISSION_2);
 214               		.loc 1 47 0
 215 0076 83E1      		ldi r24,lo8(19)
 216 0078 0E94 0000 		call EINK_send_command
 217               	.LVL19:
GAS LISTING C:\Users\Rando\AppData\Local\Temp\ccMYNWTe.s 			page 9


 218               	.LBB55:
 219               	.LBB56:
 220               		.loc 2 187 0
 221 007c 8FE3      		ldi r24,lo8(7999)
 222 007e 9FE1      		ldi r25,hi8(7999)
 223 0080 0197      	1:	sbiw r24,1
 224 0082 01F4      		brne 1b
 225 0084 00C0      		rjmp .
 226 0086 0000      		nop
 227               	.LVL20:
 228 0088 C8EC      		ldi r28,lo8(-56)
 229 008a D0E0      		ldi r29,0
 230               	.LVL21:
 231               	.L8:
 232               	.LBE56:
 233               	.LBE55:
 234               	.LBB57:
  48:src/eink.c    **** 		        _delay_ms(2);
  49:src/eink.c    **** 
  50:src/eink.c    **** 	for(int i = 0; i < WIDTH * HEIGHT / 8; i++) {
  51:src/eink.c    ****         EINK_send_data(0xFF);  
 235               		.loc 1 51 0 discriminator 3
 236 008c 8FEF      		ldi r24,lo8(-1)
 237 008e 0E94 0000 		call EINK_send_data
 238               	.LVL22:
 239 0092 2197      		sbiw r28,1
 240               	.LVL23:
  50:src/eink.c    ****         EINK_send_data(0xFF);  
 241               		.loc 1 50 0 discriminator 3
 242 0094 01F4      		brne .L8
 243               	.LVL24:
 244               	.LBE57:
 245               	.LBB58:
 246               	.LBB59:
 247               		.loc 2 187 0
 248 0096 8FE3      		ldi r24,lo8(7999)
 249 0098 9FE1      		ldi r25,hi8(7999)
 250 009a 0197      	1:	sbiw r24,1
 251 009c 01F4      		brne 1b
 252 009e 00C0      		rjmp .
 253 00a0 0000      		nop
 254               	.LVL25:
 255               	/* epilogue start */
 256               	.LBE59:
 257               	.LBE58:
  52:src/eink.c    ****     }  
  53:src/eink.c    **** 		        _delay_ms(2);
  54:src/eink.c    **** 
  55:src/eink.c    **** }
 258               		.loc 1 55 0
 259 00a2 DF91      		pop r29
 260 00a4 CF91      		pop r28
 261               	.LVL26:
 262 00a6 0895      		ret
 263               		.cfi_endproc
 264               	.LFE16:
 265               		.size	EINK_clear_frame, .-EINK_clear_frame
GAS LISTING C:\Users\Rando\AppData\Local\Temp\ccMYNWTe.s 			page 10


 266               	.global	EINK_init
 267               		.type	EINK_init, @function
 268               	EINK_init:
 269               	.LFB17:
  56:src/eink.c    **** 
  57:src/eink.c    **** void EINK_init() {
 270               		.loc 1 57 0
 271               		.cfi_startproc
 272               	/* prologue: function */
 273               	/* frame size = 0 */
 274               	/* stack size = 0 */
 275               	.L__stack_usage = 0
  58:src/eink.c    **** 	
  59:src/eink.c    **** 	epdwidth = WIDTH;
 276               		.loc 1 59 0
 277 00a8 88E2      		ldi r24,lo8(40)
 278 00aa 8093 0000 		sts epdwidth,r24
  60:src/eink.c    **** 	
  61:src/eink.c    **** 	//RESET PIN
  62:src/eink.c    **** 	DDRD |= (1 << DDD5);
 279               		.loc 1 62 0
 280 00ae 559A      		sbi 0xa,5
  63:src/eink.c    **** 	PORTD |= (1 << PD5);
 281               		.loc 1 63 0
 282 00b0 5D9A      		sbi 0xb,5
  64:src/eink.c    **** 	
  65:src/eink.c    **** 	
  66:src/eink.c    **** 	// Data/Command pin
  67:src/eink.c    **** 	DDRD |= (1 << DDD4);
 283               		.loc 1 67 0
 284 00b2 549A      		sbi 0xa,4
  68:src/eink.c    **** 	
  69:src/eink.c    **** 	EINK_send_command(BOOSTER_SOFT_START);
 285               		.loc 1 69 0
 286 00b4 86E0      		ldi r24,lo8(6)
 287 00b6 0E94 0000 		call EINK_send_command
 288               	.LVL27:
  70:src/eink.c    **** 	EINK_send_data(0x17);
 289               		.loc 1 70 0
 290 00ba 87E1      		ldi r24,lo8(23)
 291 00bc 0E94 0000 		call EINK_send_data
 292               	.LVL28:
  71:src/eink.c    **** 	EINK_send_data(0x17);
 293               		.loc 1 71 0
 294 00c0 87E1      		ldi r24,lo8(23)
 295 00c2 0E94 0000 		call EINK_send_data
 296               	.LVL29:
  72:src/eink.c    **** 	EINK_send_data(0x17);
 297               		.loc 1 72 0
 298 00c6 87E1      		ldi r24,lo8(23)
 299 00c8 0E94 0000 		call EINK_send_data
 300               	.LVL30:
  73:src/eink.c    **** 	EINK_send_command(POWER_ON);
 301               		.loc 1 73 0
 302 00cc 84E0      		ldi r24,lo8(4)
 303 00ce 0E94 0000 		call EINK_send_command
 304               	.LVL31:
GAS LISTING C:\Users\Rando\AppData\Local\Temp\ccMYNWTe.s 			page 11


 305               	.LBB60:
 306               	.LBB61:
 307               		.loc 2 187 0
 308 00d2 2FEF      		ldi r18,lo8(6399999)
 309 00d4 87EA      		ldi r24,hi8(6399999)
 310 00d6 91E6      		ldi r25,hlo8(6399999)
 311 00d8 2150      	1:	subi r18,1
 312 00da 8040      		sbci r24,0
 313 00dc 9040      		sbci r25,0
 314 00de 01F4      		brne 1b
 315 00e0 00C0      		rjmp .
 316 00e2 0000      		nop
 317               	.LVL32:
 318               	.LBE61:
 319               	.LBE60:
  74:src/eink.c    **** 	_delay_ms(2000);
  75:src/eink.c    **** 	EINK_send_command(PANEL_SETTING);
 320               		.loc 1 75 0
 321 00e4 80E0      		ldi r24,0
 322 00e6 0E94 0000 		call EINK_send_command
 323               	.LVL33:
  76:src/eink.c    **** 	EINK_send_data(0x8F);
 324               		.loc 1 76 0
 325 00ea 8FE8      		ldi r24,lo8(-113)
 326 00ec 0E94 0000 		call EINK_send_data
 327               	.LVL34:
  77:src/eink.c    **** 	EINK_send_data(0x8F);
 328               		.loc 1 77 0
 329 00f0 8FE8      		ldi r24,lo8(-113)
 330 00f2 0E94 0000 		call EINK_send_data
 331               	.LVL35:
  78:src/eink.c    **** 	EINK_send_command(VCOM_AND_DATA_INTERVAL_SETTING);
 332               		.loc 1 78 0
 333 00f6 80E5      		ldi r24,lo8(80)
 334 00f8 0E94 0000 		call EINK_send_command
 335               	.LVL36:
  79:src/eink.c    **** 	EINK_send_data(0x37);
 336               		.loc 1 79 0
 337 00fc 87E3      		ldi r24,lo8(55)
 338 00fe 0E94 0000 		call EINK_send_data
 339               	.LVL37:
  80:src/eink.c    **** 	EINK_send_command(RESOLUTION_SETTING);
 340               		.loc 1 80 0
 341 0102 81E6      		ldi r24,lo8(97)
 342 0104 0E94 0000 		call EINK_send_command
 343               	.LVL38:
  81:src/eink.c    **** 	EINK_send_data(0x68);
 344               		.loc 1 81 0
 345 0108 88E6      		ldi r24,lo8(104)
 346 010a 0E94 0000 		call EINK_send_data
 347               	.LVL39:
  82:src/eink.c    **** 	EINK_send_data(0x00);
 348               		.loc 1 82 0
 349 010e 80E0      		ldi r24,0
 350 0110 0E94 0000 		call EINK_send_data
 351               	.LVL40:
  83:src/eink.c    **** 	EINK_send_data(0xD4);
GAS LISTING C:\Users\Rando\AppData\Local\Temp\ccMYNWTe.s 			page 12


 352               		.loc 1 83 0
 353 0114 84ED      		ldi r24,lo8(-44)
 354 0116 0E94 0000 		call EINK_send_data
 355               	.LVL41:
 356               	.LBB62:
 357               	.LBB63:
 358               		.loc 2 187 0
 359 011a 2FEF      		ldi r18,lo8(6399999)
 360 011c 87EA      		ldi r24,hi8(6399999)
 361 011e 91E6      		ldi r25,hlo8(6399999)
 362 0120 2150      	1:	subi r18,1
 363 0122 8040      		sbci r24,0
 364 0124 9040      		sbci r25,0
 365 0126 01F4      		brne 1b
 366 0128 00C0      		rjmp .
 367 012a 0000      		nop
 368               	.LVL42:
 369 012c 0895      		ret
 370               	.LBE63:
 371               	.LBE62:
 372               		.cfi_endproc
 373               	.LFE17:
 374               		.size	EINK_init, .-EINK_init
 375               	.global	EINK_display_frame
 376               		.type	EINK_display_frame, @function
 377               	EINK_display_frame:
 378               	.LFB18:
  84:src/eink.c    **** 	_delay_ms(2000);
  85:src/eink.c    **** 	//EINK_send_command(DISPLAY_REFRESH);
  86:src/eink.c    **** 	//_delay_ms(2000);
  87:src/eink.c    **** }
  88:src/eink.c    **** 
  89:src/eink.c    **** void EINK_display_frame(unsigned char* frame_buffer_black, unsigned char* frame_buffer_red) {
 379               		.loc 1 89 0
 380               		.cfi_startproc
 381               	.LVL43:
 382 012e EF92      		push r14
 383               	.LCFI4:
 384               		.cfi_def_cfa_offset 3
 385               		.cfi_offset 14, -2
 386 0130 FF92      		push r15
 387               	.LCFI5:
 388               		.cfi_def_cfa_offset 4
 389               		.cfi_offset 15, -3
 390 0132 0F93      		push r16
 391               	.LCFI6:
 392               		.cfi_def_cfa_offset 5
 393               		.cfi_offset 16, -4
 394 0134 1F93      		push r17
 395               	.LCFI7:
 396               		.cfi_def_cfa_offset 6
 397               		.cfi_offset 17, -5
 398 0136 CF93      		push r28
 399               	.LCFI8:
 400               		.cfi_def_cfa_offset 7
 401               		.cfi_offset 28, -6
 402 0138 DF93      		push r29
GAS LISTING C:\Users\Rando\AppData\Local\Temp\ccMYNWTe.s 			page 13


 403               	.LCFI9:
 404               		.cfi_def_cfa_offset 8
 405               		.cfi_offset 29, -7
 406               	/* prologue: function */
 407               	/* frame size = 0 */
 408               	/* stack size = 6 */
 409               	.L__stack_usage = 6
 410 013a 7C01      		movw r14,r24
 411 013c 8B01      		movw r16,r22
  90:src/eink.c    **** 	if (frame_buffer_black != NULL) {
 412               		.loc 1 90 0
 413 013e 892B      		or r24,r25
 414 0140 01F0      		breq .L17
  91:src/eink.c    ****         EINK_send_command(DATA_START_TRANSMISSION_1);
 415               		.loc 1 91 0
 416 0142 80E1      		ldi r24,lo8(16)
 417               	.LVL44:
 418 0144 0E94 0000 		call EINK_send_command
 419               	.LVL45:
 420               	.LBB64:
 421               	.LBB65:
 422               		.loc 2 187 0
 423 0148 EFE3      		ldi r30,lo8(7999)
 424 014a FFE1      		ldi r31,hi8(7999)
 425 014c 3197      	1:	sbiw r30,1
 426 014e 01F4      		brne 1b
 427 0150 00C0      		rjmp .
 428 0152 0000      		nop
 429               	.LVL46:
 430               	.LBE65:
 431               	.LBE64:
 432               	.LBB66:
  92:src/eink.c    **** 		        _delay_ms(2);
  93:src/eink.c    **** 
  94:src/eink.c    ****         for (int i = 0; i <  epdwidth*HEIGHT/8; i++) {
 433               		.loc 1 94 0
 434 0154 8091 0000 		lds r24,epdwidth
 435 0158 8823      		tst r24
 436 015a 01F0      		breq .L17
 437 015c C0E0      		ldi r28,0
 438 015e D0E0      		ldi r29,0
 439               	.LVL47:
 440               	.L18:
  95:src/eink.c    ****             EINK_send_data(frame_buffer_black[i]);
 441               		.loc 1 95 0 discriminator 3
 442 0160 F701      		movw r30,r14
 443 0162 8191      		ld r24,Z+
 444 0164 7F01      		movw r14,r30
 445 0166 0E94 0000 		call EINK_send_data
 446               	.LVL48:
  94:src/eink.c    ****             EINK_send_data(frame_buffer_black[i]);
 447               		.loc 1 94 0 discriminator 3
 448 016a 2196      		adiw r28,1
 449               	.LVL49:
 450 016c 2091 0000 		lds r18,epdwidth
 451 0170 F5E0      		ldi r31,lo8(5)
 452 0172 2F9F      		mul r18,r31
GAS LISTING C:\Users\Rando\AppData\Local\Temp\ccMYNWTe.s 			page 14


 453 0174 9001      		movw r18,r0
 454 0176 1124      		clr __zero_reg__
 455 0178 C217      		cp r28,r18
 456 017a D307      		cpc r29,r19
 457 017c 04F0      		brlt .L18
 458               	.LVL50:
 459               	.L17:
 460               	.LBE66:
 461               	.LBB67:
 462               	.LBB68:
 463               		.loc 2 187 0
 464 017e 8FE3      		ldi r24,lo8(7999)
 465 0180 9FE1      		ldi r25,hi8(7999)
 466 0182 0197      	1:	sbiw r24,1
 467 0184 01F4      		brne 1b
 468 0186 00C0      		rjmp .
 469 0188 0000      		nop
 470               	.LVL51:
 471               	.LBE68:
 472               	.LBE67:
  96:src/eink.c    ****         }
  97:src/eink.c    ****     }
  98:src/eink.c    **** 	        _delay_ms(2);
  99:src/eink.c    **** 
 100:src/eink.c    ****     if (frame_buffer_red != NULL) {
 473               		.loc 1 100 0
 474 018a 0115      		cp r16,__zero_reg__
 475 018c 1105      		cpc r17,__zero_reg__
 476 018e 01F0      		breq .L13
 101:src/eink.c    ****         EINK_send_command(DATA_START_TRANSMISSION_2);
 477               		.loc 1 101 0
 478 0190 83E1      		ldi r24,lo8(19)
 479 0192 0E94 0000 		call EINK_send_command
 480               	.LVL52:
 481               	.LBB69:
 482               	.LBB70:
 483               		.loc 2 187 0
 484 0196 8FE3      		ldi r24,lo8(7999)
 485 0198 9FE1      		ldi r25,hi8(7999)
 486 019a 0197      	1:	sbiw r24,1
 487 019c 01F4      		brne 1b
 488 019e 00C0      		rjmp .
 489 01a0 0000      		nop
 490               	.LVL53:
 491               	.LBE70:
 492               	.LBE69:
 493               	.LBB71:
 102:src/eink.c    **** 		        _delay_ms(2);
 103:src/eink.c    **** 
 104:src/eink.c    ****         for (int i = 0; i < epdwidth*HEIGHT/8; i++) {
 494               		.loc 1 104 0
 495 01a2 8091 0000 		lds r24,epdwidth
 496 01a6 8823      		tst r24
 497 01a8 01F0      		breq .L21
 498 01aa C0E0      		ldi r28,0
 499 01ac D0E0      		ldi r29,0
 500               	.LVL54:
GAS LISTING C:\Users\Rando\AppData\Local\Temp\ccMYNWTe.s 			page 15


 501               	.L20:
 105:src/eink.c    ****             EINK_send_data(frame_buffer_red[i]);
 502               		.loc 1 105 0 discriminator 3
 503 01ae F801      		movw r30,r16
 504 01b0 8191      		ld r24,Z+
 505 01b2 8F01      		movw r16,r30
 506 01b4 0E94 0000 		call EINK_send_data
 507               	.LVL55:
 104:src/eink.c    ****             EINK_send_data(frame_buffer_red[i]);
 508               		.loc 1 104 0 discriminator 3
 509 01b8 2196      		adiw r28,1
 510               	.LVL56:
 511 01ba 8091 0000 		lds r24,epdwidth
 512 01be F5E0      		ldi r31,lo8(5)
 513 01c0 8F9F      		mul r24,r31
 514 01c2 C001      		movw r24,r0
 515 01c4 1124      		clr __zero_reg__
 516 01c6 C817      		cp r28,r24
 517 01c8 D907      		cpc r29,r25
 518 01ca 04F0      		brlt .L20
 519               	.LVL57:
 520               	.L21:
 521               	.LBE71:
 522               	.LBB72:
 523               	.LBB73:
 524               		.loc 2 187 0
 525 01cc EFE3      		ldi r30,lo8(7999)
 526 01ce FFE1      		ldi r31,hi8(7999)
 527 01d0 3197      	1:	sbiw r30,1
 528 01d2 01F4      		brne 1b
 529 01d4 00C0      		rjmp .
 530 01d6 0000      		nop
 531               	.LVL58:
 532               	.L13:
 533               	/* epilogue start */
 534               	.LBE73:
 535               	.LBE72:
 106:src/eink.c    ****         }
 107:src/eink.c    **** 		        _delay_ms(2);
 108:src/eink.c    **** 
 109:src/eink.c    ****     }
 110:src/eink.c    **** }
 536               		.loc 1 110 0
 537 01d8 DF91      		pop r29
 538 01da CF91      		pop r28
 539 01dc 1F91      		pop r17
 540 01de 0F91      		pop r16
 541 01e0 FF90      		pop r15
 542 01e2 EF90      		pop r14
 543 01e4 0895      		ret
 544               		.cfi_endproc
 545               	.LFE18:
 546               		.size	EINK_display_frame, .-EINK_display_frame
 547               	.global	EINK_draw_absolute_pixel
 548               		.type	EINK_draw_absolute_pixel, @function
 549               	EINK_draw_absolute_pixel:
 550               	.LFB19:
GAS LISTING C:\Users\Rando\AppData\Local\Temp\ccMYNWTe.s 			page 16


 111:src/eink.c    **** 
 112:src/eink.c    **** void EINK_draw_absolute_pixel(unsigned char* image, int x, int y, int colored) {
 551               		.loc 1 112 0
 552               		.cfi_startproc
 553               	.LVL59:
 554               	/* prologue: function */
 555               	/* frame size = 0 */
 556               	/* stack size = 0 */
 557               	.L__stack_usage = 0
 113:src/eink.c    **** 	if (x < 0 || x >= epdwidth || y < 0 || y >= HEIGHT) { // Partialite jaoks vaja partiali suurust! M
 558               		.loc 1 113 0
 559 01e6 77FD      		sbrc r23,7
 560 01e8 00C0      		rjmp .L27
 561               		.loc 1 113 0 is_stmt 0 discriminator 1
 562 01ea E091 0000 		lds r30,epdwidth
 563 01ee F0E0      		ldi r31,0
 564 01f0 6E17      		cp r22,r30
 565 01f2 7F07      		cpc r23,r31
 566 01f4 04F4      		brge .L27
 567               		.loc 1 113 0 discriminator 3
 568 01f6 4832      		cpi r20,40
 569 01f8 5105      		cpc r21,__zero_reg__
 570 01fa 00F4      		brsh .L27
 114:src/eink.c    ****         return;
 115:src/eink.c    ****     }
 116:src/eink.c    **** 	
 117:src/eink.c    ****     if (IF_INVERT_COLOR) {
 118:src/eink.c    ****         if (colored) {
 119:src/eink.c    ****             image[(x + y * epdwidth) / 8] |= 0x80 >> (x % 8);
 120:src/eink.c    ****         } else {
 121:src/eink.c    ****             image[(x + y * epdwidth) / 8 ] &= ~(0x80 >> (x % 8));
 122:src/eink.c    ****         }
 123:src/eink.c    ****     } else {
 124:src/eink.c    ****         if (colored) {
 571               		.loc 1 124 0 is_stmt 1
 572 01fc 232B      		or r18,r19
 573 01fe 01F4      		brne .L30
 125:src/eink.c    ****             image[(x + y * epdwidth) / 8]  &= ~(0x80 >> (x % 8));
 126:src/eink.c    ****         } else {
 127:src/eink.c    ****             image[(x + y * epdwidth) / 8 ] |= 0x80 >> (x % 8);
 574               		.loc 1 127 0
 575 0200 E49F      		mul r30,r20
 576 0202 9001      		movw r18,r0
 577 0204 E59F      		mul r30,r21
 578 0206 300D      		add r19,r0
 579 0208 F49F      		mul r31,r20
 580 020a 300D      		add r19,r0
 581 020c 1124      		clr r1
 582               	.LVL60:
 583 020e F901      		movw r30,r18
 584 0210 E60F      		add r30,r22
 585 0212 F71F      		adc r31,r23
 586 0214 F595      		asr r31
 587 0216 E795      		ror r30
 588 0218 F595      		asr r31
 589 021a E795      		ror r30
 590 021c F595      		asr r31
GAS LISTING C:\Users\Rando\AppData\Local\Temp\ccMYNWTe.s 			page 17


 591 021e E795      		ror r30
 592 0220 E80F      		add r30,r24
 593 0222 F91F      		adc r31,r25
 594 0224 6770      		andi r22,7
 595 0226 7727      		clr r23
 596               	.LVL61:
 597 0228 80E8      		ldi r24,lo8(-128)
 598 022a 90E0      		ldi r25,0
 599               	.LVL62:
 600 022c 00C0      		rjmp 2f
 601               		1:
 602 022e 9595      		asr r25
 603 0230 8795      		ror r24
 604               		2:
 605 0232 6A95      		dec r22
 606 0234 02F4      		brpl 1b
 607 0236 9081      		ld r25,Z
 608 0238 892B      		or r24,r25
 609 023a 8083      		st Z,r24
 610               	.L27:
 611 023c 0895      		ret
 612               	.LVL63:
 613               	.L30:
 125:src/eink.c    ****             image[(x + y * epdwidth) / 8]  &= ~(0x80 >> (x % 8));
 614               		.loc 1 125 0
 615 023e E49F      		mul r30,r20
 616 0240 9001      		movw r18,r0
 617 0242 E59F      		mul r30,r21
 618 0244 300D      		add r19,r0
 619 0246 F49F      		mul r31,r20
 620 0248 300D      		add r19,r0
 621 024a 1124      		clr r1
 622               	.LVL64:
 623 024c F901      		movw r30,r18
 624 024e E60F      		add r30,r22
 625 0250 F71F      		adc r31,r23
 626 0252 F595      		asr r31
 627 0254 E795      		ror r30
 628 0256 F595      		asr r31
 629 0258 E795      		ror r30
 630 025a F595      		asr r31
 631 025c E795      		ror r30
 632 025e E80F      		add r30,r24
 633 0260 F91F      		adc r31,r25
 634 0262 6770      		andi r22,7
 635 0264 7727      		clr r23
 636               	.LVL65:
 637 0266 80E8      		ldi r24,lo8(-128)
 638 0268 90E0      		ldi r25,0
 639               	.LVL66:
 640 026a 00C0      		rjmp 2f
 641               		1:
 642 026c 9595      		asr r25
 643 026e 8795      		ror r24
 644               		2:
 645 0270 6A95      		dec r22
 646 0272 02F4      		brpl 1b
GAS LISTING C:\Users\Rando\AppData\Local\Temp\ccMYNWTe.s 			page 18


 647 0274 8095      		com r24
 648 0276 9081      		ld r25,Z
 649 0278 8923      		and r24,r25
 650 027a 8083      		st Z,r24
 651 027c 0895      		ret
 652               		.cfi_endproc
 653               	.LFE19:
 654               		.size	EINK_draw_absolute_pixel, .-EINK_draw_absolute_pixel
 655               	.global	EINK_set_partial_black
 656               		.type	EINK_set_partial_black, @function
 657               	EINK_set_partial_black:
 658               	.LFB20:
 128:src/eink.c    ****         }
 129:src/eink.c    ****     }
 130:src/eink.c    **** }
 131:src/eink.c    **** 
 132:src/eink.c    **** void EINK_set_partial_black(unsigned char* buffer, int x, int y, int w, int l) {
 659               		.loc 1 132 0
 660               		.cfi_startproc
 661               	.LVL67:
 662 027e 9F92      		push r9
 663               	.LCFI10:
 664               		.cfi_def_cfa_offset 3
 665               		.cfi_offset 9, -2
 666 0280 AF92      		push r10
 667               	.LCFI11:
 668               		.cfi_def_cfa_offset 4
 669               		.cfi_offset 10, -3
 670 0282 BF92      		push r11
 671               	.LCFI12:
 672               		.cfi_def_cfa_offset 5
 673               		.cfi_offset 11, -4
 674 0284 CF92      		push r12
 675               	.LCFI13:
 676               		.cfi_def_cfa_offset 6
 677               		.cfi_offset 12, -5
 678 0286 DF92      		push r13
 679               	.LCFI14:
 680               		.cfi_def_cfa_offset 7
 681               		.cfi_offset 13, -6
 682 0288 EF92      		push r14
 683               	.LCFI15:
 684               		.cfi_def_cfa_offset 8
 685               		.cfi_offset 14, -7
 686 028a FF92      		push r15
 687               	.LCFI16:
 688               		.cfi_def_cfa_offset 9
 689               		.cfi_offset 15, -8
 690 028c 0F93      		push r16
 691               	.LCFI17:
 692               		.cfi_def_cfa_offset 10
 693               		.cfi_offset 16, -9
 694 028e 1F93      		push r17
 695               	.LCFI18:
 696               		.cfi_def_cfa_offset 11
 697               		.cfi_offset 17, -10
 698 0290 CF93      		push r28
GAS LISTING C:\Users\Rando\AppData\Local\Temp\ccMYNWTe.s 			page 19


 699               	.LCFI19:
 700               		.cfi_def_cfa_offset 12
 701               		.cfi_offset 28, -11
 702 0292 DF93      		push r29
 703               	.LCFI20:
 704               		.cfi_def_cfa_offset 13
 705               		.cfi_offset 29, -12
 706               	/* prologue: function */
 707               	/* frame size = 0 */
 708               	/* stack size = 11 */
 709               	.L__stack_usage = 11
 710 0294 EC01      		movw r28,r24
 711 0296 F62E      		mov r15,r22
 712 0298 5A01      		movw r10,r20
 713 029a E22E      		mov r14,r18
 714 029c 932E      		mov r9,r19
 715 029e 6801      		movw r12,r16
 133:src/eink.c    **** 	EINK_send_command(PARTIAL_IN);
 716               		.loc 1 133 0
 717 02a0 81E9      		ldi r24,lo8(-111)
 718               	.LVL68:
 719 02a2 0E94 0000 		call EINK_send_command
 720               	.LVL69:
 134:src/eink.c    **** 	EINK_send_command(PARTIAL_WINDOW);
 721               		.loc 1 134 0
 722 02a6 80E9      		ldi r24,lo8(-112)
 723 02a8 0E94 0000 		call EINK_send_command
 724               	.LVL70:
 135:src/eink.c    **** 
 136:src/eink.c    **** 	EINK_send_data( x & 0xf8); // X on 8 kordne
 725               		.loc 1 136 0
 726 02ac 1F2D      		mov r17,r15
 727 02ae 187F      		andi r17,lo8(-8)
 728 02b0 812F      		mov r24,r17
 729 02b2 0E94 0000 		call EINK_send_data
 730               	.LVL71:
 137:src/eink.c    **** 	EINK_send_data(((x&0xf8) + w - 1) | 0x07);
 731               		.loc 1 137 0
 732 02b6 8FEF      		ldi r24,lo8(-1)
 733 02b8 8E0D      		add r24,r14
 734 02ba 810F      		add r24,r17
 735 02bc 8760      		ori r24,lo8(7)
 736 02be 0E94 0000 		call EINK_send_data
 737               	.LVL72:
 138:src/eink.c    **** 
 139:src/eink.c    **** 	EINK_send_data(y >> 8);
 738               		.loc 1 139 0
 739 02c2 8B2D      		mov r24,r11
 740 02c4 0E94 0000 		call EINK_send_data
 741               	.LVL73:
 140:src/eink.c    **** 	EINK_send_data(y & 0xff);
 742               		.loc 1 140 0
 743 02c8 8A2D      		mov r24,r10
 744 02ca 0E94 0000 		call EINK_send_data
 745               	.LVL74:
 141:src/eink.c    **** 	EINK_send_data((y + l -1) >> 8);
 746               		.loc 1 141 0
GAS LISTING C:\Users\Rando\AppData\Local\Temp\ccMYNWTe.s 			page 20


 747 02ce C501      		movw r24,r10
 748 02d0 8C0D      		add r24,r12
 749 02d2 9D1D      		adc r25,r13
 750 02d4 0197      		sbiw r24,1
 751 02d6 892F      		mov r24,r25
 752 02d8 0E94 0000 		call EINK_send_data
 753               	.LVL75:
 142:src/eink.c    **** 	EINK_send_data((y + l - 1) & 0xff);
 754               		.loc 1 142 0
 755 02dc 8FEF      		ldi r24,lo8(-1)
 756 02de 8C0D      		add r24,r12
 757 02e0 8A0D      		add r24,r10
 758 02e2 0E94 0000 		call EINK_send_data
 759               	.LVL76:
 143:src/eink.c    **** 	EINK_send_data(0x01);
 760               		.loc 1 143 0
 761 02e6 81E0      		ldi r24,lo8(1)
 762 02e8 0E94 0000 		call EINK_send_data
 763               	.LVL77:
 764               	.LBB74:
 765               	.LBB75:
 766               		.loc 2 187 0
 767 02ec 8FE3      		ldi r24,lo8(7999)
 768 02ee 9FE1      		ldi r25,hi8(7999)
 769 02f0 0197      	1:	sbiw r24,1
 770 02f2 01F4      		brne 1b
 771 02f4 00C0      		rjmp .
 772 02f6 0000      		nop
 773               	.LVL78:
 774               	.LBE75:
 775               	.LBE74:
 144:src/eink.c    **** 	_delay_ms(2);
 145:src/eink.c    **** 	EINK_send_command(DATA_START_TRANSMISSION_1);
 776               		.loc 1 145 0
 777 02f8 80E1      		ldi r24,lo8(16)
 778 02fa 0E94 0000 		call EINK_send_command
 779               	.LVL79:
 780               	.LBB76:
 146:src/eink.c    **** 	if (buffer != NULL) {
 147:src/eink.c    ****         for(int i = 0; i < w  / 8 * l; i++) {
 781               		.loc 1 147 0
 782 02fe 8E2D      		mov r24,r14
 783 0300 992D      		mov r25,r9
 784               	.LBE76:
 146:src/eink.c    **** 	if (buffer != NULL) {
 785               		.loc 1 146 0
 786 0302 2097      		sbiw r28,0
 787 0304 01F0      		breq .L41
 788               	.LVL80:
 789               	.LBB77:
 790               		.loc 1 147 0 discriminator 1
 791 0306 97FD      		sbrc r25,7
 792 0308 00C0      		rjmp .L42
 793               	.L35:
 794 030a 9C01      		movw r18,r24
 795 030c 3595      		asr r19
 796 030e 2795      		ror r18
GAS LISTING C:\Users\Rando\AppData\Local\Temp\ccMYNWTe.s 			page 21


 797 0310 3595      		asr r19
 798 0312 2795      		ror r18
 799 0314 3595      		asr r19
 800 0316 2795      		ror r18
 801 0318 2C9D      		mul r18,r12
 802 031a C001      		movw r24,r0
 803 031c 2D9D      		mul r18,r13
 804 031e 900D      		add r25,r0
 805 0320 3C9D      		mul r19,r12
 806 0322 900D      		add r25,r0
 807 0324 1124      		clr r1
 808 0326 1816      		cp __zero_reg__,r24
 809 0328 1906      		cpc __zero_reg__,r25
 810 032a 04F4      		brge .L36
 811 032c 8E01      		movw r16,r28
 812               	.LVL81:
 813 032e 080F      		add r16,r24
 814 0330 191F      		adc r17,r25
 815               	.LVL82:
 816               	.L37:
 148:src/eink.c    ****             EINK_send_data(buffer[i]);  
 817               		.loc 1 148 0 discriminator 3
 818 0332 8991      		ld r24,Y+
 819               	.LVL83:
 820 0334 0E94 0000 		call EINK_send_data
 821               	.LVL84:
 147:src/eink.c    ****             EINK_send_data(buffer[i]);  
 822               		.loc 1 147 0 discriminator 3
 823 0338 0C17      		cp r16,r28
 824 033a 1D07      		cpc r17,r29
 825 033c 01F4      		brne .L37
 826               	.LVL85:
 827               	.L36:
 828               	.LBE77:
 829               	.LBB78:
 830               	.LBB79:
 831               		.loc 2 187 0
 832 033e 8FE3      		ldi r24,lo8(7999)
 833 0340 9FE1      		ldi r25,hi8(7999)
 834 0342 0197      	1:	sbiw r24,1
 835 0344 01F4      		brne 1b
 836 0346 00C0      		rjmp .
 837 0348 0000      		nop
 838               	.LVL86:
 839               	.LBE79:
 840               	.LBE78:
 149:src/eink.c    ****         }  
 150:src/eink.c    ****     } else {
 151:src/eink.c    ****         for(int i = 0; i < w  / 8 * l; i++) {
 152:src/eink.c    ****             EINK_send_data(0x00);  
 153:src/eink.c    ****         }  
 154:src/eink.c    ****     }
 155:src/eink.c    ****     _delay_ms(2);
 156:src/eink.c    **** 	EINK_send_command(PARTIAL_OUT);  
 841               		.loc 1 156 0
 842 034a 82E9      		ldi r24,lo8(-110)
 843               	/* epilogue start */
GAS LISTING C:\Users\Rando\AppData\Local\Temp\ccMYNWTe.s 			page 22


 157:src/eink.c    **** }
 844               		.loc 1 157 0
 845 034c DF91      		pop r29
 846 034e CF91      		pop r28
 847 0350 1F91      		pop r17
 848 0352 0F91      		pop r16
 849 0354 FF90      		pop r15
 850 0356 EF90      		pop r14
 851 0358 DF90      		pop r13
 852 035a CF90      		pop r12
 853               	.LVL87:
 854 035c BF90      		pop r11
 855 035e AF90      		pop r10
 856               	.LVL88:
 857 0360 9F90      		pop r9
 156:src/eink.c    **** }
 858               		.loc 1 156 0
 859 0362 0C94 0000 		jmp EINK_send_command
 860               	.LVL89:
 861               	.L42:
 862               	.LBB80:
 147:src/eink.c    ****             EINK_send_data(buffer[i]);  
 863               		.loc 1 147 0 discriminator 1
 864 0366 0796      		adiw r24,7
 865 0368 00C0      		rjmp .L35
 866               	.LVL90:
 867               	.L41:
 868               	.LBE80:
 869               	.LBB81:
 151:src/eink.c    ****             EINK_send_data(0x00);  
 870               		.loc 1 151 0 discriminator 1
 871 036a 97FD      		sbrc r25,7
 872 036c 00C0      		rjmp .L43
 873               	.L33:
 874 036e 9595      		asr r25
 875 0370 8795      		ror r24
 876 0372 9595      		asr r25
 877 0374 8795      		ror r24
 878 0376 9595      		asr r25
 879 0378 8795      		ror r24
 880 037a 8C9D      		mul r24,r12
 881 037c 8001      		movw r16,r0
 882 037e 8D9D      		mul r24,r13
 883 0380 100D      		add r17,r0
 884 0382 9C9D      		mul r25,r12
 885 0384 100D      		add r17,r0
 886 0386 1124      		clr r1
 887 0388 1016      		cp __zero_reg__,r16
 888 038a 1106      		cpc __zero_reg__,r17
 889 038c 04F4      		brge .L36
 151:src/eink.c    ****             EINK_send_data(0x00);  
 890               		.loc 1 151 0 is_stmt 0 discriminator 3
 891 038e C0E0      		ldi r28,0
 892 0390 D0E0      		ldi r29,0
 893               	.LVL91:
 894               	.L38:
 152:src/eink.c    ****         }  
GAS LISTING C:\Users\Rando\AppData\Local\Temp\ccMYNWTe.s 			page 23


 895               		.loc 1 152 0 is_stmt 1 discriminator 3
 896 0392 80E0      		ldi r24,0
 897 0394 0E94 0000 		call EINK_send_data
 898               	.LVL92:
 151:src/eink.c    ****             EINK_send_data(0x00);  
 899               		.loc 1 151 0 discriminator 3
 900 0398 2196      		adiw r28,1
 901               	.LVL93:
 902 039a C017      		cp r28,r16
 903 039c D107      		cpc r29,r17
 904 039e 01F4      		brne .L38
 905 03a0 00C0      		rjmp .L36
 906               	.LVL94:
 907               	.L43:
 151:src/eink.c    ****             EINK_send_data(0x00);  
 908               		.loc 1 151 0 is_stmt 0 discriminator 1
 909 03a2 0796      		adiw r24,7
 910 03a4 00C0      		rjmp .L33
 911               	.LBE81:
 912               		.cfi_endproc
 913               	.LFE20:
 914               		.size	EINK_set_partial_black, .-EINK_set_partial_black
 915               	.global	EINK_set_partial_red
 916               		.type	EINK_set_partial_red, @function
 917               	EINK_set_partial_red:
 918               	.LFB21:
 158:src/eink.c    **** 
 159:src/eink.c    **** void EINK_set_partial_red(unsigned char* buffer, int x, int y, int w, int l) {
 919               		.loc 1 159 0 is_stmt 1
 920               		.cfi_startproc
 921               	.LVL95:
 922 03a6 9F92      		push r9
 923               	.LCFI21:
 924               		.cfi_def_cfa_offset 3
 925               		.cfi_offset 9, -2
 926 03a8 AF92      		push r10
 927               	.LCFI22:
 928               		.cfi_def_cfa_offset 4
 929               		.cfi_offset 10, -3
 930 03aa BF92      		push r11
 931               	.LCFI23:
 932               		.cfi_def_cfa_offset 5
 933               		.cfi_offset 11, -4
 934 03ac CF92      		push r12
 935               	.LCFI24:
 936               		.cfi_def_cfa_offset 6
 937               		.cfi_offset 12, -5
 938 03ae DF92      		push r13
 939               	.LCFI25:
 940               		.cfi_def_cfa_offset 7
 941               		.cfi_offset 13, -6
 942 03b0 EF92      		push r14
 943               	.LCFI26:
 944               		.cfi_def_cfa_offset 8
 945               		.cfi_offset 14, -7
 946 03b2 FF92      		push r15
 947               	.LCFI27:
GAS LISTING C:\Users\Rando\AppData\Local\Temp\ccMYNWTe.s 			page 24


 948               		.cfi_def_cfa_offset 9
 949               		.cfi_offset 15, -8
 950 03b4 0F93      		push r16
 951               	.LCFI28:
 952               		.cfi_def_cfa_offset 10
 953               		.cfi_offset 16, -9
 954 03b6 1F93      		push r17
 955               	.LCFI29:
 956               		.cfi_def_cfa_offset 11
 957               		.cfi_offset 17, -10
 958 03b8 CF93      		push r28
 959               	.LCFI30:
 960               		.cfi_def_cfa_offset 12
 961               		.cfi_offset 28, -11
 962 03ba DF93      		push r29
 963               	.LCFI31:
 964               		.cfi_def_cfa_offset 13
 965               		.cfi_offset 29, -12
 966               	/* prologue: function */
 967               	/* frame size = 0 */
 968               	/* stack size = 11 */
 969               	.L__stack_usage = 11
 970 03bc EC01      		movw r28,r24
 971 03be F62E      		mov r15,r22
 972 03c0 5A01      		movw r10,r20
 973 03c2 E22E      		mov r14,r18
 974 03c4 932E      		mov r9,r19
 975 03c6 6801      		movw r12,r16
 160:src/eink.c    **** 	EINK_send_command(PARTIAL_IN);
 976               		.loc 1 160 0
 977 03c8 81E9      		ldi r24,lo8(-111)
 978               	.LVL96:
 979 03ca 0E94 0000 		call EINK_send_command
 980               	.LVL97:
 161:src/eink.c    **** 	EINK_send_command(PARTIAL_WINDOW);
 981               		.loc 1 161 0
 982 03ce 80E9      		ldi r24,lo8(-112)
 983 03d0 0E94 0000 		call EINK_send_command
 984               	.LVL98:
 162:src/eink.c    **** 
 163:src/eink.c    **** 	EINK_send_data( x & 0xf8); // X on 8 kordne
 985               		.loc 1 163 0
 986 03d4 1F2D      		mov r17,r15
 987 03d6 187F      		andi r17,lo8(-8)
 988 03d8 812F      		mov r24,r17
 989 03da 0E94 0000 		call EINK_send_data
 990               	.LVL99:
 164:src/eink.c    **** 	EINK_send_data(((x&0xf8) + w - 1) | 0x07);
 991               		.loc 1 164 0
 992 03de 8FEF      		ldi r24,lo8(-1)
 993 03e0 8E0D      		add r24,r14
 994 03e2 810F      		add r24,r17
 995 03e4 8760      		ori r24,lo8(7)
 996 03e6 0E94 0000 		call EINK_send_data
 997               	.LVL100:
 165:src/eink.c    **** 
 166:src/eink.c    **** 	EINK_send_data(y >> 8);
GAS LISTING C:\Users\Rando\AppData\Local\Temp\ccMYNWTe.s 			page 25


 998               		.loc 1 166 0
 999 03ea 8B2D      		mov r24,r11
 1000 03ec 0E94 0000 		call EINK_send_data
 1001               	.LVL101:
 167:src/eink.c    **** 	EINK_send_data(y & 0xff);
 1002               		.loc 1 167 0
 1003 03f0 8A2D      		mov r24,r10
 1004 03f2 0E94 0000 		call EINK_send_data
 1005               	.LVL102:
 168:src/eink.c    **** 	EINK_send_data((y + l -1) >> 8);
 1006               		.loc 1 168 0
 1007 03f6 C501      		movw r24,r10
 1008 03f8 8C0D      		add r24,r12
 1009 03fa 9D1D      		adc r25,r13
 1010 03fc 0197      		sbiw r24,1
 1011 03fe 892F      		mov r24,r25
 1012 0400 0E94 0000 		call EINK_send_data
 1013               	.LVL103:
 169:src/eink.c    **** 	EINK_send_data((y + l - 1) & 0xff);
 1014               		.loc 1 169 0
 1015 0404 8FEF      		ldi r24,lo8(-1)
 1016 0406 8C0D      		add r24,r12
 1017 0408 8A0D      		add r24,r10
 1018 040a 0E94 0000 		call EINK_send_data
 1019               	.LVL104:
 170:src/eink.c    **** 	EINK_send_data(0x01);
 1020               		.loc 1 170 0
 1021 040e 81E0      		ldi r24,lo8(1)
 1022 0410 0E94 0000 		call EINK_send_data
 1023               	.LVL105:
 1024               	.LBB82:
 1025               	.LBB83:
 1026               		.loc 2 187 0
 1027 0414 8FE3      		ldi r24,lo8(7999)
 1028 0416 9FE1      		ldi r25,hi8(7999)
 1029 0418 0197      	1:	sbiw r24,1
 1030 041a 01F4      		brne 1b
 1031 041c 00C0      		rjmp .
 1032 041e 0000      		nop
 1033               	.LVL106:
 1034               	.LBE83:
 1035               	.LBE82:
 171:src/eink.c    **** 	_delay_ms(2);
 172:src/eink.c    **** 	EINK_send_command(DATA_START_TRANSMISSION_2);
 1036               		.loc 1 172 0
 1037 0420 83E1      		ldi r24,lo8(19)
 1038 0422 0E94 0000 		call EINK_send_command
 1039               	.LVL107:
 1040               	.LBB84:
 173:src/eink.c    **** 	if (buffer != NULL) {
 174:src/eink.c    ****         for(int i = 0; i < w  / 8 * l; i++) {
 1041               		.loc 1 174 0
 1042 0426 8E2D      		mov r24,r14
 1043 0428 992D      		mov r25,r9
 1044               	.LBE84:
 173:src/eink.c    **** 	if (buffer != NULL) {
 1045               		.loc 1 173 0
GAS LISTING C:\Users\Rando\AppData\Local\Temp\ccMYNWTe.s 			page 26


 1046 042a 2097      		sbiw r28,0
 1047 042c 01F0      		breq .L54
 1048               	.LVL108:
 1049               	.LBB85:
 1050               		.loc 1 174 0 discriminator 1
 1051 042e 97FD      		sbrc r25,7
 1052 0430 00C0      		rjmp .L55
 1053               	.L48:
 1054 0432 9C01      		movw r18,r24
 1055 0434 3595      		asr r19
 1056 0436 2795      		ror r18
 1057 0438 3595      		asr r19
 1058 043a 2795      		ror r18
 1059 043c 3595      		asr r19
 1060 043e 2795      		ror r18
 1061 0440 2C9D      		mul r18,r12
 1062 0442 C001      		movw r24,r0
 1063 0444 2D9D      		mul r18,r13
 1064 0446 900D      		add r25,r0
 1065 0448 3C9D      		mul r19,r12
 1066 044a 900D      		add r25,r0
 1067 044c 1124      		clr r1
 1068 044e 1816      		cp __zero_reg__,r24
 1069 0450 1906      		cpc __zero_reg__,r25
 1070 0452 04F4      		brge .L49
 1071 0454 8E01      		movw r16,r28
 1072               	.LVL109:
 1073 0456 080F      		add r16,r24
 1074 0458 191F      		adc r17,r25
 1075               	.LVL110:
 1076               	.L50:
 175:src/eink.c    ****             EINK_send_data(buffer[i]);  
 1077               		.loc 1 175 0 discriminator 3
 1078 045a 8991      		ld r24,Y+
 1079               	.LVL111:
 1080 045c 0E94 0000 		call EINK_send_data
 1081               	.LVL112:
 174:src/eink.c    ****             EINK_send_data(buffer[i]);  
 1082               		.loc 1 174 0 discriminator 3
 1083 0460 0C17      		cp r16,r28
 1084 0462 1D07      		cpc r17,r29
 1085 0464 01F4      		brne .L50
 1086               	.LVL113:
 1087               	.L49:
 1088               	.LBE85:
 1089               	.LBB86:
 1090               	.LBB87:
 1091               		.loc 2 187 0
 1092 0466 8FE3      		ldi r24,lo8(7999)
 1093 0468 9FE1      		ldi r25,hi8(7999)
 1094 046a 0197      	1:	sbiw r24,1
 1095 046c 01F4      		brne 1b
 1096 046e 00C0      		rjmp .
 1097 0470 0000      		nop
 1098               	.LVL114:
 1099               	.LBE87:
 1100               	.LBE86:
GAS LISTING C:\Users\Rando\AppData\Local\Temp\ccMYNWTe.s 			page 27


 176:src/eink.c    ****         }  
 177:src/eink.c    ****     } else {
 178:src/eink.c    ****         for(int i = 0; i < w  / 8 * l; i++) {
 179:src/eink.c    ****             EINK_send_data(0x00);  
 180:src/eink.c    ****         }  
 181:src/eink.c    ****     }
 182:src/eink.c    ****     _delay_ms(2);
 183:src/eink.c    **** 	EINK_send_command(PARTIAL_OUT);  
 1101               		.loc 1 183 0
 1102 0472 82E9      		ldi r24,lo8(-110)
 1103               	/* epilogue start */
 184:src/eink.c    **** }
 1104               		.loc 1 184 0
 1105 0474 DF91      		pop r29
 1106 0476 CF91      		pop r28
 1107 0478 1F91      		pop r17
 1108 047a 0F91      		pop r16
 1109 047c FF90      		pop r15
 1110 047e EF90      		pop r14
 1111 0480 DF90      		pop r13
 1112 0482 CF90      		pop r12
 1113               	.LVL115:
 1114 0484 BF90      		pop r11
 1115 0486 AF90      		pop r10
 1116               	.LVL116:
 1117 0488 9F90      		pop r9
 183:src/eink.c    **** }
 1118               		.loc 1 183 0
 1119 048a 0C94 0000 		jmp EINK_send_command
 1120               	.LVL117:
 1121               	.L55:
 1122               	.LBB88:
 174:src/eink.c    ****             EINK_send_data(buffer[i]);  
 1123               		.loc 1 174 0 discriminator 1
 1124 048e 0796      		adiw r24,7
 1125 0490 00C0      		rjmp .L48
 1126               	.LVL118:
 1127               	.L54:
 1128               	.LBE88:
 1129               	.LBB89:
 178:src/eink.c    ****             EINK_send_data(0x00);  
 1130               		.loc 1 178 0 discriminator 1
 1131 0492 97FD      		sbrc r25,7
 1132 0494 00C0      		rjmp .L56
 1133               	.L46:
 1134 0496 9595      		asr r25
 1135 0498 8795      		ror r24
 1136 049a 9595      		asr r25
 1137 049c 8795      		ror r24
 1138 049e 9595      		asr r25
 1139 04a0 8795      		ror r24
 1140 04a2 8C9D      		mul r24,r12
 1141 04a4 8001      		movw r16,r0
 1142 04a6 8D9D      		mul r24,r13
 1143 04a8 100D      		add r17,r0
 1144 04aa 9C9D      		mul r25,r12
 1145 04ac 100D      		add r17,r0
GAS LISTING C:\Users\Rando\AppData\Local\Temp\ccMYNWTe.s 			page 28


 1146 04ae 1124      		clr r1
 1147 04b0 1016      		cp __zero_reg__,r16
 1148 04b2 1106      		cpc __zero_reg__,r17
 1149 04b4 04F4      		brge .L49
 178:src/eink.c    ****             EINK_send_data(0x00);  
 1150               		.loc 1 178 0 is_stmt 0 discriminator 3
 1151 04b6 C0E0      		ldi r28,0
 1152 04b8 D0E0      		ldi r29,0
 1153               	.LVL119:
 1154               	.L51:
 179:src/eink.c    ****         }  
 1155               		.loc 1 179 0 is_stmt 1 discriminator 3
 1156 04ba 80E0      		ldi r24,0
 1157 04bc 0E94 0000 		call EINK_send_data
 1158               	.LVL120:
 178:src/eink.c    ****             EINK_send_data(0x00);  
 1159               		.loc 1 178 0 discriminator 3
 1160 04c0 2196      		adiw r28,1
 1161               	.LVL121:
 1162 04c2 C017      		cp r28,r16
 1163 04c4 D107      		cpc r29,r17
 1164 04c6 01F4      		brne .L51
 1165 04c8 00C0      		rjmp .L49
 1166               	.LVL122:
 1167               	.L56:
 178:src/eink.c    ****             EINK_send_data(0x00);  
 1168               		.loc 1 178 0 is_stmt 0 discriminator 1
 1169 04ca 0796      		adiw r24,7
 1170 04cc 00C0      		rjmp .L46
 1171               	.LBE89:
 1172               		.cfi_endproc
 1173               	.LFE21:
 1174               		.size	EINK_set_partial_red, .-EINK_set_partial_red
 1175               		.comm	epdwidth,1,1
 1176               	.Letext0:
 1177               		.file 3 "c:\\avr toolchain\\avr\\include\\stdint.h"
 1178               		.file 4 "./include/spi.h"
 1179               		.file 5 "./include/eink.h"