GAS LISTING C:\Users\Rando\AppData\Local\Temp\cctKssdG.s 			page 1


   1               		.file	"eink.c"
   2               	__SP_H__ = 0x3e
   3               	__SP_L__ = 0x3d
   4               	__SREG__ = 0x3f
   5               	__tmp_reg__ = 0
   6               	__zero_reg__ = 1
   7               		.text
   8               	.Ltext0:
   9               		.cfi_sections	.debug_frame
  10               	.global	EINK_toggle_reset
  11               		.type	EINK_toggle_reset, @function
  12               	EINK_toggle_reset:
  13               	.LFB11:
  14               		.file 1 "src/eink.c"
   1:src/eink.c    **** #include <include/eink.h>
   2:src/eink.c    **** #include <avr/io.h>
   3:src/eink.c    **** #define F_CPU 16000000UL
   4:src/eink.c    **** #include <util/delay.h>
   5:src/eink.c    **** #include <include/spi.h>
   6:src/eink.c    **** #include <math.h>
   7:src/eink.c    **** #include <avr/pgmspace.h>
   8:src/eink.c    **** #include <stdint.h>
   9:src/eink.c    **** #include <stdlib.h>
  10:src/eink.c    **** 
  11:src/eink.c    **** /* Riistvaraprojekt UT 2020/21 - Rando Hinn, vastuvõtjamooduli eink libra */
  12:src/eink.c    **** /* baseerub matemaatika osas waveshare'i enda libradel, https://github.com/waveshare/e-Paper*/
  13:src/eink.c    **** 
  14:src/eink.c    **** 
  15:src/eink.c    **** void EINK_toggle_reset() {
  15               		.loc 1 15 0
  16               		.cfi_startproc
  17               	/* prologue: function */
  18               	/* frame size = 0 */
  19               	/* stack size = 0 */
  20               	.L__stack_usage = 0
  16:src/eink.c    **** 	PORTD &= ~(1 << PD5);
  21               		.loc 1 16 0
  22 0000 5D98      		cbi 0xb,5
  23               	.LVL0:
  24               	.LBB44:
  25               	.LBB45:
  26               		.file 2 "c:\\avr toolchain\\avr\\include\\util\\delay.h"
   1:c:\avr toolchain\avr\include\util\delay.h **** /* Copyright (c) 2002, Marek Michalkiewicz
   2:c:\avr toolchain\avr\include\util\delay.h ****    Copyright (c) 2004,2005,2007 Joerg Wunsch
   3:c:\avr toolchain\avr\include\util\delay.h ****    Copyright (c) 2007  Florin-Viorel Petrov
   4:c:\avr toolchain\avr\include\util\delay.h ****    All rights reserved.
   5:c:\avr toolchain\avr\include\util\delay.h **** 
   6:c:\avr toolchain\avr\include\util\delay.h ****    Redistribution and use in source and binary forms, with or without
   7:c:\avr toolchain\avr\include\util\delay.h ****    modification, are permitted provided that the following conditions are met:
   8:c:\avr toolchain\avr\include\util\delay.h **** 
   9:c:\avr toolchain\avr\include\util\delay.h ****    * Redistributions of source code must retain the above copyright
  10:c:\avr toolchain\avr\include\util\delay.h ****      notice, this list of conditions and the following disclaimer.
  11:c:\avr toolchain\avr\include\util\delay.h **** 
  12:c:\avr toolchain\avr\include\util\delay.h ****    * Redistributions in binary form must reproduce the above copyright
  13:c:\avr toolchain\avr\include\util\delay.h ****      notice, this list of conditions and the following disclaimer in
  14:c:\avr toolchain\avr\include\util\delay.h ****      the documentation and/or other materials provided with the
  15:c:\avr toolchain\avr\include\util\delay.h ****      distribution.
GAS LISTING C:\Users\Rando\AppData\Local\Temp\cctKssdG.s 			page 2


  16:c:\avr toolchain\avr\include\util\delay.h **** 
  17:c:\avr toolchain\avr\include\util\delay.h ****    * Neither the name of the copyright holders nor the names of
  18:c:\avr toolchain\avr\include\util\delay.h ****      contributors may be used to endorse or promote products derived
  19:c:\avr toolchain\avr\include\util\delay.h ****      from this software without specific prior written permission.
  20:c:\avr toolchain\avr\include\util\delay.h **** 
  21:c:\avr toolchain\avr\include\util\delay.h ****   THIS SOFTWARE IS PROVIDED BY THE COPYRIGHT HOLDERS AND CONTRIBUTORS "AS IS"
  22:c:\avr toolchain\avr\include\util\delay.h ****   AND ANY EXPRESS OR IMPLIED WARRANTIES, INCLUDING, BUT NOT LIMITED TO, THE
  23:c:\avr toolchain\avr\include\util\delay.h ****   IMPLIED WARRANTIES OF MERCHANTABILITY AND FITNESS FOR A PARTICULAR PURPOSE
  24:c:\avr toolchain\avr\include\util\delay.h ****   ARE DISCLAIMED. IN NO EVENT SHALL THE COPYRIGHT OWNER OR CONTRIBUTORS BE
  25:c:\avr toolchain\avr\include\util\delay.h ****   LIABLE FOR ANY DIRECT, INDIRECT, INCIDENTAL, SPECIAL, EXEMPLARY, OR
  26:c:\avr toolchain\avr\include\util\delay.h ****   CONSEQUENTIAL DAMAGES (INCLUDING, BUT NOT LIMITED TO, PROCUREMENT OF
  27:c:\avr toolchain\avr\include\util\delay.h ****   SUBSTITUTE GOODS OR SERVICES; LOSS OF USE, DATA, OR PROFITS; OR BUSINESS
  28:c:\avr toolchain\avr\include\util\delay.h ****   INTERRUPTION) HOWEVER CAUSED AND ON ANY THEORY OF LIABILITY, WHETHER IN
  29:c:\avr toolchain\avr\include\util\delay.h ****   CONTRACT, STRICT LIABILITY, OR TORT (INCLUDING NEGLIGENCE OR OTHERWISE)
  30:c:\avr toolchain\avr\include\util\delay.h ****   ARISING IN ANY WAY OUT OF THE USE OF THIS SOFTWARE, EVEN IF ADVISED OF THE
  31:c:\avr toolchain\avr\include\util\delay.h ****   POSSIBILITY OF SUCH DAMAGE. */
  32:c:\avr toolchain\avr\include\util\delay.h **** 
  33:c:\avr toolchain\avr\include\util\delay.h **** /* $Id$ */
  34:c:\avr toolchain\avr\include\util\delay.h **** 
  35:c:\avr toolchain\avr\include\util\delay.h **** #ifndef _UTIL_DELAY_H_
  36:c:\avr toolchain\avr\include\util\delay.h **** #define _UTIL_DELAY_H_ 1
  37:c:\avr toolchain\avr\include\util\delay.h **** 
  38:c:\avr toolchain\avr\include\util\delay.h **** #ifndef __DOXYGEN__
  39:c:\avr toolchain\avr\include\util\delay.h **** #  ifndef __HAS_DELAY_CYCLES
  40:c:\avr toolchain\avr\include\util\delay.h **** #    define __HAS_DELAY_CYCLES 1
  41:c:\avr toolchain\avr\include\util\delay.h **** #  endif
  42:c:\avr toolchain\avr\include\util\delay.h **** #endif  /* __DOXYGEN__ */
  43:c:\avr toolchain\avr\include\util\delay.h **** 
  44:c:\avr toolchain\avr\include\util\delay.h **** #include <inttypes.h>
  45:c:\avr toolchain\avr\include\util\delay.h **** #include <util/delay_basic.h>
  46:c:\avr toolchain\avr\include\util\delay.h **** #include <math.h>
  47:c:\avr toolchain\avr\include\util\delay.h **** 
  48:c:\avr toolchain\avr\include\util\delay.h **** /** \file */
  49:c:\avr toolchain\avr\include\util\delay.h **** /** \defgroup util_delay <util/delay.h>: Convenience functions for busy-wait delay loops
  50:c:\avr toolchain\avr\include\util\delay.h ****     \code
  51:c:\avr toolchain\avr\include\util\delay.h ****     #define F_CPU 1000000UL  // 1 MHz
  52:c:\avr toolchain\avr\include\util\delay.h ****     //#define F_CPU 14.7456E6
  53:c:\avr toolchain\avr\include\util\delay.h ****     #include <util/delay.h>
  54:c:\avr toolchain\avr\include\util\delay.h ****     \endcode
  55:c:\avr toolchain\avr\include\util\delay.h **** 
  56:c:\avr toolchain\avr\include\util\delay.h ****     \note As an alternative method, it is possible to pass the
  57:c:\avr toolchain\avr\include\util\delay.h ****     F_CPU macro down to the compiler from the Makefile.
  58:c:\avr toolchain\avr\include\util\delay.h ****     Obviously, in that case, no \c \#define statement should be
  59:c:\avr toolchain\avr\include\util\delay.h ****     used.
  60:c:\avr toolchain\avr\include\util\delay.h **** 
  61:c:\avr toolchain\avr\include\util\delay.h ****     The functions in this header file are wrappers around the basic
  62:c:\avr toolchain\avr\include\util\delay.h ****     busy-wait functions from <util/delay_basic.h>.  They are meant as
  63:c:\avr toolchain\avr\include\util\delay.h ****     convenience functions where actual time values can be specified
  64:c:\avr toolchain\avr\include\util\delay.h ****     rather than a number of cycles to wait for.  The idea behind is
  65:c:\avr toolchain\avr\include\util\delay.h ****     that compile-time constant expressions will be eliminated by
  66:c:\avr toolchain\avr\include\util\delay.h ****     compiler optimization so floating-point expressions can be used
  67:c:\avr toolchain\avr\include\util\delay.h ****     to calculate the number of delay cycles needed based on the CPU
  68:c:\avr toolchain\avr\include\util\delay.h ****     frequency passed by the macro F_CPU.
  69:c:\avr toolchain\avr\include\util\delay.h **** 
  70:c:\avr toolchain\avr\include\util\delay.h ****     \note In order for these functions to work as intended, compiler
  71:c:\avr toolchain\avr\include\util\delay.h ****     optimizations <em>must</em> be enabled, and the delay time
  72:c:\avr toolchain\avr\include\util\delay.h ****     <em>must</em> be an expression that is a known constant at
GAS LISTING C:\Users\Rando\AppData\Local\Temp\cctKssdG.s 			page 3


  73:c:\avr toolchain\avr\include\util\delay.h ****     compile-time.  If these requirements are not met, the resulting
  74:c:\avr toolchain\avr\include\util\delay.h ****     delay will be much longer (and basically unpredictable), and
  75:c:\avr toolchain\avr\include\util\delay.h ****     applications that otherwise do not use floating-point calculations
  76:c:\avr toolchain\avr\include\util\delay.h ****     will experience severe code bloat by the floating-point library
  77:c:\avr toolchain\avr\include\util\delay.h ****     routines linked into the application.
  78:c:\avr toolchain\avr\include\util\delay.h **** 
  79:c:\avr toolchain\avr\include\util\delay.h ****     The functions available allow the specification of microsecond, and
  80:c:\avr toolchain\avr\include\util\delay.h ****     millisecond delays directly, using the application-supplied macro
  81:c:\avr toolchain\avr\include\util\delay.h ****     F_CPU as the CPU clock frequency (in Hertz).
  82:c:\avr toolchain\avr\include\util\delay.h **** 
  83:c:\avr toolchain\avr\include\util\delay.h **** */
  84:c:\avr toolchain\avr\include\util\delay.h **** 
  85:c:\avr toolchain\avr\include\util\delay.h **** #if !defined(__DOXYGEN__)
  86:c:\avr toolchain\avr\include\util\delay.h **** static __inline__ void _delay_us(double __us) __attribute__((__always_inline__));
  87:c:\avr toolchain\avr\include\util\delay.h **** static __inline__ void _delay_ms(double __ms) __attribute__((__always_inline__));
  88:c:\avr toolchain\avr\include\util\delay.h **** #endif
  89:c:\avr toolchain\avr\include\util\delay.h **** 
  90:c:\avr toolchain\avr\include\util\delay.h **** #ifndef F_CPU
  91:c:\avr toolchain\avr\include\util\delay.h **** /* prevent compiler error by supplying a default */
  92:c:\avr toolchain\avr\include\util\delay.h **** # warning "F_CPU not defined for <util/delay.h>"
  93:c:\avr toolchain\avr\include\util\delay.h **** /** \ingroup util_delay
  94:c:\avr toolchain\avr\include\util\delay.h ****     \def F_CPU
  95:c:\avr toolchain\avr\include\util\delay.h ****     \brief CPU frequency in Hz
  96:c:\avr toolchain\avr\include\util\delay.h **** 
  97:c:\avr toolchain\avr\include\util\delay.h ****     The macro F_CPU specifies the CPU frequency to be considered by
  98:c:\avr toolchain\avr\include\util\delay.h ****     the delay macros.  This macro is normally supplied by the
  99:c:\avr toolchain\avr\include\util\delay.h ****     environment (e.g. from within a project header, or the project's
 100:c:\avr toolchain\avr\include\util\delay.h ****     Makefile).  The value 1 MHz here is only provided as a "vanilla"
 101:c:\avr toolchain\avr\include\util\delay.h ****     fallback if no such user-provided definition could be found.
 102:c:\avr toolchain\avr\include\util\delay.h **** 
 103:c:\avr toolchain\avr\include\util\delay.h ****     In terms of the delay functions, the CPU frequency can be given as
 104:c:\avr toolchain\avr\include\util\delay.h ****     a floating-point constant (e.g. 3.6864E6 for 3.6864 MHz).
 105:c:\avr toolchain\avr\include\util\delay.h ****     However, the macros in <util/setbaud.h> require it to be an
 106:c:\avr toolchain\avr\include\util\delay.h ****     integer value.
 107:c:\avr toolchain\avr\include\util\delay.h ****  */
 108:c:\avr toolchain\avr\include\util\delay.h **** # define F_CPU 1000000UL
 109:c:\avr toolchain\avr\include\util\delay.h **** #endif
 110:c:\avr toolchain\avr\include\util\delay.h **** 
 111:c:\avr toolchain\avr\include\util\delay.h **** #ifndef __OPTIMIZE__
 112:c:\avr toolchain\avr\include\util\delay.h **** # warning "Compiler optimizations disabled; functions from <util/delay.h> won't work as designed"
 113:c:\avr toolchain\avr\include\util\delay.h **** #endif
 114:c:\avr toolchain\avr\include\util\delay.h **** 
 115:c:\avr toolchain\avr\include\util\delay.h **** #if __HAS_DELAY_CYCLES && defined(__OPTIMIZE__) && \
 116:c:\avr toolchain\avr\include\util\delay.h ****   !defined(__DELAY_BACKWARD_COMPATIBLE__) &&	   \
 117:c:\avr toolchain\avr\include\util\delay.h ****   __STDC_HOSTED__
 118:c:\avr toolchain\avr\include\util\delay.h **** #  include <math.h>
 119:c:\avr toolchain\avr\include\util\delay.h **** #endif
 120:c:\avr toolchain\avr\include\util\delay.h **** 
 121:c:\avr toolchain\avr\include\util\delay.h **** /**
 122:c:\avr toolchain\avr\include\util\delay.h ****    \ingroup util_delay
 123:c:\avr toolchain\avr\include\util\delay.h **** 
 124:c:\avr toolchain\avr\include\util\delay.h ****    Perform a delay of \c __ms milliseconds, using _delay_loop_2().
 125:c:\avr toolchain\avr\include\util\delay.h **** 
 126:c:\avr toolchain\avr\include\util\delay.h ****    The macro F_CPU is supposed to be defined to a
 127:c:\avr toolchain\avr\include\util\delay.h ****    constant defining the CPU clock frequency (in Hertz).
 128:c:\avr toolchain\avr\include\util\delay.h **** 
 129:c:\avr toolchain\avr\include\util\delay.h ****    The maximal possible delay is 262.14 ms / F_CPU in MHz.
GAS LISTING C:\Users\Rando\AppData\Local\Temp\cctKssdG.s 			page 4


 130:c:\avr toolchain\avr\include\util\delay.h **** 
 131:c:\avr toolchain\avr\include\util\delay.h ****    When the user request delay which exceed the maximum possible one,
 132:c:\avr toolchain\avr\include\util\delay.h ****    _delay_ms() provides a decreased resolution functionality. In this
 133:c:\avr toolchain\avr\include\util\delay.h ****    mode _delay_ms() will work with a resolution of 1/10 ms, providing
 134:c:\avr toolchain\avr\include\util\delay.h ****    delays up to 6.5535 seconds (independent from CPU frequency).  The
 135:c:\avr toolchain\avr\include\util\delay.h ****    user will not be informed about decreased resolution.
 136:c:\avr toolchain\avr\include\util\delay.h **** 
 137:c:\avr toolchain\avr\include\util\delay.h ****    If the avr-gcc toolchain has __builtin_avr_delay_cycles()
 138:c:\avr toolchain\avr\include\util\delay.h ****    support, maximal possible delay is 4294967.295 ms/ F_CPU in MHz. For
 139:c:\avr toolchain\avr\include\util\delay.h ****    values greater than the maximal possible delay, overflows results in
 140:c:\avr toolchain\avr\include\util\delay.h ****    no delay i.e., 0ms.
 141:c:\avr toolchain\avr\include\util\delay.h **** 
 142:c:\avr toolchain\avr\include\util\delay.h ****    Conversion of \c __ms into clock cycles may not always result in
 143:c:\avr toolchain\avr\include\util\delay.h ****    integer.  By default, the clock cycles rounded up to next
 144:c:\avr toolchain\avr\include\util\delay.h ****    integer. This ensures that the user gets at least \c __ms
 145:c:\avr toolchain\avr\include\util\delay.h ****    microseconds of delay.
 146:c:\avr toolchain\avr\include\util\delay.h **** 
 147:c:\avr toolchain\avr\include\util\delay.h ****    Alternatively, by defining the macro \c __DELAY_ROUND_DOWN__, or
 148:c:\avr toolchain\avr\include\util\delay.h ****    \c __DELAY_ROUND_CLOSEST__, before including this header file, the
 149:c:\avr toolchain\avr\include\util\delay.h ****    algorithm can be made to round down, or round to closest integer,
 150:c:\avr toolchain\avr\include\util\delay.h ****    respectively.
 151:c:\avr toolchain\avr\include\util\delay.h **** 
 152:c:\avr toolchain\avr\include\util\delay.h ****    \note
 153:c:\avr toolchain\avr\include\util\delay.h **** 
 154:c:\avr toolchain\avr\include\util\delay.h ****    The implementation of _delay_ms() based on
 155:c:\avr toolchain\avr\include\util\delay.h ****    __builtin_avr_delay_cycles() is not backward compatible with older
 156:c:\avr toolchain\avr\include\util\delay.h ****    implementations.  In order to get functionality backward compatible
 157:c:\avr toolchain\avr\include\util\delay.h ****    with previous versions, the macro \c "__DELAY_BACKWARD_COMPATIBLE__"
 158:c:\avr toolchain\avr\include\util\delay.h ****    must be defined before including this header file. Also, the
 159:c:\avr toolchain\avr\include\util\delay.h ****    backward compatible algorithm will be chosen if the code is
 160:c:\avr toolchain\avr\include\util\delay.h ****    compiled in a <em>freestanding environment</em> (GCC option
 161:c:\avr toolchain\avr\include\util\delay.h ****    \c -ffreestanding), as the math functions required for rounding are
 162:c:\avr toolchain\avr\include\util\delay.h ****    not available to the compiler then.
 163:c:\avr toolchain\avr\include\util\delay.h **** 
 164:c:\avr toolchain\avr\include\util\delay.h ****  */
 165:c:\avr toolchain\avr\include\util\delay.h **** void
 166:c:\avr toolchain\avr\include\util\delay.h **** _delay_ms(double __ms)
 167:c:\avr toolchain\avr\include\util\delay.h **** {
 168:c:\avr toolchain\avr\include\util\delay.h **** 	double __tmp ;
 169:c:\avr toolchain\avr\include\util\delay.h **** #if __HAS_DELAY_CYCLES && defined(__OPTIMIZE__) && \
 170:c:\avr toolchain\avr\include\util\delay.h ****   !defined(__DELAY_BACKWARD_COMPATIBLE__) &&	   \
 171:c:\avr toolchain\avr\include\util\delay.h ****   __STDC_HOSTED__
 172:c:\avr toolchain\avr\include\util\delay.h **** 	uint32_t __ticks_dc;
 173:c:\avr toolchain\avr\include\util\delay.h **** 	extern void __builtin_avr_delay_cycles(unsigned long);
 174:c:\avr toolchain\avr\include\util\delay.h **** 	__tmp = ((F_CPU) / 1e3) * __ms;
 175:c:\avr toolchain\avr\include\util\delay.h **** 
 176:c:\avr toolchain\avr\include\util\delay.h **** 	#if defined(__DELAY_ROUND_DOWN__)
 177:c:\avr toolchain\avr\include\util\delay.h **** 		__ticks_dc = (uint32_t)fabs(__tmp);
 178:c:\avr toolchain\avr\include\util\delay.h **** 
 179:c:\avr toolchain\avr\include\util\delay.h **** 	#elif defined(__DELAY_ROUND_CLOSEST__)
 180:c:\avr toolchain\avr\include\util\delay.h **** 		__ticks_dc = (uint32_t)(fabs(__tmp)+0.5);
 181:c:\avr toolchain\avr\include\util\delay.h **** 
 182:c:\avr toolchain\avr\include\util\delay.h **** 	#else
 183:c:\avr toolchain\avr\include\util\delay.h **** 		//round up by default
 184:c:\avr toolchain\avr\include\util\delay.h **** 		__ticks_dc = (uint32_t)(ceil(fabs(__tmp)));
 185:c:\avr toolchain\avr\include\util\delay.h **** 	#endif
 186:c:\avr toolchain\avr\include\util\delay.h **** 
GAS LISTING C:\Users\Rando\AppData\Local\Temp\cctKssdG.s 			page 5


 187:c:\avr toolchain\avr\include\util\delay.h **** 	__builtin_avr_delay_cycles(__ticks_dc);
  27               		.loc 2 187 0
  28 0002 8FE3      		ldi r24,lo8(-25537)
  29 0004 9CE9      		ldi r25,hi8(-25537)
  30 0006 0197      	1:	sbiw r24,1
  31 0008 01F4      		brne 1b
  32 000a 00C0      		rjmp .
  33 000c 0000      		nop
  34               	.LVL1:
  35               	.LBE45:
  36               	.LBE44:
  17:src/eink.c    **** 	_delay_ms(10);
  18:src/eink.c    **** 	PORTD |= (1 << PD5);
  37               		.loc 1 18 0
  38 000e 5D9A      		sbi 0xb,5
  39 0010 0895      		ret
  40               		.cfi_endproc
  41               	.LFE11:
  42               		.size	EINK_toggle_reset, .-EINK_toggle_reset
  43               	.global	EINK_set_data
  44               		.type	EINK_set_data, @function
  45               	EINK_set_data:
  46               	.LFB12:
  19:src/eink.c    **** }
  20:src/eink.c    **** 
  21:src/eink.c    **** void EINK_set_data() {
  47               		.loc 1 21 0
  48               		.cfi_startproc
  49               	/* prologue: function */
  50               	/* frame size = 0 */
  51               	/* stack size = 0 */
  52               	.L__stack_usage = 0
  22:src/eink.c    **** 	PORTD |= (1 << PD4);
  53               		.loc 1 22 0
  54 0012 5C9A      		sbi 0xb,4
  55 0014 0895      		ret
  56               		.cfi_endproc
  57               	.LFE12:
  58               		.size	EINK_set_data, .-EINK_set_data
  59               	.global	EINK_set_command
  60               		.type	EINK_set_command, @function
  61               	EINK_set_command:
  62               	.LFB13:
  23:src/eink.c    **** }
  24:src/eink.c    **** 
  25:src/eink.c    **** void EINK_set_command() {
  63               		.loc 1 25 0
  64               		.cfi_startproc
  65               	/* prologue: function */
  66               	/* frame size = 0 */
  67               	/* stack size = 0 */
  68               	.L__stack_usage = 0
  26:src/eink.c    **** 	PORTD &= ~(1 << PD4);
  69               		.loc 1 26 0
  70 0016 5C98      		cbi 0xb,4
  71 0018 0895      		ret
  72               		.cfi_endproc
GAS LISTING C:\Users\Rando\AppData\Local\Temp\cctKssdG.s 			page 6


  73               	.LFE13:
  74               		.size	EINK_set_command, .-EINK_set_command
  75               	.global	EINK_send_command
  76               		.type	EINK_send_command, @function
  77               	EINK_send_command:
  78               	.LFB14:
  27:src/eink.c    **** }
  28:src/eink.c    **** 
  29:src/eink.c    **** void EINK_send_command(unsigned char command) {
  79               		.loc 1 29 0
  80               		.cfi_startproc
  81               	.LVL2:
  82 001a CF93      		push r28
  83               	.LCFI0:
  84               		.cfi_def_cfa_offset 3
  85               		.cfi_offset 28, -2
  86               	/* prologue: function */
  87               	/* frame size = 0 */
  88               	/* stack size = 1 */
  89               	.L__stack_usage = 1
  90 001c C82F      		mov r28,r24
  91               	.LBB46:
  92               	.LBB47:
  26:src/eink.c    **** 	PORTD &= ~(1 << PD4);
  93               		.loc 1 26 0
  94 001e 5C98      		cbi 0xb,4
  95               	.LBE47:
  96               	.LBE46:
  30:src/eink.c    **** 	EINK_set_command();
  31:src/eink.c    **** 	SPI_unset_EINK_cs();
  97               		.loc 1 31 0
  98 0020 0E94 0000 		call SPI_unset_EINK_cs
  99               	.LVL3:
  32:src/eink.c    **** 	SPI_send(command);
 100               		.loc 1 32 0
 101 0024 8C2F      		mov r24,r28
 102 0026 0E94 0000 		call SPI_send
 103               	.LVL4:
 104               	/* epilogue start */
  33:src/eink.c    **** 	SPI_set_EINK_cs();
  34:src/eink.c    **** }
 105               		.loc 1 34 0
 106 002a CF91      		pop r28
 107               	.LVL5:
  33:src/eink.c    **** 	SPI_set_EINK_cs();
 108               		.loc 1 33 0
 109 002c 0C94 0000 		jmp SPI_set_EINK_cs
 110               	.LVL6:
 111               		.cfi_endproc
 112               	.LFE14:
 113               		.size	EINK_send_command, .-EINK_send_command
 114               	.global	EINK_send_data
 115               		.type	EINK_send_data, @function
 116               	EINK_send_data:
 117               	.LFB15:
  35:src/eink.c    **** 
  36:src/eink.c    **** void EINK_send_data(unsigned char data) {
GAS LISTING C:\Users\Rando\AppData\Local\Temp\cctKssdG.s 			page 7


 118               		.loc 1 36 0
 119               		.cfi_startproc
 120               	.LVL7:
 121 0030 CF93      		push r28
 122               	.LCFI1:
 123               		.cfi_def_cfa_offset 3
 124               		.cfi_offset 28, -2
 125               	/* prologue: function */
 126               	/* frame size = 0 */
 127               	/* stack size = 1 */
 128               	.L__stack_usage = 1
 129 0032 C82F      		mov r28,r24
 130               	.LBB48:
 131               	.LBB49:
  22:src/eink.c    **** }
 132               		.loc 1 22 0
 133 0034 5C9A      		sbi 0xb,4
 134               	.LBE49:
 135               	.LBE48:
  37:src/eink.c    **** 	EINK_set_data();
  38:src/eink.c    **** 	SPI_unset_EINK_cs();
 136               		.loc 1 38 0
 137 0036 0E94 0000 		call SPI_unset_EINK_cs
 138               	.LVL8:
  39:src/eink.c    **** 	SPI_send(data);
 139               		.loc 1 39 0
 140 003a 8C2F      		mov r24,r28
 141 003c 0E94 0000 		call SPI_send
 142               	.LVL9:
 143               	/* epilogue start */
  40:src/eink.c    **** 	SPI_set_EINK_cs();
  41:src/eink.c    **** }
 144               		.loc 1 41 0
 145 0040 CF91      		pop r28
 146               	.LVL10:
  40:src/eink.c    **** 	SPI_set_EINK_cs();
 147               		.loc 1 40 0
 148 0042 0C94 0000 		jmp SPI_set_EINK_cs
 149               	.LVL11:
 150               		.cfi_endproc
 151               	.LFE15:
 152               		.size	EINK_send_data, .-EINK_send_data
 153               	.global	EINK_clear_frame
 154               		.type	EINK_clear_frame, @function
 155               	EINK_clear_frame:
 156               	.LFB16:
  42:src/eink.c    **** 
  43:src/eink.c    **** void EINK_clear_frame() {
 157               		.loc 1 43 0
 158               		.cfi_startproc
 159 0046 CF93      		push r28
 160               	.LCFI2:
 161               		.cfi_def_cfa_offset 3
 162               		.cfi_offset 28, -2
 163 0048 DF93      		push r29
 164               	.LCFI3:
 165               		.cfi_def_cfa_offset 4
GAS LISTING C:\Users\Rando\AppData\Local\Temp\cctKssdG.s 			page 8


 166               		.cfi_offset 29, -3
 167               	/* prologue: function */
 168               	/* frame size = 0 */
 169               	/* stack size = 2 */
 170               	.L__stack_usage = 2
  44:src/eink.c    **** 	EINK_send_command(DATA_START_TRANSMISSION_1);
 171               		.loc 1 44 0
 172 004a 80E1      		ldi r24,lo8(16)
 173 004c 0E94 0000 		call EINK_send_command
 174               	.LVL12:
 175               	.LBB50:
 176               	.LBB51:
 177               		.loc 2 187 0
 178 0050 8FE3      		ldi r24,lo8(7999)
 179 0052 9FE1      		ldi r25,hi8(7999)
 180 0054 0197      	1:	sbiw r24,1
 181 0056 01F4      		brne 1b
 182 0058 00C0      		rjmp .
 183 005a 0000      		nop
 184               	.LVL13:
 185 005c C8EC      		ldi r28,lo8(-56)
 186 005e D0E0      		ldi r29,0
 187               	.LVL14:
 188               	.L7:
 189               	.LBE51:
 190               	.LBE50:
 191               	.LBB52:
  45:src/eink.c    **** 	_delay_ms(2);
  46:src/eink.c    **** 
  47:src/eink.c    **** 	for(int i = 0; i < WIDTH * HEIGHT / 8; i++) {
  48:src/eink.c    ****         EINK_send_data(0xFF);  
 192               		.loc 1 48 0 discriminator 3
 193 0060 8FEF      		ldi r24,lo8(-1)
 194 0062 0E94 0000 		call EINK_send_data
 195               	.LVL15:
 196 0066 2197      		sbiw r28,1
 197               	.LVL16:
  47:src/eink.c    ****         EINK_send_data(0xFF);  
 198               		.loc 1 47 0 discriminator 3
 199 0068 01F4      		brne .L7
 200               	.LVL17:
 201               	.LBE52:
 202               	.LBB53:
 203               	.LBB54:
 204               		.loc 2 187 0
 205 006a 8FE3      		ldi r24,lo8(7999)
 206 006c 9FE1      		ldi r25,hi8(7999)
 207 006e 0197      	1:	sbiw r24,1
 208 0070 01F4      		brne 1b
 209 0072 00C0      		rjmp .
 210 0074 0000      		nop
 211               	.LVL18:
 212               	.LBE54:
 213               	.LBE53:
  49:src/eink.c    ****     } 
  50:src/eink.c    **** 	_delay_ms(2);
  51:src/eink.c    **** 
GAS LISTING C:\Users\Rando\AppData\Local\Temp\cctKssdG.s 			page 9


  52:src/eink.c    **** 	EINK_send_command(DATA_START_TRANSMISSION_2);
 214               		.loc 1 52 0
 215 0076 83E1      		ldi r24,lo8(19)
 216 0078 0E94 0000 		call EINK_send_command
 217               	.LVL19:
 218               	.LBB55:
 219               	.LBB56:
 220               		.loc 2 187 0
 221 007c 8FE3      		ldi r24,lo8(7999)
 222 007e 9FE1      		ldi r25,hi8(7999)
 223 0080 0197      	1:	sbiw r24,1
 224 0082 01F4      		brne 1b
 225 0084 00C0      		rjmp .
 226 0086 0000      		nop
 227               	.LVL20:
 228 0088 C8EC      		ldi r28,lo8(-56)
 229 008a D0E0      		ldi r29,0
 230               	.LVL21:
 231               	.L8:
 232               	.LBE56:
 233               	.LBE55:
 234               	.LBB57:
  53:src/eink.c    **** 	_delay_ms(2);
  54:src/eink.c    **** 
  55:src/eink.c    **** 	for(int i = 0; i < WIDTH * HEIGHT / 8; i++) {
  56:src/eink.c    ****         EINK_send_data(0xFF);  
 235               		.loc 1 56 0 discriminator 3
 236 008c 8FEF      		ldi r24,lo8(-1)
 237 008e 0E94 0000 		call EINK_send_data
 238               	.LVL22:
 239 0092 2197      		sbiw r28,1
 240               	.LVL23:
  55:src/eink.c    ****         EINK_send_data(0xFF);  
 241               		.loc 1 55 0 discriminator 3
 242 0094 01F4      		brne .L8
 243               	.LVL24:
 244               	.LBE57:
 245               	.LBB58:
 246               	.LBB59:
 247               		.loc 2 187 0
 248 0096 8FE3      		ldi r24,lo8(7999)
 249 0098 9FE1      		ldi r25,hi8(7999)
 250 009a 0197      	1:	sbiw r24,1
 251 009c 01F4      		brne 1b
 252 009e 00C0      		rjmp .
 253 00a0 0000      		nop
 254               	.LVL25:
 255               	/* epilogue start */
 256               	.LBE59:
 257               	.LBE58:
  57:src/eink.c    ****     }  
  58:src/eink.c    **** 	_delay_ms(2);
  59:src/eink.c    **** }
 258               		.loc 1 59 0
 259 00a2 DF91      		pop r29
 260 00a4 CF91      		pop r28
 261               	.LVL26:
GAS LISTING C:\Users\Rando\AppData\Local\Temp\cctKssdG.s 			page 10


 262 00a6 0895      		ret
 263               		.cfi_endproc
 264               	.LFE16:
 265               		.size	EINK_clear_frame, .-EINK_clear_frame
 266               	.global	EINK_init
 267               		.type	EINK_init, @function
 268               	EINK_init:
 269               	.LFB17:
  60:src/eink.c    **** 
  61:src/eink.c    **** void EINK_init() {
 270               		.loc 1 61 0
 271               		.cfi_startproc
 272               	/* prologue: function */
 273               	/* frame size = 0 */
 274               	/* stack size = 0 */
 275               	.L__stack_usage = 0
  62:src/eink.c    **** 	
  63:src/eink.c    **** 	epdwidth = WIDTH;
 276               		.loc 1 63 0
 277 00a8 88E2      		ldi r24,lo8(40)
 278 00aa 8093 0000 		sts epdwidth,r24
  64:src/eink.c    **** 	
  65:src/eink.c    **** 	//RESET PIN
  66:src/eink.c    **** 	DDRD |= (1 << DDD5);
 279               		.loc 1 66 0
 280 00ae 559A      		sbi 0xa,5
  67:src/eink.c    **** 	PORTD |= (1 << PD5);
 281               		.loc 1 67 0
 282 00b0 5D9A      		sbi 0xb,5
  68:src/eink.c    **** 	
  69:src/eink.c    **** 	
  70:src/eink.c    **** 	// Data/Command pin
  71:src/eink.c    **** 	DDRD |= (1 << DDD4);
 283               		.loc 1 71 0
 284 00b2 549A      		sbi 0xa,4
  72:src/eink.c    **** 	
  73:src/eink.c    **** 	EINK_send_command(BOOSTER_SOFT_START);
 285               		.loc 1 73 0
 286 00b4 86E0      		ldi r24,lo8(6)
 287 00b6 0E94 0000 		call EINK_send_command
 288               	.LVL27:
  74:src/eink.c    **** 	EINK_send_data(0x17);
 289               		.loc 1 74 0
 290 00ba 87E1      		ldi r24,lo8(23)
 291 00bc 0E94 0000 		call EINK_send_data
 292               	.LVL28:
  75:src/eink.c    **** 	EINK_send_data(0x17);
 293               		.loc 1 75 0
 294 00c0 87E1      		ldi r24,lo8(23)
 295 00c2 0E94 0000 		call EINK_send_data
 296               	.LVL29:
  76:src/eink.c    **** 	EINK_send_data(0x17);
 297               		.loc 1 76 0
 298 00c6 87E1      		ldi r24,lo8(23)
 299 00c8 0E94 0000 		call EINK_send_data
 300               	.LVL30:
  77:src/eink.c    **** 	EINK_send_command(POWER_ON);
GAS LISTING C:\Users\Rando\AppData\Local\Temp\cctKssdG.s 			page 11


 301               		.loc 1 77 0
 302 00cc 84E0      		ldi r24,lo8(4)
 303 00ce 0E94 0000 		call EINK_send_command
 304               	.LVL31:
 305               	.LBB60:
 306               	.LBB61:
 307               		.loc 2 187 0
 308 00d2 2FEF      		ldi r18,lo8(6399999)
 309 00d4 87EA      		ldi r24,hi8(6399999)
 310 00d6 91E6      		ldi r25,hlo8(6399999)
 311 00d8 2150      	1:	subi r18,1
 312 00da 8040      		sbci r24,0
 313 00dc 9040      		sbci r25,0
 314 00de 01F4      		brne 1b
 315 00e0 00C0      		rjmp .
 316 00e2 0000      		nop
 317               	.LVL32:
 318               	.LBE61:
 319               	.LBE60:
  78:src/eink.c    **** 	_delay_ms(2000);
  79:src/eink.c    **** 	EINK_send_command(PANEL_SETTING);
 320               		.loc 1 79 0
 321 00e4 80E0      		ldi r24,0
 322 00e6 0E94 0000 		call EINK_send_command
 323               	.LVL33:
  80:src/eink.c    **** 	EINK_send_data(0x8F);
 324               		.loc 1 80 0
 325 00ea 8FE8      		ldi r24,lo8(-113)
 326 00ec 0E94 0000 		call EINK_send_data
 327               	.LVL34:
  81:src/eink.c    **** 	EINK_send_data(0x8F);
 328               		.loc 1 81 0
 329 00f0 8FE8      		ldi r24,lo8(-113)
 330 00f2 0E94 0000 		call EINK_send_data
 331               	.LVL35:
  82:src/eink.c    **** 	EINK_send_command(VCOM_AND_DATA_INTERVAL_SETTING);
 332               		.loc 1 82 0
 333 00f6 80E5      		ldi r24,lo8(80)
 334 00f8 0E94 0000 		call EINK_send_command
 335               	.LVL36:
  83:src/eink.c    **** 	EINK_send_data(0x37);
 336               		.loc 1 83 0
 337 00fc 87E3      		ldi r24,lo8(55)
 338 00fe 0E94 0000 		call EINK_send_data
 339               	.LVL37:
  84:src/eink.c    **** 	EINK_send_command(RESOLUTION_SETTING);
 340               		.loc 1 84 0
 341 0102 81E6      		ldi r24,lo8(97)
 342 0104 0E94 0000 		call EINK_send_command
 343               	.LVL38:
  85:src/eink.c    **** 	EINK_send_data(0x68);
 344               		.loc 1 85 0
 345 0108 88E6      		ldi r24,lo8(104)
 346 010a 0E94 0000 		call EINK_send_data
 347               	.LVL39:
  86:src/eink.c    **** 	EINK_send_data(0x00);
 348               		.loc 1 86 0
GAS LISTING C:\Users\Rando\AppData\Local\Temp\cctKssdG.s 			page 12


 349 010e 80E0      		ldi r24,0
 350 0110 0E94 0000 		call EINK_send_data
 351               	.LVL40:
  87:src/eink.c    **** 	EINK_send_data(0xD4);
 352               		.loc 1 87 0
 353 0114 84ED      		ldi r24,lo8(-44)
 354 0116 0E94 0000 		call EINK_send_data
 355               	.LVL41:
 356               	.LBB62:
 357               	.LBB63:
 358               		.loc 2 187 0
 359 011a 2FEF      		ldi r18,lo8(6399999)
 360 011c 87EA      		ldi r24,hi8(6399999)
 361 011e 91E6      		ldi r25,hlo8(6399999)
 362 0120 2150      	1:	subi r18,1
 363 0122 8040      		sbci r24,0
 364 0124 9040      		sbci r25,0
 365 0126 01F4      		brne 1b
 366 0128 00C0      		rjmp .
 367 012a 0000      		nop
 368               	.LVL42:
 369 012c 0895      		ret
 370               	.LBE63:
 371               	.LBE62:
 372               		.cfi_endproc
 373               	.LFE17:
 374               		.size	EINK_init, .-EINK_init
 375               	.global	EINK_display_frame
 376               		.type	EINK_display_frame, @function
 377               	EINK_display_frame:
 378               	.LFB18:
  88:src/eink.c    **** 	_delay_ms(2000);
  89:src/eink.c    **** 	
  90:src/eink.c    **** }
  91:src/eink.c    **** 
  92:src/eink.c    **** void EINK_display_frame(unsigned char* frame_buffer_black, unsigned char* frame_buffer_red) {
 379               		.loc 1 92 0
 380               		.cfi_startproc
 381               	.LVL43:
 382 012e EF92      		push r14
 383               	.LCFI4:
 384               		.cfi_def_cfa_offset 3
 385               		.cfi_offset 14, -2
 386 0130 FF92      		push r15
 387               	.LCFI5:
 388               		.cfi_def_cfa_offset 4
 389               		.cfi_offset 15, -3
 390 0132 0F93      		push r16
 391               	.LCFI6:
 392               		.cfi_def_cfa_offset 5
 393               		.cfi_offset 16, -4
 394 0134 1F93      		push r17
 395               	.LCFI7:
 396               		.cfi_def_cfa_offset 6
 397               		.cfi_offset 17, -5
 398 0136 CF93      		push r28
 399               	.LCFI8:
GAS LISTING C:\Users\Rando\AppData\Local\Temp\cctKssdG.s 			page 13


 400               		.cfi_def_cfa_offset 7
 401               		.cfi_offset 28, -6
 402 0138 DF93      		push r29
 403               	.LCFI9:
 404               		.cfi_def_cfa_offset 8
 405               		.cfi_offset 29, -7
 406               	/* prologue: function */
 407               	/* frame size = 0 */
 408               	/* stack size = 6 */
 409               	.L__stack_usage = 6
 410 013a 7C01      		movw r14,r24
 411 013c 8B01      		movw r16,r22
  93:src/eink.c    **** 	if (frame_buffer_black != NULL) {
 412               		.loc 1 93 0
 413 013e 892B      		or r24,r25
 414 0140 01F0      		breq .L17
  94:src/eink.c    ****         EINK_send_command(DATA_START_TRANSMISSION_1);
 415               		.loc 1 94 0
 416 0142 80E1      		ldi r24,lo8(16)
 417               	.LVL44:
 418 0144 0E94 0000 		call EINK_send_command
 419               	.LVL45:
 420               	.LBB64:
 421               	.LBB65:
 422               		.loc 2 187 0
 423 0148 EFE3      		ldi r30,lo8(7999)
 424 014a FFE1      		ldi r31,hi8(7999)
 425 014c 3197      	1:	sbiw r30,1
 426 014e 01F4      		brne 1b
 427 0150 00C0      		rjmp .
 428 0152 0000      		nop
 429               	.LVL46:
 430               	.LBE65:
 431               	.LBE64:
 432               	.LBB66:
  95:src/eink.c    **** 		_delay_ms(2);
  96:src/eink.c    **** 
  97:src/eink.c    ****         for (int i = 0; i <  epdwidth*HEIGHT/8; i++) {
 433               		.loc 1 97 0
 434 0154 8091 0000 		lds r24,epdwidth
 435 0158 8823      		tst r24
 436 015a 01F0      		breq .L17
 437 015c C0E0      		ldi r28,0
 438 015e D0E0      		ldi r29,0
 439               	.LVL47:
 440               	.L18:
  98:src/eink.c    ****             EINK_send_data(frame_buffer_black[i]);
 441               		.loc 1 98 0 discriminator 3
 442 0160 F701      		movw r30,r14
 443 0162 8191      		ld r24,Z+
 444 0164 7F01      		movw r14,r30
 445 0166 0E94 0000 		call EINK_send_data
 446               	.LVL48:
  97:src/eink.c    ****             EINK_send_data(frame_buffer_black[i]);
 447               		.loc 1 97 0 discriminator 3
 448 016a 2196      		adiw r28,1
 449               	.LVL49:
GAS LISTING C:\Users\Rando\AppData\Local\Temp\cctKssdG.s 			page 14


 450 016c 2091 0000 		lds r18,epdwidth
 451 0170 F5E0      		ldi r31,lo8(5)
 452 0172 2F9F      		mul r18,r31
 453 0174 9001      		movw r18,r0
 454 0176 1124      		clr __zero_reg__
 455 0178 C217      		cp r28,r18
 456 017a D307      		cpc r29,r19
 457 017c 04F0      		brlt .L18
 458               	.LVL50:
 459               	.L17:
 460               	.LBE66:
 461               	.LBB67:
 462               	.LBB68:
 463               		.loc 2 187 0
 464 017e 8FE3      		ldi r24,lo8(7999)
 465 0180 9FE1      		ldi r25,hi8(7999)
 466 0182 0197      	1:	sbiw r24,1
 467 0184 01F4      		brne 1b
 468 0186 00C0      		rjmp .
 469 0188 0000      		nop
 470               	.LVL51:
 471               	.LBE68:
 472               	.LBE67:
  99:src/eink.c    ****         }
 100:src/eink.c    ****     }
 101:src/eink.c    **** 	_delay_ms(2);
 102:src/eink.c    **** 
 103:src/eink.c    ****     if (frame_buffer_red != NULL) {
 473               		.loc 1 103 0
 474 018a 0115      		cp r16,__zero_reg__
 475 018c 1105      		cpc r17,__zero_reg__
 476 018e 01F0      		breq .L13
 104:src/eink.c    ****         EINK_send_command(DATA_START_TRANSMISSION_2);
 477               		.loc 1 104 0
 478 0190 83E1      		ldi r24,lo8(19)
 479 0192 0E94 0000 		call EINK_send_command
 480               	.LVL52:
 481               	.LBB69:
 482               	.LBB70:
 483               		.loc 2 187 0
 484 0196 8FE3      		ldi r24,lo8(7999)
 485 0198 9FE1      		ldi r25,hi8(7999)
 486 019a 0197      	1:	sbiw r24,1
 487 019c 01F4      		brne 1b
 488 019e 00C0      		rjmp .
 489 01a0 0000      		nop
 490               	.LVL53:
 491               	.LBE70:
 492               	.LBE69:
 493               	.LBB71:
 105:src/eink.c    **** 		_delay_ms(2);
 106:src/eink.c    **** 
 107:src/eink.c    ****         for (int i = 0; i < epdwidth*HEIGHT/8; i++) {
 494               		.loc 1 107 0
 495 01a2 8091 0000 		lds r24,epdwidth
 496 01a6 8823      		tst r24
 497 01a8 01F0      		breq .L21
GAS LISTING C:\Users\Rando\AppData\Local\Temp\cctKssdG.s 			page 15


 498 01aa C0E0      		ldi r28,0
 499 01ac D0E0      		ldi r29,0
 500               	.LVL54:
 501               	.L20:
 108:src/eink.c    ****             EINK_send_data(frame_buffer_red[i]);
 502               		.loc 1 108 0 discriminator 3
 503 01ae F801      		movw r30,r16
 504 01b0 8191      		ld r24,Z+
 505 01b2 8F01      		movw r16,r30
 506 01b4 0E94 0000 		call EINK_send_data
 507               	.LVL55:
 107:src/eink.c    ****             EINK_send_data(frame_buffer_red[i]);
 508               		.loc 1 107 0 discriminator 3
 509 01b8 2196      		adiw r28,1
 510               	.LVL56:
 511 01ba 8091 0000 		lds r24,epdwidth
 512 01be F5E0      		ldi r31,lo8(5)
 513 01c0 8F9F      		mul r24,r31
 514 01c2 C001      		movw r24,r0
 515 01c4 1124      		clr __zero_reg__
 516 01c6 C817      		cp r28,r24
 517 01c8 D907      		cpc r29,r25
 518 01ca 04F0      		brlt .L20
 519               	.LVL57:
 520               	.L21:
 521               	.LBE71:
 522               	.LBB72:
 523               	.LBB73:
 524               		.loc 2 187 0
 525 01cc EFE3      		ldi r30,lo8(7999)
 526 01ce FFE1      		ldi r31,hi8(7999)
 527 01d0 3197      	1:	sbiw r30,1
 528 01d2 01F4      		brne 1b
 529 01d4 00C0      		rjmp .
 530 01d6 0000      		nop
 531               	.LVL58:
 532               	.L13:
 533               	/* epilogue start */
 534               	.LBE73:
 535               	.LBE72:
 109:src/eink.c    ****         }
 110:src/eink.c    **** 		_delay_ms(2);
 111:src/eink.c    **** 
 112:src/eink.c    ****     }
 113:src/eink.c    **** }
 536               		.loc 1 113 0
 537 01d8 DF91      		pop r29
 538 01da CF91      		pop r28
 539 01dc 1F91      		pop r17
 540 01de 0F91      		pop r16
 541 01e0 FF90      		pop r15
 542 01e2 EF90      		pop r14
 543 01e4 0895      		ret
 544               		.cfi_endproc
 545               	.LFE18:
 546               		.size	EINK_display_frame, .-EINK_display_frame
 547               	.global	EINK_draw_absolute_pixel
GAS LISTING C:\Users\Rando\AppData\Local\Temp\cctKssdG.s 			page 16


 548               		.type	EINK_draw_absolute_pixel, @function
 549               	EINK_draw_absolute_pixel:
 550               	.LFB19:
 114:src/eink.c    **** 
 115:src/eink.c    **** void EINK_draw_absolute_pixel(unsigned char* image, int x, int y, int colored) {
 551               		.loc 1 115 0
 552               		.cfi_startproc
 553               	.LVL59:
 554               	/* prologue: function */
 555               	/* frame size = 0 */
 556               	/* stack size = 0 */
 557               	.L__stack_usage = 0
 116:src/eink.c    **** 	if (x < 0 || x >= epdwidth || y < 0 || y >= HEIGHT) { // Partialite jaoks vaja partiali suurust! M
 558               		.loc 1 116 0
 559 01e6 77FD      		sbrc r23,7
 560 01e8 00C0      		rjmp .L27
 561               		.loc 1 116 0 is_stmt 0 discriminator 1
 562 01ea E091 0000 		lds r30,epdwidth
 563 01ee F0E0      		ldi r31,0
 564 01f0 6E17      		cp r22,r30
 565 01f2 7F07      		cpc r23,r31
 566 01f4 04F4      		brge .L27
 567               		.loc 1 116 0 discriminator 3
 568 01f6 4832      		cpi r20,40
 569 01f8 5105      		cpc r21,__zero_reg__
 570 01fa 00F4      		brsh .L27
 117:src/eink.c    ****         return;
 118:src/eink.c    ****     }
 119:src/eink.c    **** 	
 120:src/eink.c    ****     if (IF_INVERT_COLOR) {
 121:src/eink.c    ****         if (colored) {
 122:src/eink.c    ****             image[(x + y * epdwidth) / 8] |= 0x80 >> (x % 8);
 123:src/eink.c    ****         } else {
 124:src/eink.c    ****             image[(x + y * epdwidth) / 8 ] &= ~(0x80 >> (x % 8));
 125:src/eink.c    ****         }
 126:src/eink.c    ****     } else {
 127:src/eink.c    ****         if (colored) {
 571               		.loc 1 127 0 is_stmt 1
 572 01fc 232B      		or r18,r19
 573 01fe 01F4      		brne .L30
 128:src/eink.c    ****             image[(x + y * epdwidth) / 8]  &= ~(0x80 >> (x % 8));
 129:src/eink.c    ****         } else {
 130:src/eink.c    ****             image[(x + y * epdwidth) / 8 ] |= 0x80 >> (x % 8);
 574               		.loc 1 130 0
 575 0200 E49F      		mul r30,r20
 576 0202 9001      		movw r18,r0
 577 0204 E59F      		mul r30,r21
 578 0206 300D      		add r19,r0
 579 0208 F49F      		mul r31,r20
 580 020a 300D      		add r19,r0
 581 020c 1124      		clr r1
 582               	.LVL60:
 583 020e F901      		movw r30,r18
 584 0210 E60F      		add r30,r22
 585 0212 F71F      		adc r31,r23
 586 0214 F595      		asr r31
 587 0216 E795      		ror r30
GAS LISTING C:\Users\Rando\AppData\Local\Temp\cctKssdG.s 			page 17


 588 0218 F595      		asr r31
 589 021a E795      		ror r30
 590 021c F595      		asr r31
 591 021e E795      		ror r30
 592 0220 E80F      		add r30,r24
 593 0222 F91F      		adc r31,r25
 594 0224 6770      		andi r22,7
 595 0226 7727      		clr r23
 596               	.LVL61:
 597 0228 80E8      		ldi r24,lo8(-128)
 598 022a 90E0      		ldi r25,0
 599               	.LVL62:
 600 022c 00C0      		rjmp 2f
 601               		1:
 602 022e 9595      		asr r25
 603 0230 8795      		ror r24
 604               		2:
 605 0232 6A95      		dec r22
 606 0234 02F4      		brpl 1b
 607 0236 9081      		ld r25,Z
 608 0238 892B      		or r24,r25
 609 023a 8083      		st Z,r24
 610               	.L27:
 611 023c 0895      		ret
 612               	.LVL63:
 613               	.L30:
 128:src/eink.c    ****             image[(x + y * epdwidth) / 8]  &= ~(0x80 >> (x % 8));
 614               		.loc 1 128 0
 615 023e E49F      		mul r30,r20
 616 0240 9001      		movw r18,r0
 617 0242 E59F      		mul r30,r21
 618 0244 300D      		add r19,r0
 619 0246 F49F      		mul r31,r20
 620 0248 300D      		add r19,r0
 621 024a 1124      		clr r1
 622               	.LVL64:
 623 024c F901      		movw r30,r18
 624 024e E60F      		add r30,r22
 625 0250 F71F      		adc r31,r23
 626 0252 F595      		asr r31
 627 0254 E795      		ror r30
 628 0256 F595      		asr r31
 629 0258 E795      		ror r30
 630 025a F595      		asr r31
 631 025c E795      		ror r30
 632 025e E80F      		add r30,r24
 633 0260 F91F      		adc r31,r25
 634 0262 6770      		andi r22,7
 635 0264 7727      		clr r23
 636               	.LVL65:
 637 0266 80E8      		ldi r24,lo8(-128)
 638 0268 90E0      		ldi r25,0
 639               	.LVL66:
 640 026a 00C0      		rjmp 2f
 641               		1:
 642 026c 9595      		asr r25
 643 026e 8795      		ror r24
GAS LISTING C:\Users\Rando\AppData\Local\Temp\cctKssdG.s 			page 18


 644               		2:
 645 0270 6A95      		dec r22
 646 0272 02F4      		brpl 1b
 647 0274 8095      		com r24
 648 0276 9081      		ld r25,Z
 649 0278 8923      		and r24,r25
 650 027a 8083      		st Z,r24
 651 027c 0895      		ret
 652               		.cfi_endproc
 653               	.LFE19:
 654               		.size	EINK_draw_absolute_pixel, .-EINK_draw_absolute_pixel
 655               	.global	EINK_set_partial_black
 656               		.type	EINK_set_partial_black, @function
 657               	EINK_set_partial_black:
 658               	.LFB20:
 131:src/eink.c    ****         }
 132:src/eink.c    ****     }
 133:src/eink.c    **** }
 134:src/eink.c    **** 
 135:src/eink.c    **** void EINK_set_partial_black(unsigned char* buffer, int x, int y, int w, int l) {
 659               		.loc 1 135 0
 660               		.cfi_startproc
 661               	.LVL67:
 662 027e 9F92      		push r9
 663               	.LCFI10:
 664               		.cfi_def_cfa_offset 3
 665               		.cfi_offset 9, -2
 666 0280 AF92      		push r10
 667               	.LCFI11:
 668               		.cfi_def_cfa_offset 4
 669               		.cfi_offset 10, -3
 670 0282 BF92      		push r11
 671               	.LCFI12:
 672               		.cfi_def_cfa_offset 5
 673               		.cfi_offset 11, -4
 674 0284 CF92      		push r12
 675               	.LCFI13:
 676               		.cfi_def_cfa_offset 6
 677               		.cfi_offset 12, -5
 678 0286 DF92      		push r13
 679               	.LCFI14:
 680               		.cfi_def_cfa_offset 7
 681               		.cfi_offset 13, -6
 682 0288 EF92      		push r14
 683               	.LCFI15:
 684               		.cfi_def_cfa_offset 8
 685               		.cfi_offset 14, -7
 686 028a FF92      		push r15
 687               	.LCFI16:
 688               		.cfi_def_cfa_offset 9
 689               		.cfi_offset 15, -8
 690 028c 0F93      		push r16
 691               	.LCFI17:
 692               		.cfi_def_cfa_offset 10
 693               		.cfi_offset 16, -9
 694 028e 1F93      		push r17
 695               	.LCFI18:
GAS LISTING C:\Users\Rando\AppData\Local\Temp\cctKssdG.s 			page 19


 696               		.cfi_def_cfa_offset 11
 697               		.cfi_offset 17, -10
 698 0290 CF93      		push r28
 699               	.LCFI19:
 700               		.cfi_def_cfa_offset 12
 701               		.cfi_offset 28, -11
 702 0292 DF93      		push r29
 703               	.LCFI20:
 704               		.cfi_def_cfa_offset 13
 705               		.cfi_offset 29, -12
 706               	/* prologue: function */
 707               	/* frame size = 0 */
 708               	/* stack size = 11 */
 709               	.L__stack_usage = 11
 710 0294 EC01      		movw r28,r24
 711 0296 F62E      		mov r15,r22
 712 0298 5A01      		movw r10,r20
 713 029a E22E      		mov r14,r18
 714 029c 932E      		mov r9,r19
 715 029e 6801      		movw r12,r16
 136:src/eink.c    **** 	EINK_send_command(PARTIAL_IN);
 716               		.loc 1 136 0
 717 02a0 81E9      		ldi r24,lo8(-111)
 718               	.LVL68:
 719 02a2 0E94 0000 		call EINK_send_command
 720               	.LVL69:
 137:src/eink.c    **** 	EINK_send_command(PARTIAL_WINDOW);
 721               		.loc 1 137 0
 722 02a6 80E9      		ldi r24,lo8(-112)
 723 02a8 0E94 0000 		call EINK_send_command
 724               	.LVL70:
 138:src/eink.c    **** 
 139:src/eink.c    **** 	EINK_send_data( x & 0xf8); // X on 8 kordne
 725               		.loc 1 139 0
 726 02ac 1F2D      		mov r17,r15
 727 02ae 187F      		andi r17,lo8(-8)
 728 02b0 812F      		mov r24,r17
 729 02b2 0E94 0000 		call EINK_send_data
 730               	.LVL71:
 140:src/eink.c    **** 	EINK_send_data(((x&0xf8) + w - 1) | 0x07);
 731               		.loc 1 140 0
 732 02b6 8FEF      		ldi r24,lo8(-1)
 733 02b8 8E0D      		add r24,r14
 734 02ba 810F      		add r24,r17
 735 02bc 8760      		ori r24,lo8(7)
 736 02be 0E94 0000 		call EINK_send_data
 737               	.LVL72:
 141:src/eink.c    **** 
 142:src/eink.c    **** 	EINK_send_data(y >> 8);
 738               		.loc 1 142 0
 739 02c2 8B2D      		mov r24,r11
 740 02c4 0E94 0000 		call EINK_send_data
 741               	.LVL73:
 143:src/eink.c    **** 	EINK_send_data(y & 0xff);
 742               		.loc 1 143 0
 743 02c8 8A2D      		mov r24,r10
 744 02ca 0E94 0000 		call EINK_send_data
GAS LISTING C:\Users\Rando\AppData\Local\Temp\cctKssdG.s 			page 20


 745               	.LVL74:
 144:src/eink.c    **** 	EINK_send_data((y + l -1) >> 8);
 746               		.loc 1 144 0
 747 02ce C501      		movw r24,r10
 748 02d0 8C0D      		add r24,r12
 749 02d2 9D1D      		adc r25,r13
 750 02d4 0197      		sbiw r24,1
 751 02d6 892F      		mov r24,r25
 752 02d8 0E94 0000 		call EINK_send_data
 753               	.LVL75:
 145:src/eink.c    **** 	EINK_send_data((y + l - 1) & 0xff);
 754               		.loc 1 145 0
 755 02dc 8FEF      		ldi r24,lo8(-1)
 756 02de 8C0D      		add r24,r12
 757 02e0 8A0D      		add r24,r10
 758 02e2 0E94 0000 		call EINK_send_data
 759               	.LVL76:
 146:src/eink.c    **** 	EINK_send_data(0x01);
 760               		.loc 1 146 0
 761 02e6 81E0      		ldi r24,lo8(1)
 762 02e8 0E94 0000 		call EINK_send_data
 763               	.LVL77:
 764               	.LBB74:
 765               	.LBB75:
 766               		.loc 2 187 0
 767 02ec 8FE3      		ldi r24,lo8(7999)
 768 02ee 9FE1      		ldi r25,hi8(7999)
 769 02f0 0197      	1:	sbiw r24,1
 770 02f2 01F4      		brne 1b
 771 02f4 00C0      		rjmp .
 772 02f6 0000      		nop
 773               	.LVL78:
 774               	.LBE75:
 775               	.LBE74:
 147:src/eink.c    **** 	_delay_ms(2);
 148:src/eink.c    **** 	EINK_send_command(DATA_START_TRANSMISSION_1);
 776               		.loc 1 148 0
 777 02f8 80E1      		ldi r24,lo8(16)
 778 02fa 0E94 0000 		call EINK_send_command
 779               	.LVL79:
 780               	.LBB76:
 149:src/eink.c    **** 	if (buffer != NULL) {
 150:src/eink.c    ****         for(int i = 0; i < w  / 8 * l; i++) {
 781               		.loc 1 150 0
 782 02fe 8E2D      		mov r24,r14
 783 0300 992D      		mov r25,r9
 784               	.LBE76:
 149:src/eink.c    **** 	if (buffer != NULL) {
 785               		.loc 1 149 0
 786 0302 2097      		sbiw r28,0
 787 0304 01F0      		breq .L41
 788               	.LVL80:
 789               	.LBB77:
 790               		.loc 1 150 0 discriminator 1
 791 0306 97FD      		sbrc r25,7
 792 0308 00C0      		rjmp .L42
 793               	.L35:
GAS LISTING C:\Users\Rando\AppData\Local\Temp\cctKssdG.s 			page 21


 794 030a 9C01      		movw r18,r24
 795 030c 3595      		asr r19
 796 030e 2795      		ror r18
 797 0310 3595      		asr r19
 798 0312 2795      		ror r18
 799 0314 3595      		asr r19
 800 0316 2795      		ror r18
 801 0318 2C9D      		mul r18,r12
 802 031a C001      		movw r24,r0
 803 031c 2D9D      		mul r18,r13
 804 031e 900D      		add r25,r0
 805 0320 3C9D      		mul r19,r12
 806 0322 900D      		add r25,r0
 807 0324 1124      		clr r1
 808 0326 1816      		cp __zero_reg__,r24
 809 0328 1906      		cpc __zero_reg__,r25
 810 032a 04F4      		brge .L36
 811 032c 8E01      		movw r16,r28
 812               	.LVL81:
 813 032e 080F      		add r16,r24
 814 0330 191F      		adc r17,r25
 815               	.LVL82:
 816               	.L37:
 151:src/eink.c    ****             EINK_send_data(buffer[i]);  
 817               		.loc 1 151 0 discriminator 3
 818 0332 8991      		ld r24,Y+
 819               	.LVL83:
 820 0334 0E94 0000 		call EINK_send_data
 821               	.LVL84:
 150:src/eink.c    ****             EINK_send_data(buffer[i]);  
 822               		.loc 1 150 0 discriminator 3
 823 0338 0C17      		cp r16,r28
 824 033a 1D07      		cpc r17,r29
 825 033c 01F4      		brne .L37
 826               	.LVL85:
 827               	.L36:
 828               	.LBE77:
 829               	.LBB78:
 830               	.LBB79:
 831               		.loc 2 187 0
 832 033e 8FE3      		ldi r24,lo8(7999)
 833 0340 9FE1      		ldi r25,hi8(7999)
 834 0342 0197      	1:	sbiw r24,1
 835 0344 01F4      		brne 1b
 836 0346 00C0      		rjmp .
 837 0348 0000      		nop
 838               	.LVL86:
 839               	.LBE79:
 840               	.LBE78:
 152:src/eink.c    ****         }  
 153:src/eink.c    ****     } else {
 154:src/eink.c    ****         for(int i = 0; i < w  / 8 * l; i++) {
 155:src/eink.c    ****             EINK_send_data(0x00);  
 156:src/eink.c    ****         }  
 157:src/eink.c    ****     }
 158:src/eink.c    ****     _delay_ms(2);
 159:src/eink.c    **** 	EINK_send_command(PARTIAL_OUT);  
GAS LISTING C:\Users\Rando\AppData\Local\Temp\cctKssdG.s 			page 22


 841               		.loc 1 159 0
 842 034a 82E9      		ldi r24,lo8(-110)
 843               	/* epilogue start */
 160:src/eink.c    **** }
 844               		.loc 1 160 0
 845 034c DF91      		pop r29
 846 034e CF91      		pop r28
 847 0350 1F91      		pop r17
 848 0352 0F91      		pop r16
 849 0354 FF90      		pop r15
 850 0356 EF90      		pop r14
 851 0358 DF90      		pop r13
 852 035a CF90      		pop r12
 853               	.LVL87:
 854 035c BF90      		pop r11
 855 035e AF90      		pop r10
 856               	.LVL88:
 857 0360 9F90      		pop r9
 159:src/eink.c    **** }
 858               		.loc 1 159 0
 859 0362 0C94 0000 		jmp EINK_send_command
 860               	.LVL89:
 861               	.L42:
 862               	.LBB80:
 150:src/eink.c    ****             EINK_send_data(buffer[i]);  
 863               		.loc 1 150 0 discriminator 1
 864 0366 0796      		adiw r24,7
 865 0368 00C0      		rjmp .L35
 866               	.LVL90:
 867               	.L41:
 868               	.LBE80:
 869               	.LBB81:
 154:src/eink.c    ****             EINK_send_data(0x00);  
 870               		.loc 1 154 0 discriminator 1
 871 036a 97FD      		sbrc r25,7
 872 036c 00C0      		rjmp .L43
 873               	.L33:
 874 036e 9595      		asr r25
 875 0370 8795      		ror r24
 876 0372 9595      		asr r25
 877 0374 8795      		ror r24
 878 0376 9595      		asr r25
 879 0378 8795      		ror r24
 880 037a 8C9D      		mul r24,r12
 881 037c 8001      		movw r16,r0
 882 037e 8D9D      		mul r24,r13
 883 0380 100D      		add r17,r0
 884 0382 9C9D      		mul r25,r12
 885 0384 100D      		add r17,r0
 886 0386 1124      		clr r1
 887 0388 1016      		cp __zero_reg__,r16
 888 038a 1106      		cpc __zero_reg__,r17
 889 038c 04F4      		brge .L36
 154:src/eink.c    ****             EINK_send_data(0x00);  
 890               		.loc 1 154 0 is_stmt 0 discriminator 3
 891 038e C0E0      		ldi r28,0
 892 0390 D0E0      		ldi r29,0
GAS LISTING C:\Users\Rando\AppData\Local\Temp\cctKssdG.s 			page 23


 893               	.LVL91:
 894               	.L38:
 155:src/eink.c    ****         }  
 895               		.loc 1 155 0 is_stmt 1 discriminator 3
 896 0392 80E0      		ldi r24,0
 897 0394 0E94 0000 		call EINK_send_data
 898               	.LVL92:
 154:src/eink.c    ****             EINK_send_data(0x00);  
 899               		.loc 1 154 0 discriminator 3
 900 0398 2196      		adiw r28,1
 901               	.LVL93:
 902 039a C017      		cp r28,r16
 903 039c D107      		cpc r29,r17
 904 039e 01F4      		brne .L38
 905 03a0 00C0      		rjmp .L36
 906               	.LVL94:
 907               	.L43:
 154:src/eink.c    ****             EINK_send_data(0x00);  
 908               		.loc 1 154 0 is_stmt 0 discriminator 1
 909 03a2 0796      		adiw r24,7
 910 03a4 00C0      		rjmp .L33
 911               	.LBE81:
 912               		.cfi_endproc
 913               	.LFE20:
 914               		.size	EINK_set_partial_black, .-EINK_set_partial_black
 915               	.global	EINK_set_partial_red
 916               		.type	EINK_set_partial_red, @function
 917               	EINK_set_partial_red:
 918               	.LFB21:
 161:src/eink.c    **** 
 162:src/eink.c    **** void EINK_set_partial_red(unsigned char* buffer, int x, int y, int w, int l) {
 919               		.loc 1 162 0 is_stmt 1
 920               		.cfi_startproc
 921               	.LVL95:
 922 03a6 9F92      		push r9
 923               	.LCFI21:
 924               		.cfi_def_cfa_offset 3
 925               		.cfi_offset 9, -2
 926 03a8 AF92      		push r10
 927               	.LCFI22:
 928               		.cfi_def_cfa_offset 4
 929               		.cfi_offset 10, -3
 930 03aa BF92      		push r11
 931               	.LCFI23:
 932               		.cfi_def_cfa_offset 5
 933               		.cfi_offset 11, -4
 934 03ac CF92      		push r12
 935               	.LCFI24:
 936               		.cfi_def_cfa_offset 6
 937               		.cfi_offset 12, -5
 938 03ae DF92      		push r13
 939               	.LCFI25:
 940               		.cfi_def_cfa_offset 7
 941               		.cfi_offset 13, -6
 942 03b0 EF92      		push r14
 943               	.LCFI26:
 944               		.cfi_def_cfa_offset 8
GAS LISTING C:\Users\Rando\AppData\Local\Temp\cctKssdG.s 			page 24


 945               		.cfi_offset 14, -7
 946 03b2 FF92      		push r15
 947               	.LCFI27:
 948               		.cfi_def_cfa_offset 9
 949               		.cfi_offset 15, -8
 950 03b4 0F93      		push r16
 951               	.LCFI28:
 952               		.cfi_def_cfa_offset 10
 953               		.cfi_offset 16, -9
 954 03b6 1F93      		push r17
 955               	.LCFI29:
 956               		.cfi_def_cfa_offset 11
 957               		.cfi_offset 17, -10
 958 03b8 CF93      		push r28
 959               	.LCFI30:
 960               		.cfi_def_cfa_offset 12
 961               		.cfi_offset 28, -11
 962 03ba DF93      		push r29
 963               	.LCFI31:
 964               		.cfi_def_cfa_offset 13
 965               		.cfi_offset 29, -12
 966               	/* prologue: function */
 967               	/* frame size = 0 */
 968               	/* stack size = 11 */
 969               	.L__stack_usage = 11
 970 03bc EC01      		movw r28,r24
 971 03be F62E      		mov r15,r22
 972 03c0 5A01      		movw r10,r20
 973 03c2 E22E      		mov r14,r18
 974 03c4 932E      		mov r9,r19
 975 03c6 6801      		movw r12,r16
 163:src/eink.c    **** 	EINK_send_command(PARTIAL_IN);
 976               		.loc 1 163 0
 977 03c8 81E9      		ldi r24,lo8(-111)
 978               	.LVL96:
 979 03ca 0E94 0000 		call EINK_send_command
 980               	.LVL97:
 164:src/eink.c    **** 	EINK_send_command(PARTIAL_WINDOW);
 981               		.loc 1 164 0
 982 03ce 80E9      		ldi r24,lo8(-112)
 983 03d0 0E94 0000 		call EINK_send_command
 984               	.LVL98:
 165:src/eink.c    **** 
 166:src/eink.c    **** 	EINK_send_data( x & 0xf8); // X on 8 kordne
 985               		.loc 1 166 0
 986 03d4 1F2D      		mov r17,r15
 987 03d6 187F      		andi r17,lo8(-8)
 988 03d8 812F      		mov r24,r17
 989 03da 0E94 0000 		call EINK_send_data
 990               	.LVL99:
 167:src/eink.c    **** 	EINK_send_data(((x&0xf8) + w - 1) | 0x07);
 991               		.loc 1 167 0
 992 03de 8FEF      		ldi r24,lo8(-1)
 993 03e0 8E0D      		add r24,r14
 994 03e2 810F      		add r24,r17
 995 03e4 8760      		ori r24,lo8(7)
 996 03e6 0E94 0000 		call EINK_send_data
GAS LISTING C:\Users\Rando\AppData\Local\Temp\cctKssdG.s 			page 25


 997               	.LVL100:
 168:src/eink.c    **** 
 169:src/eink.c    **** 	EINK_send_data(y >> 8);
 998               		.loc 1 169 0
 999 03ea 8B2D      		mov r24,r11
 1000 03ec 0E94 0000 		call EINK_send_data
 1001               	.LVL101:
 170:src/eink.c    **** 	EINK_send_data(y & 0xff);
 1002               		.loc 1 170 0
 1003 03f0 8A2D      		mov r24,r10
 1004 03f2 0E94 0000 		call EINK_send_data
 1005               	.LVL102:
 171:src/eink.c    **** 	EINK_send_data((y + l -1) >> 8);
 1006               		.loc 1 171 0
 1007 03f6 C501      		movw r24,r10
 1008 03f8 8C0D      		add r24,r12
 1009 03fa 9D1D      		adc r25,r13
 1010 03fc 0197      		sbiw r24,1
 1011 03fe 892F      		mov r24,r25
 1012 0400 0E94 0000 		call EINK_send_data
 1013               	.LVL103:
 172:src/eink.c    **** 	EINK_send_data((y + l - 1) & 0xff);
 1014               		.loc 1 172 0
 1015 0404 8FEF      		ldi r24,lo8(-1)
 1016 0406 8C0D      		add r24,r12
 1017 0408 8A0D      		add r24,r10
 1018 040a 0E94 0000 		call EINK_send_data
 1019               	.LVL104:
 173:src/eink.c    **** 	EINK_send_data(0x01);
 1020               		.loc 1 173 0
 1021 040e 81E0      		ldi r24,lo8(1)
 1022 0410 0E94 0000 		call EINK_send_data
 1023               	.LVL105:
 1024               	.LBB82:
 1025               	.LBB83:
 1026               		.loc 2 187 0
 1027 0414 8FE3      		ldi r24,lo8(7999)
 1028 0416 9FE1      		ldi r25,hi8(7999)
 1029 0418 0197      	1:	sbiw r24,1
 1030 041a 01F4      		brne 1b
 1031 041c 00C0      		rjmp .
 1032 041e 0000      		nop
 1033               	.LVL106:
 1034               	.LBE83:
 1035               	.LBE82:
 174:src/eink.c    **** 	_delay_ms(2);
 175:src/eink.c    **** 	EINK_send_command(DATA_START_TRANSMISSION_2);
 1036               		.loc 1 175 0
 1037 0420 83E1      		ldi r24,lo8(19)
 1038 0422 0E94 0000 		call EINK_send_command
 1039               	.LVL107:
 1040               	.LBB84:
 176:src/eink.c    **** 	if (buffer != NULL) {
 177:src/eink.c    ****         for(int i = 0; i < w  / 8 * l; i++) {
 1041               		.loc 1 177 0
 1042 0426 8E2D      		mov r24,r14
 1043 0428 992D      		mov r25,r9
GAS LISTING C:\Users\Rando\AppData\Local\Temp\cctKssdG.s 			page 26


 1044               	.LBE84:
 176:src/eink.c    **** 	if (buffer != NULL) {
 1045               		.loc 1 176 0
 1046 042a 2097      		sbiw r28,0
 1047 042c 01F0      		breq .L54
 1048               	.LVL108:
 1049               	.LBB85:
 1050               		.loc 1 177 0 discriminator 1
 1051 042e 97FD      		sbrc r25,7
 1052 0430 00C0      		rjmp .L55
 1053               	.L48:
 1054 0432 9C01      		movw r18,r24
 1055 0434 3595      		asr r19
 1056 0436 2795      		ror r18
 1057 0438 3595      		asr r19
 1058 043a 2795      		ror r18
 1059 043c 3595      		asr r19
 1060 043e 2795      		ror r18
 1061 0440 2C9D      		mul r18,r12
 1062 0442 C001      		movw r24,r0
 1063 0444 2D9D      		mul r18,r13
 1064 0446 900D      		add r25,r0
 1065 0448 3C9D      		mul r19,r12
 1066 044a 900D      		add r25,r0
 1067 044c 1124      		clr r1
 1068 044e 1816      		cp __zero_reg__,r24
 1069 0450 1906      		cpc __zero_reg__,r25
 1070 0452 04F4      		brge .L49
 1071 0454 8E01      		movw r16,r28
 1072               	.LVL109:
 1073 0456 080F      		add r16,r24
 1074 0458 191F      		adc r17,r25
 1075               	.LVL110:
 1076               	.L50:
 178:src/eink.c    ****             EINK_send_data(buffer[i]);  
 1077               		.loc 1 178 0 discriminator 3
 1078 045a 8991      		ld r24,Y+
 1079               	.LVL111:
 1080 045c 0E94 0000 		call EINK_send_data
 1081               	.LVL112:
 177:src/eink.c    ****             EINK_send_data(buffer[i]);  
 1082               		.loc 1 177 0 discriminator 3
 1083 0460 0C17      		cp r16,r28
 1084 0462 1D07      		cpc r17,r29
 1085 0464 01F4      		brne .L50
 1086               	.LVL113:
 1087               	.L49:
 1088               	.LBE85:
 1089               	.LBB86:
 1090               	.LBB87:
 1091               		.loc 2 187 0
 1092 0466 8FE3      		ldi r24,lo8(7999)
 1093 0468 9FE1      		ldi r25,hi8(7999)
 1094 046a 0197      	1:	sbiw r24,1
 1095 046c 01F4      		brne 1b
 1096 046e 00C0      		rjmp .
 1097 0470 0000      		nop
GAS LISTING C:\Users\Rando\AppData\Local\Temp\cctKssdG.s 			page 27


 1098               	.LVL114:
 1099               	.LBE87:
 1100               	.LBE86:
 179:src/eink.c    ****         }  
 180:src/eink.c    ****     } else {
 181:src/eink.c    ****         for(int i = 0; i < w  / 8 * l; i++) {
 182:src/eink.c    ****             EINK_send_data(0x00);  
 183:src/eink.c    ****         }  
 184:src/eink.c    ****     }
 185:src/eink.c    ****     _delay_ms(2);
 186:src/eink.c    **** 	EINK_send_command(PARTIAL_OUT);  
 1101               		.loc 1 186 0
 1102 0472 82E9      		ldi r24,lo8(-110)
 1103               	/* epilogue start */
 187:src/eink.c    **** }
 1104               		.loc 1 187 0
 1105 0474 DF91      		pop r29
 1106 0476 CF91      		pop r28
 1107 0478 1F91      		pop r17
 1108 047a 0F91      		pop r16
 1109 047c FF90      		pop r15
 1110 047e EF90      		pop r14
 1111 0480 DF90      		pop r13
 1112 0482 CF90      		pop r12
 1113               	.LVL115:
 1114 0484 BF90      		pop r11
 1115 0486 AF90      		pop r10
 1116               	.LVL116:
 1117 0488 9F90      		pop r9
 186:src/eink.c    **** }
 1118               		.loc 1 186 0
 1119 048a 0C94 0000 		jmp EINK_send_command
 1120               	.LVL117:
 1121               	.L55:
 1122               	.LBB88:
 177:src/eink.c    ****             EINK_send_data(buffer[i]);  
 1123               		.loc 1 177 0 discriminator 1
 1124 048e 0796      		adiw r24,7
 1125 0490 00C0      		rjmp .L48
 1126               	.LVL118:
 1127               	.L54:
 1128               	.LBE88:
 1129               	.LBB89:
 181:src/eink.c    ****             EINK_send_data(0x00);  
 1130               		.loc 1 181 0 discriminator 1
 1131 0492 97FD      		sbrc r25,7
 1132 0494 00C0      		rjmp .L56
 1133               	.L46:
 1134 0496 9595      		asr r25
 1135 0498 8795      		ror r24
 1136 049a 9595      		asr r25
 1137 049c 8795      		ror r24
 1138 049e 9595      		asr r25
 1139 04a0 8795      		ror r24
 1140 04a2 8C9D      		mul r24,r12
 1141 04a4 8001      		movw r16,r0
 1142 04a6 8D9D      		mul r24,r13
GAS LISTING C:\Users\Rando\AppData\Local\Temp\cctKssdG.s 			page 28


 1143 04a8 100D      		add r17,r0
 1144 04aa 9C9D      		mul r25,r12
 1145 04ac 100D      		add r17,r0
 1146 04ae 1124      		clr r1
 1147 04b0 1016      		cp __zero_reg__,r16
 1148 04b2 1106      		cpc __zero_reg__,r17
 1149 04b4 04F4      		brge .L49
 181:src/eink.c    ****             EINK_send_data(0x00);  
 1150               		.loc 1 181 0 is_stmt 0 discriminator 3
 1151 04b6 C0E0      		ldi r28,0
 1152 04b8 D0E0      		ldi r29,0
 1153               	.LVL119:
 1154               	.L51:
 182:src/eink.c    ****         }  
 1155               		.loc 1 182 0 is_stmt 1 discriminator 3
 1156 04ba 80E0      		ldi r24,0
 1157 04bc 0E94 0000 		call EINK_send_data
 1158               	.LVL120:
 181:src/eink.c    ****             EINK_send_data(0x00);  
 1159               		.loc 1 181 0 discriminator 3
 1160 04c0 2196      		adiw r28,1
 1161               	.LVL121:
 1162 04c2 C017      		cp r28,r16
 1163 04c4 D107      		cpc r29,r17
 1164 04c6 01F4      		brne .L51
 1165 04c8 00C0      		rjmp .L49
 1166               	.LVL122:
 1167               	.L56:
 181:src/eink.c    ****             EINK_send_data(0x00);  
 1168               		.loc 1 181 0 is_stmt 0 discriminator 1
 1169 04ca 0796      		adiw r24,7
 1170 04cc 00C0      		rjmp .L46
 1171               	.LBE89:
 1172               		.cfi_endproc
 1173               	.LFE21:
 1174               		.size	EINK_set_partial_red, .-EINK_set_partial_red
 1175               	.global	EINK_wait
 1176               		.type	EINK_wait, @function
 1177               	EINK_wait:
 1178               	.LFB22:
 188:src/eink.c    **** 
 189:src/eink.c    **** void EINK_wait() {
 1179               		.loc 1 189 0 is_stmt 1
 1180               		.cfi_startproc
 1181               	/* prologue: function */
 1182               	/* frame size = 0 */
 1183               	/* stack size = 0 */
 1184               	.L__stack_usage = 0
 190:src/eink.c    ****     while(PIND & !(1<<PD3));
 1185               		.loc 1 190 0
 1186 04ce 89B1      		in r24,0x9
 1187 04d0 0895      		ret
 1188               		.cfi_endproc
 1189               	.LFE22:
 1190               		.size	EINK_wait, .-EINK_wait
 1191               		.comm	epdwidth,1,1
 1192               	.Letext0:
GAS LISTING C:\Users\Rando\AppData\Local\Temp\cctKssdG.s 			page 29


 1193               		.file 3 "c:\\avr toolchain\\avr\\include\\stdint.h"
 1194               		.file 4 "./include/spi.h"
 1195               		.file 5 "./include/eink.h"
 1196               		.section	.debug_info,"",@progbits
 1197               	.Ldebug_info0:
 1198 0000 190B 0000 		.long	0xb19
 1199 0004 0200      		.word	0x2
 1200 0006 0000 0000 		.long	.Ldebug_abbrev0
 1201 000a 04        		.byte	0x4
 1202 000b 01        		.uleb128 0x1
 1203 000c 0000 0000 		.long	.LASF33
 1204 0010 0C        		.byte	0xc
 1205 0011 0000 0000 		.long	.LASF34
 1206 0015 0000 0000 		.long	.LASF35
 1207 0019 0000 0000 		.long	.Ltext0
 1208 001d 0000 0000 		.long	.Letext0
 1209 0021 0000 0000 		.long	.Ldebug_line0
 1210 0025 02        		.uleb128 0x2
 1211 0026 01        		.byte	0x1
 1212 0027 06        		.byte	0x6
 1213 0028 0000 0000 		.long	.LASF0
 1214 002c 03        		.uleb128 0x3
 1215 002d 0000 0000 		.long	.LASF4
 1216 0031 03        		.byte	0x3
 1217 0032 7E        		.byte	0x7e
 1218 0033 3700 0000 		.long	0x37
 1219 0037 02        		.uleb128 0x2
 1220 0038 01        		.byte	0x1
 1221 0039 08        		.byte	0x8
 1222 003a 0000 0000 		.long	.LASF1
 1223 003e 04        		.uleb128 0x4
 1224 003f 02        		.byte	0x2
 1225 0040 05        		.byte	0x5
 1226 0041 696E 7400 		.string	"int"
 1227 0045 02        		.uleb128 0x2
 1228 0046 02        		.byte	0x2
 1229 0047 07        		.byte	0x7
 1230 0048 0000 0000 		.long	.LASF2
 1231 004c 02        		.uleb128 0x2
 1232 004d 04        		.byte	0x4
 1233 004e 05        		.byte	0x5
 1234 004f 0000 0000 		.long	.LASF3
 1235 0053 03        		.uleb128 0x3
 1236 0054 0000 0000 		.long	.LASF5
 1237 0058 03        		.byte	0x3
 1238 0059 82        		.byte	0x82
 1239 005a 5E00 0000 		.long	0x5e
 1240 005e 02        		.uleb128 0x2
 1241 005f 04        		.byte	0x4
 1242 0060 07        		.byte	0x7
 1243 0061 0000 0000 		.long	.LASF6
 1244 0065 02        		.uleb128 0x2
 1245 0066 08        		.byte	0x8
 1246 0067 05        		.byte	0x5
 1247 0068 0000 0000 		.long	.LASF7
 1248 006c 02        		.uleb128 0x2
 1249 006d 08        		.byte	0x8
GAS LISTING C:\Users\Rando\AppData\Local\Temp\cctKssdG.s 			page 30


 1250 006e 07        		.byte	0x7
 1251 006f 0000 0000 		.long	.LASF8
 1252 0073 05        		.uleb128 0x5
 1253 0074 0000 0000 		.long	.LASF36
 1254 0078 02        		.byte	0x2
 1255 0079 A6        		.byte	0xa6
 1256 007a 01        		.byte	0x1
 1257 007b 03        		.byte	0x3
 1258 007c AC00 0000 		.long	0xac
 1259 0080 06        		.uleb128 0x6
 1260 0081 0000 0000 		.long	.LASF37
 1261 0085 02        		.byte	0x2
 1262 0086 A6        		.byte	0xa6
 1263 0087 AC00 0000 		.long	0xac
 1264 008b 07        		.uleb128 0x7
 1265 008c 0000 0000 		.long	.LASF9
 1266 0090 02        		.byte	0x2
 1267 0091 A8        		.byte	0xa8
 1268 0092 AC00 0000 		.long	0xac
 1269 0096 07        		.uleb128 0x7
 1270 0097 0000 0000 		.long	.LASF10
 1271 009b 02        		.byte	0x2
 1272 009c AC        		.byte	0xac
 1273 009d 5300 0000 		.long	0x53
 1274 00a1 08        		.uleb128 0x8
 1275 00a2 01        		.byte	0x1
 1276 00a3 0000 0000 		.long	.LASF38
 1277 00a7 02        		.byte	0x2
 1278 00a8 AD        		.byte	0xad
 1279 00a9 01        		.byte	0x1
 1280 00aa 00        		.byte	0
 1281 00ab 00        		.byte	0
 1282 00ac 02        		.uleb128 0x2
 1283 00ad 04        		.byte	0x4
 1284 00ae 04        		.byte	0x4
 1285 00af 0000 0000 		.long	.LASF11
 1286 00b3 09        		.uleb128 0x9
 1287 00b4 01        		.byte	0x1
 1288 00b5 0000 0000 		.long	.LASF12
 1289 00b9 01        		.byte	0x1
 1290 00ba 19        		.byte	0x19
 1291 00bb 01        		.byte	0x1
 1292 00bc 09        		.uleb128 0x9
 1293 00bd 01        		.byte	0x1
 1294 00be 0000 0000 		.long	.LASF13
 1295 00c2 01        		.byte	0x1
 1296 00c3 15        		.byte	0x15
 1297 00c4 01        		.byte	0x1
 1298 00c5 0A        		.uleb128 0xa
 1299 00c6 01        		.byte	0x1
 1300 00c7 0000 0000 		.long	.LASF18
 1301 00cb 01        		.byte	0x1
 1302 00cc 0F        		.byte	0xf
 1303 00cd 0000 0000 		.long	.LFB11
 1304 00d1 0000 0000 		.long	.LFE11
 1305 00d5 03        		.byte	0x3
 1306 00d6 92        		.byte	0x92
GAS LISTING C:\Users\Rando\AppData\Local\Temp\cctKssdG.s 			page 31


 1307 00d7 20        		.uleb128 0x20
 1308 00d8 02        		.sleb128 2
 1309 00d9 01        		.byte	0x1
 1310 00da 1401 0000 		.long	0x114
 1311 00de 0B        		.uleb128 0xb
 1312 00df 7300 0000 		.long	0x73
 1313 00e3 0000 0000 		.long	.LBB44
 1314 00e7 0000 0000 		.long	.LBE44
 1315 00eb 01        		.byte	0x1
 1316 00ec 11        		.byte	0x11
 1317 00ed 0C        		.uleb128 0xc
 1318 00ee 8000 0000 		.long	0x80
 1319 00f2 0000 0000 		.long	.LLST0
 1320 00f6 0D        		.uleb128 0xd
 1321 00f7 0000 0000 		.long	.LBB45
 1322 00fb 0000 0000 		.long	.LBE45
 1323 00ff 0E        		.uleb128 0xe
 1324 0100 8B00 0000 		.long	0x8b
 1325 0104 0000 0000 		.long	.LLST1
 1326 0108 0E        		.uleb128 0xe
 1327 0109 9600 0000 		.long	0x96
 1328 010d 0000 0000 		.long	.LLST2
 1329 0111 00        		.byte	0
 1330 0112 00        		.byte	0
 1331 0113 00        		.byte	0
 1332 0114 0F        		.uleb128 0xf
 1333 0115 BC00 0000 		.long	0xbc
 1334 0119 0000 0000 		.long	.LFB12
 1335 011d 0000 0000 		.long	.LFE12
 1336 0121 03        		.byte	0x3
 1337 0122 92        		.byte	0x92
 1338 0123 20        		.uleb128 0x20
 1339 0124 02        		.sleb128 2
 1340 0125 01        		.byte	0x1
 1341 0126 0F        		.uleb128 0xf
 1342 0127 B300 0000 		.long	0xb3
 1343 012b 0000 0000 		.long	.LFB13
 1344 012f 0000 0000 		.long	.LFE13
 1345 0133 03        		.byte	0x3
 1346 0134 92        		.byte	0x92
 1347 0135 20        		.uleb128 0x20
 1348 0136 02        		.sleb128 2
 1349 0137 01        		.byte	0x1
 1350 0138 10        		.uleb128 0x10
 1351 0139 01        		.byte	0x1
 1352 013a 0000 0000 		.long	.LASF14
 1353 013e 01        		.byte	0x1
 1354 013f 1D        		.byte	0x1d
 1355 0140 01        		.byte	0x1
 1356 0141 0000 0000 		.long	.LFB14
 1357 0145 0000 0000 		.long	.LFE14
 1358 0149 0000 0000 		.long	.LLST3
 1359 014d 01        		.byte	0x1
 1360 014e 9801 0000 		.long	0x198
 1361 0152 11        		.uleb128 0x11
 1362 0153 0000 0000 		.long	.LASF16
 1363 0157 01        		.byte	0x1
GAS LISTING C:\Users\Rando\AppData\Local\Temp\cctKssdG.s 			page 32


 1364 0158 1D        		.byte	0x1d
 1365 0159 3700 0000 		.long	0x37
 1366 015d 0000 0000 		.long	.LLST4
 1367 0161 12        		.uleb128 0x12
 1368 0162 B300 0000 		.long	0xb3
 1369 0166 0000 0000 		.long	.LBB46
 1370 016a 0000 0000 		.long	.LBE46
 1371 016e 01        		.byte	0x1
 1372 016f 1E        		.byte	0x1e
 1373 0170 13        		.uleb128 0x13
 1374 0171 0000 0000 		.long	.LVL3
 1375 0175 F50A 0000 		.long	0xaf5
 1376 0179 14        		.uleb128 0x14
 1377 017a 0000 0000 		.long	.LVL4
 1378 017e 020B 0000 		.long	0xb02
 1379 0182 8D01 0000 		.long	0x18d
 1380 0186 15        		.uleb128 0x15
 1381 0187 01        		.byte	0x1
 1382 0188 68        		.byte	0x68
 1383 0189 02        		.byte	0x2
 1384 018a 8C        		.byte	0x8c
 1385 018b 00        		.sleb128 0
 1386 018c 00        		.byte	0
 1387 018d 16        		.uleb128 0x16
 1388 018e 0000 0000 		.long	.LVL6
 1389 0192 01        		.byte	0x1
 1390 0193 0F0B 0000 		.long	0xb0f
 1391 0197 00        		.byte	0
 1392 0198 10        		.uleb128 0x10
 1393 0199 01        		.byte	0x1
 1394 019a 0000 0000 		.long	.LASF15
 1395 019e 01        		.byte	0x1
 1396 019f 24        		.byte	0x24
 1397 01a0 01        		.byte	0x1
 1398 01a1 0000 0000 		.long	.LFB15
 1399 01a5 0000 0000 		.long	.LFE15
 1400 01a9 0000 0000 		.long	.LLST5
 1401 01ad 01        		.byte	0x1
 1402 01ae F801 0000 		.long	0x1f8
 1403 01b2 11        		.uleb128 0x11
 1404 01b3 0000 0000 		.long	.LASF17
 1405 01b7 01        		.byte	0x1
 1406 01b8 24        		.byte	0x24
 1407 01b9 3700 0000 		.long	0x37
 1408 01bd 0000 0000 		.long	.LLST6
 1409 01c1 12        		.uleb128 0x12
 1410 01c2 BC00 0000 		.long	0xbc
 1411 01c6 0000 0000 		.long	.LBB48
 1412 01ca 0000 0000 		.long	.LBE48
 1413 01ce 01        		.byte	0x1
 1414 01cf 25        		.byte	0x25
 1415 01d0 13        		.uleb128 0x13
 1416 01d1 0000 0000 		.long	.LVL8
 1417 01d5 F50A 0000 		.long	0xaf5
 1418 01d9 14        		.uleb128 0x14
 1419 01da 0000 0000 		.long	.LVL9
 1420 01de 020B 0000 		.long	0xb02
GAS LISTING C:\Users\Rando\AppData\Local\Temp\cctKssdG.s 			page 33


 1421 01e2 ED01 0000 		.long	0x1ed
 1422 01e6 15        		.uleb128 0x15
 1423 01e7 01        		.byte	0x1
 1424 01e8 68        		.byte	0x68
 1425 01e9 02        		.byte	0x2
 1426 01ea 8C        		.byte	0x8c
 1427 01eb 00        		.sleb128 0
 1428 01ec 00        		.byte	0
 1429 01ed 16        		.uleb128 0x16
 1430 01ee 0000 0000 		.long	.LVL11
 1431 01f2 01        		.byte	0x1
 1432 01f3 0F0B 0000 		.long	0xb0f
 1433 01f7 00        		.byte	0
 1434 01f8 17        		.uleb128 0x17
 1435 01f9 01        		.byte	0x1
 1436 01fa 0000 0000 		.long	.LASF19
 1437 01fe 01        		.byte	0x1
 1438 01ff 2B        		.byte	0x2b
 1439 0200 0000 0000 		.long	.LFB16
 1440 0204 0000 0000 		.long	.LFE16
 1441 0208 0000 0000 		.long	.LLST7
 1442 020c 01        		.byte	0x1
 1443 020d 6E03 0000 		.long	0x36e
 1444 0211 18        		.uleb128 0x18
 1445 0212 7300 0000 		.long	0x73
 1446 0216 0000 0000 		.long	.LBB50
 1447 021a 0000 0000 		.long	.LBE50
 1448 021e 01        		.byte	0x1
 1449 021f 2D        		.byte	0x2d
 1450 0220 4A02 0000 		.long	0x24a
 1451 0224 0C        		.uleb128 0xc
 1452 0225 8000 0000 		.long	0x80
 1453 0229 0000 0000 		.long	.LLST8
 1454 022d 0D        		.uleb128 0xd
 1455 022e 0000 0000 		.long	.LBB51
 1456 0232 0000 0000 		.long	.LBE51
 1457 0236 0E        		.uleb128 0xe
 1458 0237 8B00 0000 		.long	0x8b
 1459 023b 0000 0000 		.long	.LLST9
 1460 023f 0E        		.uleb128 0xe
 1461 0240 9600 0000 		.long	0x96
 1462 0244 0000 0000 		.long	.LLST10
 1463 0248 00        		.byte	0
 1464 0249 00        		.byte	0
 1465 024a 19        		.uleb128 0x19
 1466 024b 0000 0000 		.long	.LBB52
 1467 024f 0000 0000 		.long	.LBE52
 1468 0253 7502 0000 		.long	0x275
 1469 0257 1A        		.uleb128 0x1a
 1470 0258 6900      		.string	"i"
 1471 025a 01        		.byte	0x1
 1472 025b 2F        		.byte	0x2f
 1473 025c 3E00 0000 		.long	0x3e
 1474 0260 0000 0000 		.long	.LLST11
 1475 0264 1B        		.uleb128 0x1b
 1476 0265 0000 0000 		.long	.LVL15
 1477 0269 9801 0000 		.long	0x198
GAS LISTING C:\Users\Rando\AppData\Local\Temp\cctKssdG.s 			page 34


 1478 026d 15        		.uleb128 0x15
 1479 026e 01        		.byte	0x1
 1480 026f 68        		.byte	0x68
 1481 0270 02        		.byte	0x2
 1482 0271 09        		.byte	0x9
 1483 0272 FF        		.byte	0xff
 1484 0273 00        		.byte	0
 1485 0274 00        		.byte	0
 1486 0275 18        		.uleb128 0x18
 1487 0276 7300 0000 		.long	0x73
 1488 027a 0000 0000 		.long	.LBB53
 1489 027e 0000 0000 		.long	.LBE53
 1490 0282 01        		.byte	0x1
 1491 0283 32        		.byte	0x32
 1492 0284 AE02 0000 		.long	0x2ae
 1493 0288 0C        		.uleb128 0xc
 1494 0289 8000 0000 		.long	0x80
 1495 028d 0000 0000 		.long	.LLST12
 1496 0291 0D        		.uleb128 0xd
 1497 0292 0000 0000 		.long	.LBB54
 1498 0296 0000 0000 		.long	.LBE54
 1499 029a 0E        		.uleb128 0xe
 1500 029b 8B00 0000 		.long	0x8b
 1501 029f 0000 0000 		.long	.LLST13
 1502 02a3 0E        		.uleb128 0xe
 1503 02a4 9600 0000 		.long	0x96
 1504 02a8 0000 0000 		.long	.LLST14
 1505 02ac 00        		.byte	0
 1506 02ad 00        		.byte	0
 1507 02ae 18        		.uleb128 0x18
 1508 02af 7300 0000 		.long	0x73
 1509 02b3 0000 0000 		.long	.LBB55
 1510 02b7 0000 0000 		.long	.LBE55
 1511 02bb 01        		.byte	0x1
 1512 02bc 35        		.byte	0x35
 1513 02bd E702 0000 		.long	0x2e7
 1514 02c1 0C        		.uleb128 0xc
 1515 02c2 8000 0000 		.long	0x80
 1516 02c6 0000 0000 		.long	.LLST15
 1517 02ca 0D        		.uleb128 0xd
 1518 02cb 0000 0000 		.long	.LBB56
 1519 02cf 0000 0000 		.long	.LBE56
 1520 02d3 0E        		.uleb128 0xe
 1521 02d4 8B00 0000 		.long	0x8b
 1522 02d8 0000 0000 		.long	.LLST16
 1523 02dc 0E        		.uleb128 0xe
 1524 02dd 9600 0000 		.long	0x96
 1525 02e1 0000 0000 		.long	.LLST17
 1526 02e5 00        		.byte	0
 1527 02e6 00        		.byte	0
 1528 02e7 19        		.uleb128 0x19
 1529 02e8 0000 0000 		.long	.LBB57
 1530 02ec 0000 0000 		.long	.LBE57
 1531 02f0 1203 0000 		.long	0x312
 1532 02f4 1A        		.uleb128 0x1a
 1533 02f5 6900      		.string	"i"
 1534 02f7 01        		.byte	0x1
GAS LISTING C:\Users\Rando\AppData\Local\Temp\cctKssdG.s 			page 35


 1535 02f8 37        		.byte	0x37
 1536 02f9 3E00 0000 		.long	0x3e
 1537 02fd 0000 0000 		.long	.LLST18
 1538 0301 1B        		.uleb128 0x1b
 1539 0302 0000 0000 		.long	.LVL22
 1540 0306 9801 0000 		.long	0x198
 1541 030a 15        		.uleb128 0x15
 1542 030b 01        		.byte	0x1
 1543 030c 68        		.byte	0x68
 1544 030d 02        		.byte	0x2
 1545 030e 09        		.byte	0x9
 1546 030f FF        		.byte	0xff
 1547 0310 00        		.byte	0
 1548 0311 00        		.byte	0
 1549 0312 18        		.uleb128 0x18
 1550 0313 7300 0000 		.long	0x73
 1551 0317 0000 0000 		.long	.LBB58
 1552 031b 0000 0000 		.long	.LBE58
 1553 031f 01        		.byte	0x1
 1554 0320 3A        		.byte	0x3a
 1555 0321 4B03 0000 		.long	0x34b
 1556 0325 0C        		.uleb128 0xc
 1557 0326 8000 0000 		.long	0x80
 1558 032a 0000 0000 		.long	.LLST19
 1559 032e 0D        		.uleb128 0xd
 1560 032f 0000 0000 		.long	.LBB59
 1561 0333 0000 0000 		.long	.LBE59
 1562 0337 0E        		.uleb128 0xe
 1563 0338 8B00 0000 		.long	0x8b
 1564 033c 0000 0000 		.long	.LLST20
 1565 0340 0E        		.uleb128 0xe
 1566 0341 9600 0000 		.long	0x96
 1567 0345 0000 0000 		.long	.LLST21
 1568 0349 00        		.byte	0
 1569 034a 00        		.byte	0
 1570 034b 14        		.uleb128 0x14
 1571 034c 0000 0000 		.long	.LVL12
 1572 0350 3801 0000 		.long	0x138
 1573 0354 5E03 0000 		.long	0x35e
 1574 0358 15        		.uleb128 0x15
 1575 0359 01        		.byte	0x1
 1576 035a 68        		.byte	0x68
 1577 035b 01        		.byte	0x1
 1578 035c 40        		.byte	0x40
 1579 035d 00        		.byte	0
 1580 035e 1B        		.uleb128 0x1b
 1581 035f 0000 0000 		.long	.LVL19
 1582 0363 3801 0000 		.long	0x138
 1583 0367 15        		.uleb128 0x15
 1584 0368 01        		.byte	0x1
 1585 0369 68        		.byte	0x68
 1586 036a 01        		.byte	0x1
 1587 036b 43        		.byte	0x43
 1588 036c 00        		.byte	0
 1589 036d 00        		.byte	0
 1590 036e 0A        		.uleb128 0xa
 1591 036f 01        		.byte	0x1
GAS LISTING C:\Users\Rando\AppData\Local\Temp\cctKssdG.s 			page 36


 1592 0370 0000 0000 		.long	.LASF20
 1593 0374 01        		.byte	0x1
 1594 0375 3D        		.byte	0x3d
 1595 0376 0000 0000 		.long	.LFB17
 1596 037a 0000 0000 		.long	.LFE17
 1597 037e 03        		.byte	0x3
 1598 037f 92        		.byte	0x92
 1599 0380 20        		.uleb128 0x20
 1600 0381 02        		.sleb128 2
 1601 0382 01        		.byte	0x1
 1602 0383 0705 0000 		.long	0x507
 1603 0387 18        		.uleb128 0x18
 1604 0388 7300 0000 		.long	0x73
 1605 038c 0000 0000 		.long	.LBB60
 1606 0390 0000 0000 		.long	.LBE60
 1607 0394 01        		.byte	0x1
 1608 0395 4E        		.byte	0x4e
 1609 0396 C003 0000 		.long	0x3c0
 1610 039a 0C        		.uleb128 0xc
 1611 039b 8000 0000 		.long	0x80
 1612 039f 0000 0000 		.long	.LLST22
 1613 03a3 0D        		.uleb128 0xd
 1614 03a4 0000 0000 		.long	.LBB61
 1615 03a8 0000 0000 		.long	.LBE61
 1616 03ac 0E        		.uleb128 0xe
 1617 03ad 8B00 0000 		.long	0x8b
 1618 03b1 0000 0000 		.long	.LLST23
 1619 03b5 0E        		.uleb128 0xe
 1620 03b6 9600 0000 		.long	0x96
 1621 03ba 0000 0000 		.long	.LLST24
 1622 03be 00        		.byte	0
 1623 03bf 00        		.byte	0
 1624 03c0 18        		.uleb128 0x18
 1625 03c1 7300 0000 		.long	0x73
 1626 03c5 0000 0000 		.long	.LBB62
 1627 03c9 0000 0000 		.long	.LBE62
 1628 03cd 01        		.byte	0x1
 1629 03ce 58        		.byte	0x58
 1630 03cf F903 0000 		.long	0x3f9
 1631 03d3 0C        		.uleb128 0xc
 1632 03d4 8000 0000 		.long	0x80
 1633 03d8 0000 0000 		.long	.LLST25
 1634 03dc 0D        		.uleb128 0xd
 1635 03dd 0000 0000 		.long	.LBB63
 1636 03e1 0000 0000 		.long	.LBE63
 1637 03e5 0E        		.uleb128 0xe
 1638 03e6 8B00 0000 		.long	0x8b
 1639 03ea 0000 0000 		.long	.LLST26
 1640 03ee 0E        		.uleb128 0xe
 1641 03ef 9600 0000 		.long	0x96
 1642 03f3 0000 0000 		.long	.LLST27
 1643 03f7 00        		.byte	0
 1644 03f8 00        		.byte	0
 1645 03f9 14        		.uleb128 0x14
 1646 03fa 0000 0000 		.long	.LVL27
 1647 03fe 3801 0000 		.long	0x138
 1648 0402 0C04 0000 		.long	0x40c
GAS LISTING C:\Users\Rando\AppData\Local\Temp\cctKssdG.s 			page 37


 1649 0406 15        		.uleb128 0x15
 1650 0407 01        		.byte	0x1
 1651 0408 68        		.byte	0x68
 1652 0409 01        		.byte	0x1
 1653 040a 36        		.byte	0x36
 1654 040b 00        		.byte	0
 1655 040c 14        		.uleb128 0x14
 1656 040d 0000 0000 		.long	.LVL28
 1657 0411 9801 0000 		.long	0x198
 1658 0415 1F04 0000 		.long	0x41f
 1659 0419 15        		.uleb128 0x15
 1660 041a 01        		.byte	0x1
 1661 041b 68        		.byte	0x68
 1662 041c 01        		.byte	0x1
 1663 041d 47        		.byte	0x47
 1664 041e 00        		.byte	0
 1665 041f 14        		.uleb128 0x14
 1666 0420 0000 0000 		.long	.LVL29
 1667 0424 9801 0000 		.long	0x198
 1668 0428 3204 0000 		.long	0x432
 1669 042c 15        		.uleb128 0x15
 1670 042d 01        		.byte	0x1
 1671 042e 68        		.byte	0x68
 1672 042f 01        		.byte	0x1
 1673 0430 47        		.byte	0x47
 1674 0431 00        		.byte	0
 1675 0432 14        		.uleb128 0x14
 1676 0433 0000 0000 		.long	.LVL30
 1677 0437 9801 0000 		.long	0x198
 1678 043b 4504 0000 		.long	0x445
 1679 043f 15        		.uleb128 0x15
 1680 0440 01        		.byte	0x1
 1681 0441 68        		.byte	0x68
 1682 0442 01        		.byte	0x1
 1683 0443 47        		.byte	0x47
 1684 0444 00        		.byte	0
 1685 0445 14        		.uleb128 0x14
 1686 0446 0000 0000 		.long	.LVL31
 1687 044a 3801 0000 		.long	0x138
 1688 044e 5804 0000 		.long	0x458
 1689 0452 15        		.uleb128 0x15
 1690 0453 01        		.byte	0x1
 1691 0454 68        		.byte	0x68
 1692 0455 01        		.byte	0x1
 1693 0456 34        		.byte	0x34
 1694 0457 00        		.byte	0
 1695 0458 14        		.uleb128 0x14
 1696 0459 0000 0000 		.long	.LVL33
 1697 045d 3801 0000 		.long	0x138
 1698 0461 6B04 0000 		.long	0x46b
 1699 0465 15        		.uleb128 0x15
 1700 0466 01        		.byte	0x1
 1701 0467 68        		.byte	0x68
 1702 0468 01        		.byte	0x1
 1703 0469 30        		.byte	0x30
 1704 046a 00        		.byte	0
 1705 046b 14        		.uleb128 0x14
GAS LISTING C:\Users\Rando\AppData\Local\Temp\cctKssdG.s 			page 38


 1706 046c 0000 0000 		.long	.LVL34
 1707 0470 9801 0000 		.long	0x198
 1708 0474 7F04 0000 		.long	0x47f
 1709 0478 15        		.uleb128 0x15
 1710 0479 01        		.byte	0x1
 1711 047a 68        		.byte	0x68
 1712 047b 02        		.byte	0x2
 1713 047c 09        		.byte	0x9
 1714 047d 8F        		.byte	0x8f
 1715 047e 00        		.byte	0
 1716 047f 14        		.uleb128 0x14
 1717 0480 0000 0000 		.long	.LVL35
 1718 0484 9801 0000 		.long	0x198
 1719 0488 9304 0000 		.long	0x493
 1720 048c 15        		.uleb128 0x15
 1721 048d 01        		.byte	0x1
 1722 048e 68        		.byte	0x68
 1723 048f 02        		.byte	0x2
 1724 0490 09        		.byte	0x9
 1725 0491 8F        		.byte	0x8f
 1726 0492 00        		.byte	0
 1727 0493 14        		.uleb128 0x14
 1728 0494 0000 0000 		.long	.LVL36
 1729 0498 3801 0000 		.long	0x138
 1730 049c A704 0000 		.long	0x4a7
 1731 04a0 15        		.uleb128 0x15
 1732 04a1 01        		.byte	0x1
 1733 04a2 68        		.byte	0x68
 1734 04a3 02        		.byte	0x2
 1735 04a4 08        		.byte	0x8
 1736 04a5 50        		.byte	0x50
 1737 04a6 00        		.byte	0
 1738 04a7 14        		.uleb128 0x14
 1739 04a8 0000 0000 		.long	.LVL37
 1740 04ac 9801 0000 		.long	0x198
 1741 04b0 BB04 0000 		.long	0x4bb
 1742 04b4 15        		.uleb128 0x15
 1743 04b5 01        		.byte	0x1
 1744 04b6 68        		.byte	0x68
 1745 04b7 02        		.byte	0x2
 1746 04b8 08        		.byte	0x8
 1747 04b9 37        		.byte	0x37
 1748 04ba 00        		.byte	0
 1749 04bb 14        		.uleb128 0x14
 1750 04bc 0000 0000 		.long	.LVL38
 1751 04c0 3801 0000 		.long	0x138
 1752 04c4 CF04 0000 		.long	0x4cf
 1753 04c8 15        		.uleb128 0x15
 1754 04c9 01        		.byte	0x1
 1755 04ca 68        		.byte	0x68
 1756 04cb 02        		.byte	0x2
 1757 04cc 08        		.byte	0x8
 1758 04cd 61        		.byte	0x61
 1759 04ce 00        		.byte	0
 1760 04cf 14        		.uleb128 0x14
 1761 04d0 0000 0000 		.long	.LVL39
 1762 04d4 9801 0000 		.long	0x198
GAS LISTING C:\Users\Rando\AppData\Local\Temp\cctKssdG.s 			page 39


 1763 04d8 E304 0000 		.long	0x4e3
 1764 04dc 15        		.uleb128 0x15
 1765 04dd 01        		.byte	0x1
 1766 04de 68        		.byte	0x68
 1767 04df 02        		.byte	0x2
 1768 04e0 08        		.byte	0x8
 1769 04e1 68        		.byte	0x68
 1770 04e2 00        		.byte	0
 1771 04e3 14        		.uleb128 0x14
 1772 04e4 0000 0000 		.long	.LVL40
 1773 04e8 9801 0000 		.long	0x198
 1774 04ec F604 0000 		.long	0x4f6
 1775 04f0 15        		.uleb128 0x15
 1776 04f1 01        		.byte	0x1
 1777 04f2 68        		.byte	0x68
 1778 04f3 01        		.byte	0x1
 1779 04f4 30        		.byte	0x30
 1780 04f5 00        		.byte	0
 1781 04f6 1B        		.uleb128 0x1b
 1782 04f7 0000 0000 		.long	.LVL41
 1783 04fb 9801 0000 		.long	0x198
 1784 04ff 15        		.uleb128 0x15
 1785 0500 01        		.byte	0x1
 1786 0501 68        		.byte	0x68
 1787 0502 02        		.byte	0x2
 1788 0503 09        		.byte	0x9
 1789 0504 D4        		.byte	0xd4
 1790 0505 00        		.byte	0
 1791 0506 00        		.byte	0
 1792 0507 10        		.uleb128 0x10
 1793 0508 01        		.byte	0x1
 1794 0509 0000 0000 		.long	.LASF21
 1795 050d 01        		.byte	0x1
 1796 050e 5C        		.byte	0x5c
 1797 050f 01        		.byte	0x1
 1798 0510 0000 0000 		.long	.LFB18
 1799 0514 0000 0000 		.long	.LFE18
 1800 0518 0000 0000 		.long	.LLST28
 1801 051c 01        		.byte	0x1
 1802 051d 8E06 0000 		.long	0x68e
 1803 0521 11        		.uleb128 0x11
 1804 0522 0000 0000 		.long	.LASF22
 1805 0526 01        		.byte	0x1
 1806 0527 5C        		.byte	0x5c
 1807 0528 8E06 0000 		.long	0x68e
 1808 052c 0000 0000 		.long	.LLST29
 1809 0530 11        		.uleb128 0x11
 1810 0531 0000 0000 		.long	.LASF23
 1811 0535 01        		.byte	0x1
 1812 0536 5C        		.byte	0x5c
 1813 0537 8E06 0000 		.long	0x68e
 1814 053b 0000 0000 		.long	.LLST30
 1815 053f 18        		.uleb128 0x18
 1816 0540 7300 0000 		.long	0x73
 1817 0544 0000 0000 		.long	.LBB64
 1818 0548 0000 0000 		.long	.LBE64
 1819 054c 01        		.byte	0x1
GAS LISTING C:\Users\Rando\AppData\Local\Temp\cctKssdG.s 			page 40


 1820 054d 5F        		.byte	0x5f
 1821 054e 7805 0000 		.long	0x578
 1822 0552 0C        		.uleb128 0xc
 1823 0553 8000 0000 		.long	0x80
 1824 0557 0000 0000 		.long	.LLST31
 1825 055b 0D        		.uleb128 0xd
 1826 055c 0000 0000 		.long	.LBB65
 1827 0560 0000 0000 		.long	.LBE65
 1828 0564 0E        		.uleb128 0xe
 1829 0565 8B00 0000 		.long	0x8b
 1830 0569 0000 0000 		.long	.LLST32
 1831 056d 0E        		.uleb128 0xe
 1832 056e 9600 0000 		.long	0x96
 1833 0572 0000 0000 		.long	.LLST33
 1834 0576 00        		.byte	0
 1835 0577 00        		.byte	0
 1836 0578 19        		.uleb128 0x19
 1837 0579 0000 0000 		.long	.LBB66
 1838 057d 0000 0000 		.long	.LBE66
 1839 0581 9C05 0000 		.long	0x59c
 1840 0585 1A        		.uleb128 0x1a
 1841 0586 6900      		.string	"i"
 1842 0588 01        		.byte	0x1
 1843 0589 61        		.byte	0x61
 1844 058a 3E00 0000 		.long	0x3e
 1845 058e 0000 0000 		.long	.LLST34
 1846 0592 13        		.uleb128 0x13
 1847 0593 0000 0000 		.long	.LVL48
 1848 0597 9801 0000 		.long	0x198
 1849 059b 00        		.byte	0
 1850 059c 18        		.uleb128 0x18
 1851 059d 7300 0000 		.long	0x73
 1852 05a1 0000 0000 		.long	.LBB67
 1853 05a5 0000 0000 		.long	.LBE67
 1854 05a9 01        		.byte	0x1
 1855 05aa 65        		.byte	0x65
 1856 05ab D505 0000 		.long	0x5d5
 1857 05af 0C        		.uleb128 0xc
 1858 05b0 8000 0000 		.long	0x80
 1859 05b4 0000 0000 		.long	.LLST35
 1860 05b8 0D        		.uleb128 0xd
 1861 05b9 0000 0000 		.long	.LBB68
 1862 05bd 0000 0000 		.long	.LBE68
 1863 05c1 0E        		.uleb128 0xe
 1864 05c2 8B00 0000 		.long	0x8b
 1865 05c6 0000 0000 		.long	.LLST36
 1866 05ca 0E        		.uleb128 0xe
 1867 05cb 9600 0000 		.long	0x96
 1868 05cf 0000 0000 		.long	.LLST37
 1869 05d3 00        		.byte	0
 1870 05d4 00        		.byte	0
 1871 05d5 18        		.uleb128 0x18
 1872 05d6 7300 0000 		.long	0x73
 1873 05da 0000 0000 		.long	.LBB69
 1874 05de 0000 0000 		.long	.LBE69
 1875 05e2 01        		.byte	0x1
 1876 05e3 69        		.byte	0x69
GAS LISTING C:\Users\Rando\AppData\Local\Temp\cctKssdG.s 			page 41


 1877 05e4 0E06 0000 		.long	0x60e
 1878 05e8 0C        		.uleb128 0xc
 1879 05e9 8000 0000 		.long	0x80
 1880 05ed 0000 0000 		.long	.LLST38
 1881 05f1 0D        		.uleb128 0xd
 1882 05f2 0000 0000 		.long	.LBB70
 1883 05f6 0000 0000 		.long	.LBE70
 1884 05fa 0E        		.uleb128 0xe
 1885 05fb 8B00 0000 		.long	0x8b
 1886 05ff 0000 0000 		.long	.LLST39
 1887 0603 0E        		.uleb128 0xe
 1888 0604 9600 0000 		.long	0x96
 1889 0608 0000 0000 		.long	.LLST40
 1890 060c 00        		.byte	0
 1891 060d 00        		.byte	0
 1892 060e 19        		.uleb128 0x19
 1893 060f 0000 0000 		.long	.LBB71
 1894 0613 0000 0000 		.long	.LBE71
 1895 0617 3206 0000 		.long	0x632
 1896 061b 1A        		.uleb128 0x1a
 1897 061c 6900      		.string	"i"
 1898 061e 01        		.byte	0x1
 1899 061f 6B        		.byte	0x6b
 1900 0620 3E00 0000 		.long	0x3e
 1901 0624 0000 0000 		.long	.LLST41
 1902 0628 13        		.uleb128 0x13
 1903 0629 0000 0000 		.long	.LVL55
 1904 062d 9801 0000 		.long	0x198
 1905 0631 00        		.byte	0
 1906 0632 18        		.uleb128 0x18
 1907 0633 7300 0000 		.long	0x73
 1908 0637 0000 0000 		.long	.LBB72
 1909 063b 0000 0000 		.long	.LBE72
 1910 063f 01        		.byte	0x1
 1911 0640 6E        		.byte	0x6e
 1912 0641 6B06 0000 		.long	0x66b
 1913 0645 0C        		.uleb128 0xc
 1914 0646 8000 0000 		.long	0x80
 1915 064a 0000 0000 		.long	.LLST42
 1916 064e 0D        		.uleb128 0xd
 1917 064f 0000 0000 		.long	.LBB73
 1918 0653 0000 0000 		.long	.LBE73
 1919 0657 0E        		.uleb128 0xe
 1920 0658 8B00 0000 		.long	0x8b
 1921 065c 0000 0000 		.long	.LLST43
 1922 0660 0E        		.uleb128 0xe
 1923 0661 9600 0000 		.long	0x96
 1924 0665 0000 0000 		.long	.LLST44
 1925 0669 00        		.byte	0
 1926 066a 00        		.byte	0
 1927 066b 14        		.uleb128 0x14
 1928 066c 0000 0000 		.long	.LVL45
 1929 0670 3801 0000 		.long	0x138
 1930 0674 7E06 0000 		.long	0x67e
 1931 0678 15        		.uleb128 0x15
 1932 0679 01        		.byte	0x1
 1933 067a 68        		.byte	0x68
GAS LISTING C:\Users\Rando\AppData\Local\Temp\cctKssdG.s 			page 42


 1934 067b 01        		.byte	0x1
 1935 067c 40        		.byte	0x40
 1936 067d 00        		.byte	0
 1937 067e 1B        		.uleb128 0x1b
 1938 067f 0000 0000 		.long	.LVL52
 1939 0683 3801 0000 		.long	0x138
 1940 0687 15        		.uleb128 0x15
 1941 0688 01        		.byte	0x1
 1942 0689 68        		.byte	0x68
 1943 068a 01        		.byte	0x1
 1944 068b 43        		.byte	0x43
 1945 068c 00        		.byte	0
 1946 068d 00        		.byte	0
 1947 068e 1C        		.uleb128 0x1c
 1948 068f 02        		.byte	0x2
 1949 0690 3700 0000 		.long	0x37
 1950 0694 1D        		.uleb128 0x1d
 1951 0695 01        		.byte	0x1
 1952 0696 0000 0000 		.long	.LASF24
 1953 069a 01        		.byte	0x1
 1954 069b 73        		.byte	0x73
 1955 069c 01        		.byte	0x1
 1956 069d 0000 0000 		.long	.LFB19
 1957 06a1 0000 0000 		.long	.LFE19
 1958 06a5 03        		.byte	0x3
 1959 06a6 92        		.byte	0x92
 1960 06a7 20        		.uleb128 0x20
 1961 06a8 02        		.sleb128 2
 1962 06a9 01        		.byte	0x1
 1963 06aa EA06 0000 		.long	0x6ea
 1964 06ae 11        		.uleb128 0x11
 1965 06af 0000 0000 		.long	.LASF25
 1966 06b3 01        		.byte	0x1
 1967 06b4 73        		.byte	0x73
 1968 06b5 8E06 0000 		.long	0x68e
 1969 06b9 0000 0000 		.long	.LLST45
 1970 06bd 1E        		.uleb128 0x1e
 1971 06be 7800      		.string	"x"
 1972 06c0 01        		.byte	0x1
 1973 06c1 73        		.byte	0x73
 1974 06c2 3E00 0000 		.long	0x3e
 1975 06c6 0000 0000 		.long	.LLST46
 1976 06ca 1F        		.uleb128 0x1f
 1977 06cb 7900      		.string	"y"
 1978 06cd 01        		.byte	0x1
 1979 06ce 73        		.byte	0x73
 1980 06cf 3E00 0000 		.long	0x3e
 1981 06d3 06        		.byte	0x6
 1982 06d4 64        		.byte	0x64
 1983 06d5 93        		.byte	0x93
 1984 06d6 01        		.uleb128 0x1
 1985 06d7 65        		.byte	0x65
 1986 06d8 93        		.byte	0x93
 1987 06d9 01        		.uleb128 0x1
 1988 06da 11        		.uleb128 0x11
 1989 06db 0000 0000 		.long	.LASF26
 1990 06df 01        		.byte	0x1
GAS LISTING C:\Users\Rando\AppData\Local\Temp\cctKssdG.s 			page 43


 1991 06e0 73        		.byte	0x73
 1992 06e1 3E00 0000 		.long	0x3e
 1993 06e5 0000 0000 		.long	.LLST47
 1994 06e9 00        		.byte	0
 1995 06ea 10        		.uleb128 0x10
 1996 06eb 01        		.byte	0x1
 1997 06ec 0000 0000 		.long	.LASF27
 1998 06f0 01        		.byte	0x1
 1999 06f1 87        		.byte	0x87
 2000 06f2 01        		.byte	0x1
 2001 06f3 0000 0000 		.long	.LFB20
 2002 06f7 0000 0000 		.long	.LFE20
 2003 06fb 0000 0000 		.long	.LLST48
 2004 06ff 01        		.byte	0x1
 2005 0700 DC08 0000 		.long	0x8dc
 2006 0704 11        		.uleb128 0x11
 2007 0705 0000 0000 		.long	.LASF28
 2008 0709 01        		.byte	0x1
 2009 070a 87        		.byte	0x87
 2010 070b 8E06 0000 		.long	0x68e
 2011 070f 0000 0000 		.long	.LLST49
 2012 0713 1E        		.uleb128 0x1e
 2013 0714 7800      		.string	"x"
 2014 0716 01        		.byte	0x1
 2015 0717 87        		.byte	0x87
 2016 0718 3E00 0000 		.long	0x3e
 2017 071c 0000 0000 		.long	.LLST50
 2018 0720 1E        		.uleb128 0x1e
 2019 0721 7900      		.string	"y"
 2020 0723 01        		.byte	0x1
 2021 0724 87        		.byte	0x87
 2022 0725 3E00 0000 		.long	0x3e
 2023 0729 0000 0000 		.long	.LLST51
 2024 072d 1E        		.uleb128 0x1e
 2025 072e 7700      		.string	"w"
 2026 0730 01        		.byte	0x1
 2027 0731 87        		.byte	0x87
 2028 0732 3E00 0000 		.long	0x3e
 2029 0736 0000 0000 		.long	.LLST52
 2030 073a 1E        		.uleb128 0x1e
 2031 073b 6C00      		.string	"l"
 2032 073d 01        		.byte	0x1
 2033 073e 87        		.byte	0x87
 2034 073f 3E00 0000 		.long	0x3e
 2035 0743 0000 0000 		.long	.LLST53
 2036 0747 18        		.uleb128 0x18
 2037 0748 7300 0000 		.long	0x73
 2038 074c 0000 0000 		.long	.LBB74
 2039 0750 0000 0000 		.long	.LBE74
 2040 0754 01        		.byte	0x1
 2041 0755 93        		.byte	0x93
 2042 0756 8007 0000 		.long	0x780
 2043 075a 0C        		.uleb128 0xc
 2044 075b 8000 0000 		.long	0x80
 2045 075f 0000 0000 		.long	.LLST54
 2046 0763 0D        		.uleb128 0xd
 2047 0764 0000 0000 		.long	.LBB75
GAS LISTING C:\Users\Rando\AppData\Local\Temp\cctKssdG.s 			page 44


 2048 0768 0000 0000 		.long	.LBE75
 2049 076c 0E        		.uleb128 0xe
 2050 076d 8B00 0000 		.long	0x8b
 2051 0771 0000 0000 		.long	.LLST55
 2052 0775 0E        		.uleb128 0xe
 2053 0776 9600 0000 		.long	0x96
 2054 077a 0000 0000 		.long	.LLST56
 2055 077e 00        		.byte	0
 2056 077f 00        		.byte	0
 2057 0780 20        		.uleb128 0x20
 2058 0781 0000 0000 		.long	.Ldebug_ranges0+0
 2059 0785 A007 0000 		.long	0x7a0
 2060 0789 1A        		.uleb128 0x1a
 2061 078a 6900      		.string	"i"
 2062 078c 01        		.byte	0x1
 2063 078d 96        		.byte	0x96
 2064 078e 3E00 0000 		.long	0x3e
 2065 0792 0000 0000 		.long	.LLST57
 2066 0796 13        		.uleb128 0x13
 2067 0797 0000 0000 		.long	.LVL84
 2068 079b 9801 0000 		.long	0x198
 2069 079f 00        		.byte	0
 2070 07a0 18        		.uleb128 0x18
 2071 07a1 7300 0000 		.long	0x73
 2072 07a5 0000 0000 		.long	.LBB78
 2073 07a9 0000 0000 		.long	.LBE78
 2074 07ad 01        		.byte	0x1
 2075 07ae 9E        		.byte	0x9e
 2076 07af D907 0000 		.long	0x7d9
 2077 07b3 0C        		.uleb128 0xc
 2078 07b4 8000 0000 		.long	0x80
 2079 07b8 0000 0000 		.long	.LLST58
 2080 07bc 0D        		.uleb128 0xd
 2081 07bd 0000 0000 		.long	.LBB79
 2082 07c1 0000 0000 		.long	.LBE79
 2083 07c5 0E        		.uleb128 0xe
 2084 07c6 8B00 0000 		.long	0x8b
 2085 07ca 0000 0000 		.long	.LLST59
 2086 07ce 0E        		.uleb128 0xe
 2087 07cf 9600 0000 		.long	0x96
 2088 07d3 0000 0000 		.long	.LLST60
 2089 07d7 00        		.byte	0
 2090 07d8 00        		.byte	0
 2091 07d9 19        		.uleb128 0x19
 2092 07da 0000 0000 		.long	.LBB81
 2093 07de 0000 0000 		.long	.LBE81
 2094 07e2 0308 0000 		.long	0x803
 2095 07e6 1A        		.uleb128 0x1a
 2096 07e7 6900      		.string	"i"
 2097 07e9 01        		.byte	0x1
 2098 07ea 9A        		.byte	0x9a
 2099 07eb 3E00 0000 		.long	0x3e
 2100 07ef 0000 0000 		.long	.LLST61
 2101 07f3 1B        		.uleb128 0x1b
 2102 07f4 0000 0000 		.long	.LVL92
 2103 07f8 9801 0000 		.long	0x198
 2104 07fc 15        		.uleb128 0x15
GAS LISTING C:\Users\Rando\AppData\Local\Temp\cctKssdG.s 			page 45


 2105 07fd 01        		.byte	0x1
 2106 07fe 68        		.byte	0x68
 2107 07ff 01        		.byte	0x1
 2108 0800 30        		.byte	0x30
 2109 0801 00        		.byte	0
 2110 0802 00        		.byte	0
 2111 0803 14        		.uleb128 0x14
 2112 0804 0000 0000 		.long	.LVL69
 2113 0808 3801 0000 		.long	0x138
 2114 080c 1708 0000 		.long	0x817
 2115 0810 15        		.uleb128 0x15
 2116 0811 01        		.byte	0x1
 2117 0812 68        		.byte	0x68
 2118 0813 02        		.byte	0x2
 2119 0814 09        		.byte	0x9
 2120 0815 91        		.byte	0x91
 2121 0816 00        		.byte	0
 2122 0817 14        		.uleb128 0x14
 2123 0818 0000 0000 		.long	.LVL70
 2124 081c 3801 0000 		.long	0x138
 2125 0820 2B08 0000 		.long	0x82b
 2126 0824 15        		.uleb128 0x15
 2127 0825 01        		.byte	0x1
 2128 0826 68        		.byte	0x68
 2129 0827 02        		.byte	0x2
 2130 0828 09        		.byte	0x9
 2131 0829 90        		.byte	0x90
 2132 082a 00        		.byte	0
 2133 082b 14        		.uleb128 0x14
 2134 082c 0000 0000 		.long	.LVL71
 2135 0830 9801 0000 		.long	0x198
 2136 0834 3F08 0000 		.long	0x83f
 2137 0838 15        		.uleb128 0x15
 2138 0839 01        		.byte	0x1
 2139 083a 68        		.byte	0x68
 2140 083b 02        		.byte	0x2
 2141 083c 81        		.byte	0x81
 2142 083d 00        		.sleb128 0
 2143 083e 00        		.byte	0
 2144 083f 14        		.uleb128 0x14
 2145 0840 0000 0000 		.long	.LVL72
 2146 0844 9801 0000 		.long	0x198
 2147 0848 5A08 0000 		.long	0x85a
 2148 084c 15        		.uleb128 0x15
 2149 084d 01        		.byte	0x1
 2150 084e 68        		.byte	0x68
 2151 084f 09        		.byte	0x9
 2152 0850 7E        		.byte	0x7e
 2153 0851 00        		.sleb128 0
 2154 0852 81        		.byte	0x81
 2155 0853 00        		.sleb128 0
 2156 0854 22        		.byte	0x22
 2157 0855 31        		.byte	0x31
 2158 0856 1C        		.byte	0x1c
 2159 0857 37        		.byte	0x37
 2160 0858 21        		.byte	0x21
 2161 0859 00        		.byte	0
GAS LISTING C:\Users\Rando\AppData\Local\Temp\cctKssdG.s 			page 46


 2162 085a 14        		.uleb128 0x14
 2163 085b 0000 0000 		.long	.LVL73
 2164 085f 9801 0000 		.long	0x198
 2165 0863 6E08 0000 		.long	0x86e
 2166 0867 15        		.uleb128 0x15
 2167 0868 01        		.byte	0x1
 2168 0869 68        		.byte	0x68
 2169 086a 02        		.byte	0x2
 2170 086b 7B        		.byte	0x7b
 2171 086c 00        		.sleb128 0
 2172 086d 00        		.byte	0
 2173 086e 14        		.uleb128 0x14
 2174 086f 0000 0000 		.long	.LVL74
 2175 0873 9801 0000 		.long	0x198
 2176 0877 8208 0000 		.long	0x882
 2177 087b 15        		.uleb128 0x15
 2178 087c 01        		.byte	0x1
 2179 087d 68        		.byte	0x68
 2180 087e 02        		.byte	0x2
 2181 087f 7A        		.byte	0x7a
 2182 0880 00        		.sleb128 0
 2183 0881 00        		.byte	0
 2184 0882 13        		.uleb128 0x13
 2185 0883 0000 0000 		.long	.LVL75
 2186 0887 9801 0000 		.long	0x198
 2187 088b 14        		.uleb128 0x14
 2188 088c 0000 0000 		.long	.LVL76
 2189 0890 9801 0000 		.long	0x198
 2190 0894 A408 0000 		.long	0x8a4
 2191 0898 15        		.uleb128 0x15
 2192 0899 01        		.byte	0x1
 2193 089a 68        		.byte	0x68
 2194 089b 07        		.byte	0x7
 2195 089c 7A        		.byte	0x7a
 2196 089d 00        		.sleb128 0
 2197 089e 7C        		.byte	0x7c
 2198 089f 00        		.sleb128 0
 2199 08a0 22        		.byte	0x22
 2200 08a1 31        		.byte	0x31
 2201 08a2 1C        		.byte	0x1c
 2202 08a3 00        		.byte	0
 2203 08a4 14        		.uleb128 0x14
 2204 08a5 0000 0000 		.long	.LVL77
 2205 08a9 9801 0000 		.long	0x198
 2206 08ad B708 0000 		.long	0x8b7
 2207 08b1 15        		.uleb128 0x15
 2208 08b2 01        		.byte	0x1
 2209 08b3 68        		.byte	0x68
 2210 08b4 01        		.byte	0x1
 2211 08b5 31        		.byte	0x31
 2212 08b6 00        		.byte	0
 2213 08b7 14        		.uleb128 0x14
 2214 08b8 0000 0000 		.long	.LVL79
 2215 08bc 3801 0000 		.long	0x138
 2216 08c0 CA08 0000 		.long	0x8ca
 2217 08c4 15        		.uleb128 0x15
 2218 08c5 01        		.byte	0x1
GAS LISTING C:\Users\Rando\AppData\Local\Temp\cctKssdG.s 			page 47


 2219 08c6 68        		.byte	0x68
 2220 08c7 01        		.byte	0x1
 2221 08c8 40        		.byte	0x40
 2222 08c9 00        		.byte	0
 2223 08ca 21        		.uleb128 0x21
 2224 08cb 0000 0000 		.long	.LVL89
 2225 08cf 01        		.byte	0x1
 2226 08d0 3801 0000 		.long	0x138
 2227 08d4 15        		.uleb128 0x15
 2228 08d5 01        		.byte	0x1
 2229 08d6 68        		.byte	0x68
 2230 08d7 02        		.byte	0x2
 2231 08d8 09        		.byte	0x9
 2232 08d9 92        		.byte	0x92
 2233 08da 00        		.byte	0
 2234 08db 00        		.byte	0
 2235 08dc 10        		.uleb128 0x10
 2236 08dd 01        		.byte	0x1
 2237 08de 0000 0000 		.long	.LASF29
 2238 08e2 01        		.byte	0x1
 2239 08e3 A2        		.byte	0xa2
 2240 08e4 01        		.byte	0x1
 2241 08e5 0000 0000 		.long	.LFB21
 2242 08e9 0000 0000 		.long	.LFE21
 2243 08ed 0000 0000 		.long	.LLST62
 2244 08f1 01        		.byte	0x1
 2245 08f2 CE0A 0000 		.long	0xace
 2246 08f6 11        		.uleb128 0x11
 2247 08f7 0000 0000 		.long	.LASF28
 2248 08fb 01        		.byte	0x1
 2249 08fc A2        		.byte	0xa2
 2250 08fd 8E06 0000 		.long	0x68e
 2251 0901 0000 0000 		.long	.LLST63
 2252 0905 1E        		.uleb128 0x1e
 2253 0906 7800      		.string	"x"
 2254 0908 01        		.byte	0x1
 2255 0909 A2        		.byte	0xa2
 2256 090a 3E00 0000 		.long	0x3e
 2257 090e 0000 0000 		.long	.LLST64
 2258 0912 1E        		.uleb128 0x1e
 2259 0913 7900      		.string	"y"
 2260 0915 01        		.byte	0x1
 2261 0916 A2        		.byte	0xa2
 2262 0917 3E00 0000 		.long	0x3e
 2263 091b 0000 0000 		.long	.LLST65
 2264 091f 1E        		.uleb128 0x1e
 2265 0920 7700      		.string	"w"
 2266 0922 01        		.byte	0x1
 2267 0923 A2        		.byte	0xa2
 2268 0924 3E00 0000 		.long	0x3e
 2269 0928 0000 0000 		.long	.LLST66
 2270 092c 1E        		.uleb128 0x1e
 2271 092d 6C00      		.string	"l"
 2272 092f 01        		.byte	0x1
 2273 0930 A2        		.byte	0xa2
 2274 0931 3E00 0000 		.long	0x3e
 2275 0935 0000 0000 		.long	.LLST67
GAS LISTING C:\Users\Rando\AppData\Local\Temp\cctKssdG.s 			page 48


 2276 0939 18        		.uleb128 0x18
 2277 093a 7300 0000 		.long	0x73
 2278 093e 0000 0000 		.long	.LBB82
 2279 0942 0000 0000 		.long	.LBE82
 2280 0946 01        		.byte	0x1
 2281 0947 AE        		.byte	0xae
 2282 0948 7209 0000 		.long	0x972
 2283 094c 0C        		.uleb128 0xc
 2284 094d 8000 0000 		.long	0x80
 2285 0951 0000 0000 		.long	.LLST68
 2286 0955 0D        		.uleb128 0xd
 2287 0956 0000 0000 		.long	.LBB83
 2288 095a 0000 0000 		.long	.LBE83
 2289 095e 0E        		.uleb128 0xe
 2290 095f 8B00 0000 		.long	0x8b
 2291 0963 0000 0000 		.long	.LLST69
 2292 0967 0E        		.uleb128 0xe
 2293 0968 9600 0000 		.long	0x96
 2294 096c 0000 0000 		.long	.LLST70
 2295 0970 00        		.byte	0
 2296 0971 00        		.byte	0
 2297 0972 20        		.uleb128 0x20
 2298 0973 0000 0000 		.long	.Ldebug_ranges0+0x20
 2299 0977 9209 0000 		.long	0x992
 2300 097b 1A        		.uleb128 0x1a
 2301 097c 6900      		.string	"i"
 2302 097e 01        		.byte	0x1
 2303 097f B1        		.byte	0xb1
 2304 0980 3E00 0000 		.long	0x3e
 2305 0984 0000 0000 		.long	.LLST71
 2306 0988 13        		.uleb128 0x13
 2307 0989 0000 0000 		.long	.LVL112
 2308 098d 9801 0000 		.long	0x198
 2309 0991 00        		.byte	0
 2310 0992 18        		.uleb128 0x18
 2311 0993 7300 0000 		.long	0x73
 2312 0997 0000 0000 		.long	.LBB86
 2313 099b 0000 0000 		.long	.LBE86
 2314 099f 01        		.byte	0x1
 2315 09a0 B9        		.byte	0xb9
 2316 09a1 CB09 0000 		.long	0x9cb
 2317 09a5 0C        		.uleb128 0xc
 2318 09a6 8000 0000 		.long	0x80
 2319 09aa 0000 0000 		.long	.LLST72
 2320 09ae 0D        		.uleb128 0xd
 2321 09af 0000 0000 		.long	.LBB87
 2322 09b3 0000 0000 		.long	.LBE87
 2323 09b7 0E        		.uleb128 0xe
 2324 09b8 8B00 0000 		.long	0x8b
 2325 09bc 0000 0000 		.long	.LLST73
 2326 09c0 0E        		.uleb128 0xe
 2327 09c1 9600 0000 		.long	0x96
 2328 09c5 0000 0000 		.long	.LLST74
 2329 09c9 00        		.byte	0
 2330 09ca 00        		.byte	0
 2331 09cb 19        		.uleb128 0x19
 2332 09cc 0000 0000 		.long	.LBB89
GAS LISTING C:\Users\Rando\AppData\Local\Temp\cctKssdG.s 			page 49


 2333 09d0 0000 0000 		.long	.LBE89
 2334 09d4 F509 0000 		.long	0x9f5
 2335 09d8 1A        		.uleb128 0x1a
 2336 09d9 6900      		.string	"i"
 2337 09db 01        		.byte	0x1
 2338 09dc B5        		.byte	0xb5
 2339 09dd 3E00 0000 		.long	0x3e
 2340 09e1 0000 0000 		.long	.LLST75
 2341 09e5 1B        		.uleb128 0x1b
 2342 09e6 0000 0000 		.long	.LVL120
 2343 09ea 9801 0000 		.long	0x198
 2344 09ee 15        		.uleb128 0x15
 2345 09ef 01        		.byte	0x1
 2346 09f0 68        		.byte	0x68
 2347 09f1 01        		.byte	0x1
 2348 09f2 30        		.byte	0x30
 2349 09f3 00        		.byte	0
 2350 09f4 00        		.byte	0
 2351 09f5 14        		.uleb128 0x14
 2352 09f6 0000 0000 		.long	.LVL97
 2353 09fa 3801 0000 		.long	0x138
 2354 09fe 090A 0000 		.long	0xa09
 2355 0a02 15        		.uleb128 0x15
 2356 0a03 01        		.byte	0x1
 2357 0a04 68        		.byte	0x68
 2358 0a05 02        		.byte	0x2
 2359 0a06 09        		.byte	0x9
 2360 0a07 91        		.byte	0x91
 2361 0a08 00        		.byte	0
 2362 0a09 14        		.uleb128 0x14
 2363 0a0a 0000 0000 		.long	.LVL98
 2364 0a0e 3801 0000 		.long	0x138
 2365 0a12 1D0A 0000 		.long	0xa1d
 2366 0a16 15        		.uleb128 0x15
 2367 0a17 01        		.byte	0x1
 2368 0a18 68        		.byte	0x68
 2369 0a19 02        		.byte	0x2
 2370 0a1a 09        		.byte	0x9
 2371 0a1b 90        		.byte	0x90
 2372 0a1c 00        		.byte	0
 2373 0a1d 14        		.uleb128 0x14
 2374 0a1e 0000 0000 		.long	.LVL99
 2375 0a22 9801 0000 		.long	0x198
 2376 0a26 310A 0000 		.long	0xa31
 2377 0a2a 15        		.uleb128 0x15
 2378 0a2b 01        		.byte	0x1
 2379 0a2c 68        		.byte	0x68
 2380 0a2d 02        		.byte	0x2
 2381 0a2e 81        		.byte	0x81
 2382 0a2f 00        		.sleb128 0
 2383 0a30 00        		.byte	0
 2384 0a31 14        		.uleb128 0x14
 2385 0a32 0000 0000 		.long	.LVL100
 2386 0a36 9801 0000 		.long	0x198
 2387 0a3a 4C0A 0000 		.long	0xa4c
 2388 0a3e 15        		.uleb128 0x15
 2389 0a3f 01        		.byte	0x1
GAS LISTING C:\Users\Rando\AppData\Local\Temp\cctKssdG.s 			page 50


 2390 0a40 68        		.byte	0x68
 2391 0a41 09        		.byte	0x9
 2392 0a42 7E        		.byte	0x7e
 2393 0a43 00        		.sleb128 0
 2394 0a44 81        		.byte	0x81
 2395 0a45 00        		.sleb128 0
 2396 0a46 22        		.byte	0x22
 2397 0a47 31        		.byte	0x31
 2398 0a48 1C        		.byte	0x1c
 2399 0a49 37        		.byte	0x37
 2400 0a4a 21        		.byte	0x21
 2401 0a4b 00        		.byte	0
 2402 0a4c 14        		.uleb128 0x14
 2403 0a4d 0000 0000 		.long	.LVL101
 2404 0a51 9801 0000 		.long	0x198
 2405 0a55 600A 0000 		.long	0xa60
 2406 0a59 15        		.uleb128 0x15
 2407 0a5a 01        		.byte	0x1
 2408 0a5b 68        		.byte	0x68
 2409 0a5c 02        		.byte	0x2
 2410 0a5d 7B        		.byte	0x7b
 2411 0a5e 00        		.sleb128 0
 2412 0a5f 00        		.byte	0
 2413 0a60 14        		.uleb128 0x14
 2414 0a61 0000 0000 		.long	.LVL102
 2415 0a65 9801 0000 		.long	0x198
 2416 0a69 740A 0000 		.long	0xa74
 2417 0a6d 15        		.uleb128 0x15
 2418 0a6e 01        		.byte	0x1
 2419 0a6f 68        		.byte	0x68
 2420 0a70 02        		.byte	0x2
 2421 0a71 7A        		.byte	0x7a
 2422 0a72 00        		.sleb128 0
 2423 0a73 00        		.byte	0
 2424 0a74 13        		.uleb128 0x13
 2425 0a75 0000 0000 		.long	.LVL103
 2426 0a79 9801 0000 		.long	0x198
 2427 0a7d 14        		.uleb128 0x14
 2428 0a7e 0000 0000 		.long	.LVL104
 2429 0a82 9801 0000 		.long	0x198
 2430 0a86 960A 0000 		.long	0xa96
 2431 0a8a 15        		.uleb128 0x15
 2432 0a8b 01        		.byte	0x1
 2433 0a8c 68        		.byte	0x68
 2434 0a8d 07        		.byte	0x7
 2435 0a8e 7A        		.byte	0x7a
 2436 0a8f 00        		.sleb128 0
 2437 0a90 7C        		.byte	0x7c
 2438 0a91 00        		.sleb128 0
 2439 0a92 22        		.byte	0x22
 2440 0a93 31        		.byte	0x31
 2441 0a94 1C        		.byte	0x1c
 2442 0a95 00        		.byte	0
 2443 0a96 14        		.uleb128 0x14
 2444 0a97 0000 0000 		.long	.LVL105
 2445 0a9b 9801 0000 		.long	0x198
 2446 0a9f A90A 0000 		.long	0xaa9
GAS LISTING C:\Users\Rando\AppData\Local\Temp\cctKssdG.s 			page 51


 2447 0aa3 15        		.uleb128 0x15
 2448 0aa4 01        		.byte	0x1
 2449 0aa5 68        		.byte	0x68
 2450 0aa6 01        		.byte	0x1
 2451 0aa7 31        		.byte	0x31
 2452 0aa8 00        		.byte	0
 2453 0aa9 14        		.uleb128 0x14
 2454 0aaa 0000 0000 		.long	.LVL107
 2455 0aae 3801 0000 		.long	0x138
 2456 0ab2 BC0A 0000 		.long	0xabc
 2457 0ab6 15        		.uleb128 0x15
 2458 0ab7 01        		.byte	0x1
 2459 0ab8 68        		.byte	0x68
 2460 0ab9 01        		.byte	0x1
 2461 0aba 43        		.byte	0x43
 2462 0abb 00        		.byte	0
 2463 0abc 21        		.uleb128 0x21
 2464 0abd 0000 0000 		.long	.LVL117
 2465 0ac1 01        		.byte	0x1
 2466 0ac2 3801 0000 		.long	0x138
 2467 0ac6 15        		.uleb128 0x15
 2468 0ac7 01        		.byte	0x1
 2469 0ac8 68        		.byte	0x68
 2470 0ac9 02        		.byte	0x2
 2471 0aca 09        		.byte	0x9
 2472 0acb 92        		.byte	0x92
 2473 0acc 00        		.byte	0
 2474 0acd 00        		.byte	0
 2475 0ace 22        		.uleb128 0x22
 2476 0acf 01        		.byte	0x1
 2477 0ad0 0000 0000 		.long	.LASF39
 2478 0ad4 01        		.byte	0x1
 2479 0ad5 BD        		.byte	0xbd
 2480 0ad6 0000 0000 		.long	.LFB22
 2481 0ada 0000 0000 		.long	.LFE22
 2482 0ade 03        		.byte	0x3
 2483 0adf 92        		.byte	0x92
 2484 0ae0 20        		.uleb128 0x20
 2485 0ae1 02        		.sleb128 2
 2486 0ae2 01        		.byte	0x1
 2487 0ae3 23        		.uleb128 0x23
 2488 0ae4 0000 0000 		.long	.LASF40
 2489 0ae8 05        		.byte	0x5
 2490 0ae9 34        		.byte	0x34
 2491 0aea 2C00 0000 		.long	0x2c
 2492 0aee 01        		.byte	0x1
 2493 0aef 05        		.byte	0x5
 2494 0af0 03        		.byte	0x3
 2495 0af1 0000 0000 		.long	epdwidth
 2496 0af5 24        		.uleb128 0x24
 2497 0af6 01        		.byte	0x1
 2498 0af7 01        		.byte	0x1
 2499 0af8 0000 0000 		.long	.LASF30
 2500 0afc 0000 0000 		.long	.LASF30
 2501 0b00 04        		.byte	0x4
 2502 0b01 0D        		.byte	0xd
 2503 0b02 24        		.uleb128 0x24
GAS LISTING C:\Users\Rando\AppData\Local\Temp\cctKssdG.s 			page 52


 2504 0b03 01        		.byte	0x1
 2505 0b04 01        		.byte	0x1
 2506 0b05 0000 0000 		.long	.LASF31
 2507 0b09 0000 0000 		.long	.LASF31
 2508 0b0d 04        		.byte	0x4
 2509 0b0e 10        		.byte	0x10
 2510 0b0f 24        		.uleb128 0x24
 2511 0b10 01        		.byte	0x1
 2512 0b11 01        		.byte	0x1
 2513 0b12 0000 0000 		.long	.LASF32
 2514 0b16 0000 0000 		.long	.LASF32
 2515 0b1a 04        		.byte	0x4
 2516 0b1b 0E        		.byte	0xe
 2517 0b1c 00        		.byte	0
 2518               		.section	.debug_abbrev,"",@progbits
 2519               	.Ldebug_abbrev0:
 2520 0000 01        		.uleb128 0x1
 2521 0001 11        		.uleb128 0x11
 2522 0002 01        		.byte	0x1
 2523 0003 25        		.uleb128 0x25
 2524 0004 0E        		.uleb128 0xe
 2525 0005 13        		.uleb128 0x13
 2526 0006 0B        		.uleb128 0xb
 2527 0007 03        		.uleb128 0x3
 2528 0008 0E        		.uleb128 0xe
 2529 0009 1B        		.uleb128 0x1b
 2530 000a 0E        		.uleb128 0xe
 2531 000b 11        		.uleb128 0x11
 2532 000c 01        		.uleb128 0x1
 2533 000d 12        		.uleb128 0x12
 2534 000e 01        		.uleb128 0x1
 2535 000f 10        		.uleb128 0x10
 2536 0010 06        		.uleb128 0x6
 2537 0011 00        		.byte	0
 2538 0012 00        		.byte	0
 2539 0013 02        		.uleb128 0x2
 2540 0014 24        		.uleb128 0x24
 2541 0015 00        		.byte	0
 2542 0016 0B        		.uleb128 0xb
 2543 0017 0B        		.uleb128 0xb
 2544 0018 3E        		.uleb128 0x3e
 2545 0019 0B        		.uleb128 0xb
 2546 001a 03        		.uleb128 0x3
 2547 001b 0E        		.uleb128 0xe
 2548 001c 00        		.byte	0
 2549 001d 00        		.byte	0
 2550 001e 03        		.uleb128 0x3
 2551 001f 16        		.uleb128 0x16
 2552 0020 00        		.byte	0
 2553 0021 03        		.uleb128 0x3
 2554 0022 0E        		.uleb128 0xe
 2555 0023 3A        		.uleb128 0x3a
 2556 0024 0B        		.uleb128 0xb
 2557 0025 3B        		.uleb128 0x3b
 2558 0026 0B        		.uleb128 0xb
 2559 0027 49        		.uleb128 0x49
 2560 0028 13        		.uleb128 0x13
GAS LISTING C:\Users\Rando\AppData\Local\Temp\cctKssdG.s 			page 53


 2561 0029 00        		.byte	0
 2562 002a 00        		.byte	0
 2563 002b 04        		.uleb128 0x4
 2564 002c 24        		.uleb128 0x24
 2565 002d 00        		.byte	0
 2566 002e 0B        		.uleb128 0xb
 2567 002f 0B        		.uleb128 0xb
 2568 0030 3E        		.uleb128 0x3e
 2569 0031 0B        		.uleb128 0xb
 2570 0032 03        		.uleb128 0x3
 2571 0033 08        		.uleb128 0x8
 2572 0034 00        		.byte	0
 2573 0035 00        		.byte	0
 2574 0036 05        		.uleb128 0x5
 2575 0037 2E        		.uleb128 0x2e
 2576 0038 01        		.byte	0x1
 2577 0039 03        		.uleb128 0x3
 2578 003a 0E        		.uleb128 0xe
 2579 003b 3A        		.uleb128 0x3a
 2580 003c 0B        		.uleb128 0xb
 2581 003d 3B        		.uleb128 0x3b
 2582 003e 0B        		.uleb128 0xb
 2583 003f 27        		.uleb128 0x27
 2584 0040 0C        		.uleb128 0xc
 2585 0041 20        		.uleb128 0x20
 2586 0042 0B        		.uleb128 0xb
 2587 0043 01        		.uleb128 0x1
 2588 0044 13        		.uleb128 0x13
 2589 0045 00        		.byte	0
 2590 0046 00        		.byte	0
 2591 0047 06        		.uleb128 0x6
 2592 0048 05        		.uleb128 0x5
 2593 0049 00        		.byte	0
 2594 004a 03        		.uleb128 0x3
 2595 004b 0E        		.uleb128 0xe
 2596 004c 3A        		.uleb128 0x3a
 2597 004d 0B        		.uleb128 0xb
 2598 004e 3B        		.uleb128 0x3b
 2599 004f 0B        		.uleb128 0xb
 2600 0050 49        		.uleb128 0x49
 2601 0051 13        		.uleb128 0x13
 2602 0052 00        		.byte	0
 2603 0053 00        		.byte	0
 2604 0054 07        		.uleb128 0x7
 2605 0055 34        		.uleb128 0x34
 2606 0056 00        		.byte	0
 2607 0057 03        		.uleb128 0x3
 2608 0058 0E        		.uleb128 0xe
 2609 0059 3A        		.uleb128 0x3a
 2610 005a 0B        		.uleb128 0xb
 2611 005b 3B        		.uleb128 0x3b
 2612 005c 0B        		.uleb128 0xb
 2613 005d 49        		.uleb128 0x49
 2614 005e 13        		.uleb128 0x13
 2615 005f 00        		.byte	0
 2616 0060 00        		.byte	0
 2617 0061 08        		.uleb128 0x8
GAS LISTING C:\Users\Rando\AppData\Local\Temp\cctKssdG.s 			page 54


 2618 0062 2E        		.uleb128 0x2e
 2619 0063 00        		.byte	0
 2620 0064 3F        		.uleb128 0x3f
 2621 0065 0C        		.uleb128 0xc
 2622 0066 03        		.uleb128 0x3
 2623 0067 0E        		.uleb128 0xe
 2624 0068 3A        		.uleb128 0x3a
 2625 0069 0B        		.uleb128 0xb
 2626 006a 3B        		.uleb128 0x3b
 2627 006b 0B        		.uleb128 0xb
 2628 006c 27        		.uleb128 0x27
 2629 006d 0C        		.uleb128 0xc
 2630 006e 20        		.uleb128 0x20
 2631 006f 0B        		.uleb128 0xb
 2632 0070 00        		.byte	0
 2633 0071 00        		.byte	0
 2634 0072 09        		.uleb128 0x9
 2635 0073 2E        		.uleb128 0x2e
 2636 0074 00        		.byte	0
 2637 0075 3F        		.uleb128 0x3f
 2638 0076 0C        		.uleb128 0xc
 2639 0077 03        		.uleb128 0x3
 2640 0078 0E        		.uleb128 0xe
 2641 0079 3A        		.uleb128 0x3a
 2642 007a 0B        		.uleb128 0xb
 2643 007b 3B        		.uleb128 0x3b
 2644 007c 0B        		.uleb128 0xb
 2645 007d 20        		.uleb128 0x20
 2646 007e 0B        		.uleb128 0xb
 2647 007f 00        		.byte	0
 2648 0080 00        		.byte	0
 2649 0081 0A        		.uleb128 0xa
 2650 0082 2E        		.uleb128 0x2e
 2651 0083 01        		.byte	0x1
 2652 0084 3F        		.uleb128 0x3f
 2653 0085 0C        		.uleb128 0xc
 2654 0086 03        		.uleb128 0x3
 2655 0087 0E        		.uleb128 0xe
 2656 0088 3A        		.uleb128 0x3a
 2657 0089 0B        		.uleb128 0xb
 2658 008a 3B        		.uleb128 0x3b
 2659 008b 0B        		.uleb128 0xb
 2660 008c 11        		.uleb128 0x11
 2661 008d 01        		.uleb128 0x1
 2662 008e 12        		.uleb128 0x12
 2663 008f 01        		.uleb128 0x1
 2664 0090 40        		.uleb128 0x40
 2665 0091 0A        		.uleb128 0xa
 2666 0092 9742      		.uleb128 0x2117
 2667 0094 0C        		.uleb128 0xc
 2668 0095 01        		.uleb128 0x1
 2669 0096 13        		.uleb128 0x13
 2670 0097 00        		.byte	0
 2671 0098 00        		.byte	0
 2672 0099 0B        		.uleb128 0xb
 2673 009a 1D        		.uleb128 0x1d
 2674 009b 01        		.byte	0x1
GAS LISTING C:\Users\Rando\AppData\Local\Temp\cctKssdG.s 			page 55


 2675 009c 31        		.uleb128 0x31
 2676 009d 13        		.uleb128 0x13
 2677 009e 11        		.uleb128 0x11
 2678 009f 01        		.uleb128 0x1
 2679 00a0 12        		.uleb128 0x12
 2680 00a1 01        		.uleb128 0x1
 2681 00a2 58        		.uleb128 0x58
 2682 00a3 0B        		.uleb128 0xb
 2683 00a4 59        		.uleb128 0x59
 2684 00a5 0B        		.uleb128 0xb
 2685 00a6 00        		.byte	0
 2686 00a7 00        		.byte	0
 2687 00a8 0C        		.uleb128 0xc
 2688 00a9 05        		.uleb128 0x5
 2689 00aa 00        		.byte	0
 2690 00ab 31        		.uleb128 0x31
 2691 00ac 13        		.uleb128 0x13
 2692 00ad 02        		.uleb128 0x2
 2693 00ae 06        		.uleb128 0x6
 2694 00af 00        		.byte	0
 2695 00b0 00        		.byte	0
 2696 00b1 0D        		.uleb128 0xd
 2697 00b2 0B        		.uleb128 0xb
 2698 00b3 01        		.byte	0x1
 2699 00b4 11        		.uleb128 0x11
 2700 00b5 01        		.uleb128 0x1
 2701 00b6 12        		.uleb128 0x12
 2702 00b7 01        		.uleb128 0x1
 2703 00b8 00        		.byte	0
 2704 00b9 00        		.byte	0
 2705 00ba 0E        		.uleb128 0xe
 2706 00bb 34        		.uleb128 0x34
 2707 00bc 00        		.byte	0
 2708 00bd 31        		.uleb128 0x31
 2709 00be 13        		.uleb128 0x13
 2710 00bf 02        		.uleb128 0x2
 2711 00c0 06        		.uleb128 0x6
 2712 00c1 00        		.byte	0
 2713 00c2 00        		.byte	0
 2714 00c3 0F        		.uleb128 0xf
 2715 00c4 2E        		.uleb128 0x2e
 2716 00c5 00        		.byte	0
 2717 00c6 31        		.uleb128 0x31
 2718 00c7 13        		.uleb128 0x13
 2719 00c8 11        		.uleb128 0x11
 2720 00c9 01        		.uleb128 0x1
 2721 00ca 12        		.uleb128 0x12
 2722 00cb 01        		.uleb128 0x1
 2723 00cc 40        		.uleb128 0x40
 2724 00cd 0A        		.uleb128 0xa
 2725 00ce 9742      		.uleb128 0x2117
 2726 00d0 0C        		.uleb128 0xc
 2727 00d1 00        		.byte	0
 2728 00d2 00        		.byte	0
 2729 00d3 10        		.uleb128 0x10
 2730 00d4 2E        		.uleb128 0x2e
 2731 00d5 01        		.byte	0x1
GAS LISTING C:\Users\Rando\AppData\Local\Temp\cctKssdG.s 			page 56


 2732 00d6 3F        		.uleb128 0x3f
 2733 00d7 0C        		.uleb128 0xc
 2734 00d8 03        		.uleb128 0x3
 2735 00d9 0E        		.uleb128 0xe
 2736 00da 3A        		.uleb128 0x3a
 2737 00db 0B        		.uleb128 0xb
 2738 00dc 3B        		.uleb128 0x3b
 2739 00dd 0B        		.uleb128 0xb
 2740 00de 27        		.uleb128 0x27
 2741 00df 0C        		.uleb128 0xc
 2742 00e0 11        		.uleb128 0x11
 2743 00e1 01        		.uleb128 0x1
 2744 00e2 12        		.uleb128 0x12
 2745 00e3 01        		.uleb128 0x1
 2746 00e4 40        		.uleb128 0x40
 2747 00e5 06        		.uleb128 0x6
 2748 00e6 9742      		.uleb128 0x2117
 2749 00e8 0C        		.uleb128 0xc
 2750 00e9 01        		.uleb128 0x1
 2751 00ea 13        		.uleb128 0x13
 2752 00eb 00        		.byte	0
 2753 00ec 00        		.byte	0
 2754 00ed 11        		.uleb128 0x11
 2755 00ee 05        		.uleb128 0x5
 2756 00ef 00        		.byte	0
 2757 00f0 03        		.uleb128 0x3
 2758 00f1 0E        		.uleb128 0xe
 2759 00f2 3A        		.uleb128 0x3a
 2760 00f3 0B        		.uleb128 0xb
 2761 00f4 3B        		.uleb128 0x3b
 2762 00f5 0B        		.uleb128 0xb
 2763 00f6 49        		.uleb128 0x49
 2764 00f7 13        		.uleb128 0x13
 2765 00f8 02        		.uleb128 0x2
 2766 00f9 06        		.uleb128 0x6
 2767 00fa 00        		.byte	0
 2768 00fb 00        		.byte	0
 2769 00fc 12        		.uleb128 0x12
 2770 00fd 1D        		.uleb128 0x1d
 2771 00fe 00        		.byte	0
 2772 00ff 31        		.uleb128 0x31
 2773 0100 13        		.uleb128 0x13
 2774 0101 11        		.uleb128 0x11
 2775 0102 01        		.uleb128 0x1
 2776 0103 12        		.uleb128 0x12
 2777 0104 01        		.uleb128 0x1
 2778 0105 58        		.uleb128 0x58
 2779 0106 0B        		.uleb128 0xb
 2780 0107 59        		.uleb128 0x59
 2781 0108 0B        		.uleb128 0xb
 2782 0109 00        		.byte	0
 2783 010a 00        		.byte	0
 2784 010b 13        		.uleb128 0x13
 2785 010c 8982 01   		.uleb128 0x4109
 2786 010f 00        		.byte	0
 2787 0110 11        		.uleb128 0x11
 2788 0111 01        		.uleb128 0x1
GAS LISTING C:\Users\Rando\AppData\Local\Temp\cctKssdG.s 			page 57


 2789 0112 31        		.uleb128 0x31
 2790 0113 13        		.uleb128 0x13
 2791 0114 00        		.byte	0
 2792 0115 00        		.byte	0
 2793 0116 14        		.uleb128 0x14
 2794 0117 8982 01   		.uleb128 0x4109
 2795 011a 01        		.byte	0x1
 2796 011b 11        		.uleb128 0x11
 2797 011c 01        		.uleb128 0x1
 2798 011d 31        		.uleb128 0x31
 2799 011e 13        		.uleb128 0x13
 2800 011f 01        		.uleb128 0x1
 2801 0120 13        		.uleb128 0x13
 2802 0121 00        		.byte	0
 2803 0122 00        		.byte	0
 2804 0123 15        		.uleb128 0x15
 2805 0124 8A82 01   		.uleb128 0x410a
 2806 0127 00        		.byte	0
 2807 0128 02        		.uleb128 0x2
 2808 0129 0A        		.uleb128 0xa
 2809 012a 9142      		.uleb128 0x2111
 2810 012c 0A        		.uleb128 0xa
 2811 012d 00        		.byte	0
 2812 012e 00        		.byte	0
 2813 012f 16        		.uleb128 0x16
 2814 0130 8982 01   		.uleb128 0x4109
 2815 0133 00        		.byte	0
 2816 0134 11        		.uleb128 0x11
 2817 0135 01        		.uleb128 0x1
 2818 0136 9542      		.uleb128 0x2115
 2819 0138 0C        		.uleb128 0xc
 2820 0139 31        		.uleb128 0x31
 2821 013a 13        		.uleb128 0x13
 2822 013b 00        		.byte	0
 2823 013c 00        		.byte	0
 2824 013d 17        		.uleb128 0x17
 2825 013e 2E        		.uleb128 0x2e
 2826 013f 01        		.byte	0x1
 2827 0140 3F        		.uleb128 0x3f
 2828 0141 0C        		.uleb128 0xc
 2829 0142 03        		.uleb128 0x3
 2830 0143 0E        		.uleb128 0xe
 2831 0144 3A        		.uleb128 0x3a
 2832 0145 0B        		.uleb128 0xb
 2833 0146 3B        		.uleb128 0x3b
 2834 0147 0B        		.uleb128 0xb
 2835 0148 11        		.uleb128 0x11
 2836 0149 01        		.uleb128 0x1
 2837 014a 12        		.uleb128 0x12
 2838 014b 01        		.uleb128 0x1
 2839 014c 40        		.uleb128 0x40
 2840 014d 06        		.uleb128 0x6
 2841 014e 9742      		.uleb128 0x2117
 2842 0150 0C        		.uleb128 0xc
 2843 0151 01        		.uleb128 0x1
 2844 0152 13        		.uleb128 0x13
 2845 0153 00        		.byte	0
GAS LISTING C:\Users\Rando\AppData\Local\Temp\cctKssdG.s 			page 58


 2846 0154 00        		.byte	0
 2847 0155 18        		.uleb128 0x18
 2848 0156 1D        		.uleb128 0x1d
 2849 0157 01        		.byte	0x1
 2850 0158 31        		.uleb128 0x31
 2851 0159 13        		.uleb128 0x13
 2852 015a 11        		.uleb128 0x11
 2853 015b 01        		.uleb128 0x1
 2854 015c 12        		.uleb128 0x12
 2855 015d 01        		.uleb128 0x1
 2856 015e 58        		.uleb128 0x58
 2857 015f 0B        		.uleb128 0xb
 2858 0160 59        		.uleb128 0x59
 2859 0161 0B        		.uleb128 0xb
 2860 0162 01        		.uleb128 0x1
 2861 0163 13        		.uleb128 0x13
 2862 0164 00        		.byte	0
 2863 0165 00        		.byte	0
 2864 0166 19        		.uleb128 0x19
 2865 0167 0B        		.uleb128 0xb
 2866 0168 01        		.byte	0x1
 2867 0169 11        		.uleb128 0x11
 2868 016a 01        		.uleb128 0x1
 2869 016b 12        		.uleb128 0x12
 2870 016c 01        		.uleb128 0x1
 2871 016d 01        		.uleb128 0x1
 2872 016e 13        		.uleb128 0x13
 2873 016f 00        		.byte	0
 2874 0170 00        		.byte	0
 2875 0171 1A        		.uleb128 0x1a
 2876 0172 34        		.uleb128 0x34
 2877 0173 00        		.byte	0
 2878 0174 03        		.uleb128 0x3
 2879 0175 08        		.uleb128 0x8
 2880 0176 3A        		.uleb128 0x3a
 2881 0177 0B        		.uleb128 0xb
 2882 0178 3B        		.uleb128 0x3b
 2883 0179 0B        		.uleb128 0xb
 2884 017a 49        		.uleb128 0x49
 2885 017b 13        		.uleb128 0x13
 2886 017c 02        		.uleb128 0x2
 2887 017d 06        		.uleb128 0x6
 2888 017e 00        		.byte	0
 2889 017f 00        		.byte	0
 2890 0180 1B        		.uleb128 0x1b
 2891 0181 8982 01   		.uleb128 0x4109
 2892 0184 01        		.byte	0x1
 2893 0185 11        		.uleb128 0x11
 2894 0186 01        		.uleb128 0x1
 2895 0187 31        		.uleb128 0x31
 2896 0188 13        		.uleb128 0x13
 2897 0189 00        		.byte	0
 2898 018a 00        		.byte	0
 2899 018b 1C        		.uleb128 0x1c
 2900 018c 0F        		.uleb128 0xf
 2901 018d 00        		.byte	0
 2902 018e 0B        		.uleb128 0xb
GAS LISTING C:\Users\Rando\AppData\Local\Temp\cctKssdG.s 			page 59


 2903 018f 0B        		.uleb128 0xb
 2904 0190 49        		.uleb128 0x49
 2905 0191 13        		.uleb128 0x13
 2906 0192 00        		.byte	0
 2907 0193 00        		.byte	0
 2908 0194 1D        		.uleb128 0x1d
 2909 0195 2E        		.uleb128 0x2e
 2910 0196 01        		.byte	0x1
 2911 0197 3F        		.uleb128 0x3f
 2912 0198 0C        		.uleb128 0xc
 2913 0199 03        		.uleb128 0x3
 2914 019a 0E        		.uleb128 0xe
 2915 019b 3A        		.uleb128 0x3a
 2916 019c 0B        		.uleb128 0xb
 2917 019d 3B        		.uleb128 0x3b
 2918 019e 0B        		.uleb128 0xb
 2919 019f 27        		.uleb128 0x27
 2920 01a0 0C        		.uleb128 0xc
 2921 01a1 11        		.uleb128 0x11
 2922 01a2 01        		.uleb128 0x1
 2923 01a3 12        		.uleb128 0x12
 2924 01a4 01        		.uleb128 0x1
 2925 01a5 40        		.uleb128 0x40
 2926 01a6 0A        		.uleb128 0xa
 2927 01a7 9742      		.uleb128 0x2117
 2928 01a9 0C        		.uleb128 0xc
 2929 01aa 01        		.uleb128 0x1
 2930 01ab 13        		.uleb128 0x13
 2931 01ac 00        		.byte	0
 2932 01ad 00        		.byte	0
 2933 01ae 1E        		.uleb128 0x1e
 2934 01af 05        		.uleb128 0x5
 2935 01b0 00        		.byte	0
 2936 01b1 03        		.uleb128 0x3
 2937 01b2 08        		.uleb128 0x8
 2938 01b3 3A        		.uleb128 0x3a
 2939 01b4 0B        		.uleb128 0xb
 2940 01b5 3B        		.uleb128 0x3b
 2941 01b6 0B        		.uleb128 0xb
 2942 01b7 49        		.uleb128 0x49
 2943 01b8 13        		.uleb128 0x13
 2944 01b9 02        		.uleb128 0x2
 2945 01ba 06        		.uleb128 0x6
 2946 01bb 00        		.byte	0
 2947 01bc 00        		.byte	0
 2948 01bd 1F        		.uleb128 0x1f
 2949 01be 05        		.uleb128 0x5
 2950 01bf 00        		.byte	0
 2951 01c0 03        		.uleb128 0x3
 2952 01c1 08        		.uleb128 0x8
 2953 01c2 3A        		.uleb128 0x3a
 2954 01c3 0B        		.uleb128 0xb
 2955 01c4 3B        		.uleb128 0x3b
 2956 01c5 0B        		.uleb128 0xb
 2957 01c6 49        		.uleb128 0x49
 2958 01c7 13        		.uleb128 0x13
 2959 01c8 02        		.uleb128 0x2
GAS LISTING C:\Users\Rando\AppData\Local\Temp\cctKssdG.s 			page 60


 2960 01c9 0A        		.uleb128 0xa
 2961 01ca 00        		.byte	0
 2962 01cb 00        		.byte	0
 2963 01cc 20        		.uleb128 0x20
 2964 01cd 0B        		.uleb128 0xb
 2965 01ce 01        		.byte	0x1
 2966 01cf 55        		.uleb128 0x55
 2967 01d0 06        		.uleb128 0x6
 2968 01d1 01        		.uleb128 0x1
 2969 01d2 13        		.uleb128 0x13
 2970 01d3 00        		.byte	0
 2971 01d4 00        		.byte	0
 2972 01d5 21        		.uleb128 0x21
 2973 01d6 8982 01   		.uleb128 0x4109
 2974 01d9 01        		.byte	0x1
 2975 01da 11        		.uleb128 0x11
 2976 01db 01        		.uleb128 0x1
 2977 01dc 9542      		.uleb128 0x2115
 2978 01de 0C        		.uleb128 0xc
 2979 01df 31        		.uleb128 0x31
 2980 01e0 13        		.uleb128 0x13
 2981 01e1 00        		.byte	0
 2982 01e2 00        		.byte	0
 2983 01e3 22        		.uleb128 0x22
 2984 01e4 2E        		.uleb128 0x2e
 2985 01e5 00        		.byte	0
 2986 01e6 3F        		.uleb128 0x3f
 2987 01e7 0C        		.uleb128 0xc
 2988 01e8 03        		.uleb128 0x3
 2989 01e9 0E        		.uleb128 0xe
 2990 01ea 3A        		.uleb128 0x3a
 2991 01eb 0B        		.uleb128 0xb
 2992 01ec 3B        		.uleb128 0x3b
 2993 01ed 0B        		.uleb128 0xb
 2994 01ee 11        		.uleb128 0x11
 2995 01ef 01        		.uleb128 0x1
 2996 01f0 12        		.uleb128 0x12
 2997 01f1 01        		.uleb128 0x1
 2998 01f2 40        		.uleb128 0x40
 2999 01f3 0A        		.uleb128 0xa
 3000 01f4 9742      		.uleb128 0x2117
 3001 01f6 0C        		.uleb128 0xc
 3002 01f7 00        		.byte	0
 3003 01f8 00        		.byte	0
 3004 01f9 23        		.uleb128 0x23
 3005 01fa 34        		.uleb128 0x34
 3006 01fb 00        		.byte	0
 3007 01fc 03        		.uleb128 0x3
 3008 01fd 0E        		.uleb128 0xe
 3009 01fe 3A        		.uleb128 0x3a
 3010 01ff 0B        		.uleb128 0xb
 3011 0200 3B        		.uleb128 0x3b
 3012 0201 0B        		.uleb128 0xb
 3013 0202 49        		.uleb128 0x49
 3014 0203 13        		.uleb128 0x13
 3015 0204 3F        		.uleb128 0x3f
 3016 0205 0C        		.uleb128 0xc
GAS LISTING C:\Users\Rando\AppData\Local\Temp\cctKssdG.s 			page 61


 3017 0206 02        		.uleb128 0x2
 3018 0207 0A        		.uleb128 0xa
 3019 0208 00        		.byte	0
 3020 0209 00        		.byte	0
 3021 020a 24        		.uleb128 0x24
 3022 020b 2E        		.uleb128 0x2e
 3023 020c 00        		.byte	0
 3024 020d 3F        		.uleb128 0x3f
 3025 020e 0C        		.uleb128 0xc
 3026 020f 3C        		.uleb128 0x3c
 3027 0210 0C        		.uleb128 0xc
 3028 0211 8740      		.uleb128 0x2007
 3029 0213 0E        		.uleb128 0xe
 3030 0214 03        		.uleb128 0x3
 3031 0215 0E        		.uleb128 0xe
 3032 0216 3A        		.uleb128 0x3a
 3033 0217 0B        		.uleb128 0xb
 3034 0218 3B        		.uleb128 0x3b
 3035 0219 0B        		.uleb128 0xb
 3036 021a 00        		.byte	0
 3037 021b 00        		.byte	0
 3038 021c 00        		.byte	0
 3039               		.section	.debug_loc,"",@progbits
 3040               	.Ldebug_loc0:
 3041               	.LLST0:
 3042 0000 0200 0000 		.long	.LVL0-.Ltext0
 3043 0004 0E00 0000 		.long	.LVL1-.Ltext0
 3044 0008 0600      		.word	0x6
 3045 000a 9E        		.byte	0x9e
 3046 000b 04        		.uleb128 0x4
 3047 000c 0000 2041 		.long	0x41200000
 3048 0010 0000 0000 		.long	0
 3049 0014 0000 0000 		.long	0
 3050               	.LLST1:
 3051 0018 0200 0000 		.long	.LVL0-.Ltext0
 3052 001c 0E00 0000 		.long	.LVL1-.Ltext0
 3053 0020 0600      		.word	0x6
 3054 0022 9E        		.byte	0x9e
 3055 0023 04        		.uleb128 0x4
 3056 0024 0040 1C48 		.long	0x481c4000
 3057 0028 0000 0000 		.long	0
 3058 002c 0000 0000 		.long	0
 3059               	.LLST2:
 3060 0030 0200 0000 		.long	.LVL0-.Ltext0
 3061 0034 0E00 0000 		.long	.LVL1-.Ltext0
 3062 0038 0600      		.word	0x6
 3063 003a 0C        		.byte	0xc
 3064 003b 0071 0200 		.long	0x27100
 3065 003f 9F        		.byte	0x9f
 3066 0040 0000 0000 		.long	0
 3067 0044 0000 0000 		.long	0
 3068               	.LLST3:
 3069 0048 1A00 0000 		.long	.LFB14-.Ltext0
 3070 004c 1C00 0000 		.long	.LCFI0-.Ltext0
 3071 0050 0300      		.word	0x3
 3072 0052 92        		.byte	0x92
 3073 0053 20        		.uleb128 0x20
GAS LISTING C:\Users\Rando\AppData\Local\Temp\cctKssdG.s 			page 62


 3074 0054 02        		.sleb128 2
 3075 0055 1C00 0000 		.long	.LCFI0-.Ltext0
 3076 0059 3000 0000 		.long	.LFE14-.Ltext0
 3077 005d 0300      		.word	0x3
 3078 005f 92        		.byte	0x92
 3079 0060 20        		.uleb128 0x20
 3080 0061 03        		.sleb128 3
 3081 0062 0000 0000 		.long	0
 3082 0066 0000 0000 		.long	0
 3083               	.LLST4:
 3084 006a 1A00 0000 		.long	.LVL2-.Ltext0
 3085 006e 2300 0000 		.long	.LVL3-1-.Ltext0
 3086 0072 0100      		.word	0x1
 3087 0074 68        		.byte	0x68
 3088 0075 2300 0000 		.long	.LVL3-1-.Ltext0
 3089 0079 2C00 0000 		.long	.LVL5-.Ltext0
 3090 007d 0100      		.word	0x1
 3091 007f 6C        		.byte	0x6c
 3092 0080 2C00 0000 		.long	.LVL5-.Ltext0
 3093 0084 3000 0000 		.long	.LFE14-.Ltext0
 3094 0088 0400      		.word	0x4
 3095 008a F3        		.byte	0xf3
 3096 008b 01        		.uleb128 0x1
 3097 008c 68        		.byte	0x68
 3098 008d 9F        		.byte	0x9f
 3099 008e 0000 0000 		.long	0
 3100 0092 0000 0000 		.long	0
 3101               	.LLST5:
 3102 0096 3000 0000 		.long	.LFB15-.Ltext0
 3103 009a 3200 0000 		.long	.LCFI1-.Ltext0
 3104 009e 0300      		.word	0x3
 3105 00a0 92        		.byte	0x92
 3106 00a1 20        		.uleb128 0x20
 3107 00a2 02        		.sleb128 2
 3108 00a3 3200 0000 		.long	.LCFI1-.Ltext0
 3109 00a7 4600 0000 		.long	.LFE15-.Ltext0
 3110 00ab 0300      		.word	0x3
 3111 00ad 92        		.byte	0x92
 3112 00ae 20        		.uleb128 0x20
 3113 00af 03        		.sleb128 3
 3114 00b0 0000 0000 		.long	0
 3115 00b4 0000 0000 		.long	0
 3116               	.LLST6:
 3117 00b8 3000 0000 		.long	.LVL7-.Ltext0
 3118 00bc 3900 0000 		.long	.LVL8-1-.Ltext0
 3119 00c0 0100      		.word	0x1
 3120 00c2 68        		.byte	0x68
 3121 00c3 3900 0000 		.long	.LVL8-1-.Ltext0
 3122 00c7 4200 0000 		.long	.LVL10-.Ltext0
 3123 00cb 0100      		.word	0x1
 3124 00cd 6C        		.byte	0x6c
 3125 00ce 4200 0000 		.long	.LVL10-.Ltext0
 3126 00d2 4600 0000 		.long	.LFE15-.Ltext0
 3127 00d6 0400      		.word	0x4
 3128 00d8 F3        		.byte	0xf3
 3129 00d9 01        		.uleb128 0x1
 3130 00da 68        		.byte	0x68
GAS LISTING C:\Users\Rando\AppData\Local\Temp\cctKssdG.s 			page 63


 3131 00db 9F        		.byte	0x9f
 3132 00dc 0000 0000 		.long	0
 3133 00e0 0000 0000 		.long	0
 3134               	.LLST7:
 3135 00e4 4600 0000 		.long	.LFB16-.Ltext0
 3136 00e8 4800 0000 		.long	.LCFI2-.Ltext0
 3137 00ec 0300      		.word	0x3
 3138 00ee 92        		.byte	0x92
 3139 00ef 20        		.uleb128 0x20
 3140 00f0 02        		.sleb128 2
 3141 00f1 4800 0000 		.long	.LCFI2-.Ltext0
 3142 00f5 4A00 0000 		.long	.LCFI3-.Ltext0
 3143 00f9 0300      		.word	0x3
 3144 00fb 92        		.byte	0x92
 3145 00fc 20        		.uleb128 0x20
 3146 00fd 03        		.sleb128 3
 3147 00fe 4A00 0000 		.long	.LCFI3-.Ltext0
 3148 0102 A800 0000 		.long	.LFE16-.Ltext0
 3149 0106 0300      		.word	0x3
 3150 0108 92        		.byte	0x92
 3151 0109 20        		.uleb128 0x20
 3152 010a 04        		.sleb128 4
 3153 010b 0000 0000 		.long	0
 3154 010f 0000 0000 		.long	0
 3155               	.LLST8:
 3156 0113 5000 0000 		.long	.LVL12-.Ltext0
 3157 0117 5C00 0000 		.long	.LVL13-.Ltext0
 3158 011b 0600      		.word	0x6
 3159 011d 9E        		.byte	0x9e
 3160 011e 04        		.uleb128 0x4
 3161 011f 0000 0040 		.long	0x40000000
 3162 0123 0000 0000 		.long	0
 3163 0127 0000 0000 		.long	0
 3164               	.LLST9:
 3165 012b 5000 0000 		.long	.LVL12-.Ltext0
 3166 012f 5C00 0000 		.long	.LVL13-.Ltext0
 3167 0133 0600      		.word	0x6
 3168 0135 9E        		.byte	0x9e
 3169 0136 04        		.uleb128 0x4
 3170 0137 0000 FA46 		.long	0x46fa0000
 3171 013b 0000 0000 		.long	0
 3172 013f 0000 0000 		.long	0
 3173               	.LLST10:
 3174 0143 5000 0000 		.long	.LVL12-.Ltext0
 3175 0147 5C00 0000 		.long	.LVL13-.Ltext0
 3176 014b 0400      		.word	0x4
 3177 014d 0A        		.byte	0xa
 3178 014e 007D      		.word	0x7d00
 3179 0150 9F        		.byte	0x9f
 3180 0151 0000 0000 		.long	0
 3181 0155 0000 0000 		.long	0
 3182               	.LLST11:
 3183 0159 5C00 0000 		.long	.LVL13-.Ltext0
 3184 015d 6000 0000 		.long	.LVL14-.Ltext0
 3185 0161 0200      		.word	0x2
 3186 0163 30        		.byte	0x30
 3187 0164 9F        		.byte	0x9f
GAS LISTING C:\Users\Rando\AppData\Local\Temp\cctKssdG.s 			page 64


 3188 0165 6000 0000 		.long	.LVL14-.Ltext0
 3189 0169 6600 0000 		.long	.LVL15-.Ltext0
 3190 016d 0600      		.word	0x6
 3191 016f 08        		.byte	0x8
 3192 0170 C8        		.byte	0xc8
 3193 0171 8C        		.byte	0x8c
 3194 0172 00        		.sleb128 0
 3195 0173 1C        		.byte	0x1c
 3196 0174 9F        		.byte	0x9f
 3197 0175 6600 0000 		.long	.LVL15-.Ltext0
 3198 0179 6800 0000 		.long	.LVL16-.Ltext0
 3199 017d 0600      		.word	0x6
 3200 017f 08        		.byte	0x8
 3201 0180 C9        		.byte	0xc9
 3202 0181 8C        		.byte	0x8c
 3203 0182 00        		.sleb128 0
 3204 0183 1C        		.byte	0x1c
 3205 0184 9F        		.byte	0x9f
 3206 0185 6800 0000 		.long	.LVL16-.Ltext0
 3207 0189 8C00 0000 		.long	.LVL21-.Ltext0
 3208 018d 0600      		.word	0x6
 3209 018f 08        		.byte	0x8
 3210 0190 C8        		.byte	0xc8
 3211 0191 8C        		.byte	0x8c
 3212 0192 00        		.sleb128 0
 3213 0193 1C        		.byte	0x1c
 3214 0194 9F        		.byte	0x9f
 3215 0195 0000 0000 		.long	0
 3216 0199 0000 0000 		.long	0
 3217               	.LLST12:
 3218 019d 6A00 0000 		.long	.LVL17-.Ltext0
 3219 01a1 7600 0000 		.long	.LVL18-.Ltext0
 3220 01a5 0600      		.word	0x6
 3221 01a7 9E        		.byte	0x9e
 3222 01a8 04        		.uleb128 0x4
 3223 01a9 0000 0040 		.long	0x40000000
 3224 01ad 0000 0000 		.long	0
 3225 01b1 0000 0000 		.long	0
 3226               	.LLST13:
 3227 01b5 6A00 0000 		.long	.LVL17-.Ltext0
 3228 01b9 7600 0000 		.long	.LVL18-.Ltext0
 3229 01bd 0600      		.word	0x6
 3230 01bf 9E        		.byte	0x9e
 3231 01c0 04        		.uleb128 0x4
 3232 01c1 0000 FA46 		.long	0x46fa0000
 3233 01c5 0000 0000 		.long	0
 3234 01c9 0000 0000 		.long	0
 3235               	.LLST14:
 3236 01cd 6A00 0000 		.long	.LVL17-.Ltext0
 3237 01d1 7600 0000 		.long	.LVL18-.Ltext0
 3238 01d5 0400      		.word	0x4
 3239 01d7 0A        		.byte	0xa
 3240 01d8 007D      		.word	0x7d00
 3241 01da 9F        		.byte	0x9f
 3242 01db 0000 0000 		.long	0
 3243 01df 0000 0000 		.long	0
 3244               	.LLST15:
GAS LISTING C:\Users\Rando\AppData\Local\Temp\cctKssdG.s 			page 65


 3245 01e3 7C00 0000 		.long	.LVL19-.Ltext0
 3246 01e7 8800 0000 		.long	.LVL20-.Ltext0
 3247 01eb 0600      		.word	0x6
 3248 01ed 9E        		.byte	0x9e
 3249 01ee 04        		.uleb128 0x4
 3250 01ef 0000 0040 		.long	0x40000000
 3251 01f3 0000 0000 		.long	0
 3252 01f7 0000 0000 		.long	0
 3253               	.LLST16:
 3254 01fb 7C00 0000 		.long	.LVL19-.Ltext0
 3255 01ff 8800 0000 		.long	.LVL20-.Ltext0
 3256 0203 0600      		.word	0x6
 3257 0205 9E        		.byte	0x9e
 3258 0206 04        		.uleb128 0x4
 3259 0207 0000 FA46 		.long	0x46fa0000
 3260 020b 0000 0000 		.long	0
 3261 020f 0000 0000 		.long	0
 3262               	.LLST17:
 3263 0213 7C00 0000 		.long	.LVL19-.Ltext0
 3264 0217 8800 0000 		.long	.LVL20-.Ltext0
 3265 021b 0400      		.word	0x4
 3266 021d 0A        		.byte	0xa
 3267 021e 007D      		.word	0x7d00
 3268 0220 9F        		.byte	0x9f
 3269 0221 0000 0000 		.long	0
 3270 0225 0000 0000 		.long	0
 3271               	.LLST18:
 3272 0229 8800 0000 		.long	.LVL20-.Ltext0
 3273 022d 8C00 0000 		.long	.LVL21-.Ltext0
 3274 0231 0200      		.word	0x2
 3275 0233 30        		.byte	0x30
 3276 0234 9F        		.byte	0x9f
 3277 0235 8C00 0000 		.long	.LVL21-.Ltext0
 3278 0239 9200 0000 		.long	.LVL22-.Ltext0
 3279 023d 0600      		.word	0x6
 3280 023f 08        		.byte	0x8
 3281 0240 C8        		.byte	0xc8
 3282 0241 8C        		.byte	0x8c
 3283 0242 00        		.sleb128 0
 3284 0243 1C        		.byte	0x1c
 3285 0244 9F        		.byte	0x9f
 3286 0245 9200 0000 		.long	.LVL22-.Ltext0
 3287 0249 9400 0000 		.long	.LVL23-.Ltext0
 3288 024d 0600      		.word	0x6
 3289 024f 08        		.byte	0x8
 3290 0250 C9        		.byte	0xc9
 3291 0251 8C        		.byte	0x8c
 3292 0252 00        		.sleb128 0
 3293 0253 1C        		.byte	0x1c
 3294 0254 9F        		.byte	0x9f
 3295 0255 9400 0000 		.long	.LVL23-.Ltext0
 3296 0259 A600 0000 		.long	.LVL26-.Ltext0
 3297 025d 0600      		.word	0x6
 3298 025f 08        		.byte	0x8
 3299 0260 C8        		.byte	0xc8
 3300 0261 8C        		.byte	0x8c
 3301 0262 00        		.sleb128 0
GAS LISTING C:\Users\Rando\AppData\Local\Temp\cctKssdG.s 			page 66


 3302 0263 1C        		.byte	0x1c
 3303 0264 9F        		.byte	0x9f
 3304 0265 0000 0000 		.long	0
 3305 0269 0000 0000 		.long	0
 3306               	.LLST19:
 3307 026d 9600 0000 		.long	.LVL24-.Ltext0
 3308 0271 A200 0000 		.long	.LVL25-.Ltext0
 3309 0275 0600      		.word	0x6
 3310 0277 9E        		.byte	0x9e
 3311 0278 04        		.uleb128 0x4
 3312 0279 0000 0040 		.long	0x40000000
 3313 027d 0000 0000 		.long	0
 3314 0281 0000 0000 		.long	0
 3315               	.LLST20:
 3316 0285 9600 0000 		.long	.LVL24-.Ltext0
 3317 0289 A200 0000 		.long	.LVL25-.Ltext0
 3318 028d 0600      		.word	0x6
 3319 028f 9E        		.byte	0x9e
 3320 0290 04        		.uleb128 0x4
 3321 0291 0000 FA46 		.long	0x46fa0000
 3322 0295 0000 0000 		.long	0
 3323 0299 0000 0000 		.long	0
 3324               	.LLST21:
 3325 029d 9600 0000 		.long	.LVL24-.Ltext0
 3326 02a1 A200 0000 		.long	.LVL25-.Ltext0
 3327 02a5 0400      		.word	0x4
 3328 02a7 0A        		.byte	0xa
 3329 02a8 007D      		.word	0x7d00
 3330 02aa 9F        		.byte	0x9f
 3331 02ab 0000 0000 		.long	0
 3332 02af 0000 0000 		.long	0
 3333               	.LLST22:
 3334 02b3 D200 0000 		.long	.LVL31-.Ltext0
 3335 02b7 E400 0000 		.long	.LVL32-.Ltext0
 3336 02bb 0600      		.word	0x6
 3337 02bd 9E        		.byte	0x9e
 3338 02be 04        		.uleb128 0x4
 3339 02bf 0000 FA44 		.long	0x44fa0000
 3340 02c3 0000 0000 		.long	0
 3341 02c7 0000 0000 		.long	0
 3342               	.LLST23:
 3343 02cb D200 0000 		.long	.LVL31-.Ltext0
 3344 02cf E400 0000 		.long	.LVL32-.Ltext0
 3345 02d3 0600      		.word	0x6
 3346 02d5 9E        		.byte	0x9e
 3347 02d6 04        		.uleb128 0x4
 3348 02d7 0024 F44B 		.long	0x4bf42400
 3349 02db 0000 0000 		.long	0
 3350 02df 0000 0000 		.long	0
 3351               	.LLST24:
 3352 02e3 D200 0000 		.long	.LVL31-.Ltext0
 3353 02e7 E400 0000 		.long	.LVL32-.Ltext0
 3354 02eb 0600      		.word	0x6
 3355 02ed 0C        		.byte	0xc
 3356 02ee 0048 E801 		.long	0x1e84800
 3357 02f2 9F        		.byte	0x9f
 3358 02f3 0000 0000 		.long	0
GAS LISTING C:\Users\Rando\AppData\Local\Temp\cctKssdG.s 			page 67


 3359 02f7 0000 0000 		.long	0
 3360               	.LLST25:
 3361 02fb 1A01 0000 		.long	.LVL41-.Ltext0
 3362 02ff 2C01 0000 		.long	.LVL42-.Ltext0
 3363 0303 0600      		.word	0x6
 3364 0305 9E        		.byte	0x9e
 3365 0306 04        		.uleb128 0x4
 3366 0307 0000 FA44 		.long	0x44fa0000
 3367 030b 0000 0000 		.long	0
 3368 030f 0000 0000 		.long	0
 3369               	.LLST26:
 3370 0313 1A01 0000 		.long	.LVL41-.Ltext0
 3371 0317 2C01 0000 		.long	.LVL42-.Ltext0
 3372 031b 0600      		.word	0x6
 3373 031d 9E        		.byte	0x9e
 3374 031e 04        		.uleb128 0x4
 3375 031f 0024 F44B 		.long	0x4bf42400
 3376 0323 0000 0000 		.long	0
 3377 0327 0000 0000 		.long	0
 3378               	.LLST27:
 3379 032b 1A01 0000 		.long	.LVL41-.Ltext0
 3380 032f 2C01 0000 		.long	.LVL42-.Ltext0
 3381 0333 0600      		.word	0x6
 3382 0335 0C        		.byte	0xc
 3383 0336 0048 E801 		.long	0x1e84800
 3384 033a 9F        		.byte	0x9f
 3385 033b 0000 0000 		.long	0
 3386 033f 0000 0000 		.long	0
 3387               	.LLST28:
 3388 0343 2E01 0000 		.long	.LFB18-.Ltext0
 3389 0347 3001 0000 		.long	.LCFI4-.Ltext0
 3390 034b 0300      		.word	0x3
 3391 034d 92        		.byte	0x92
 3392 034e 20        		.uleb128 0x20
 3393 034f 02        		.sleb128 2
 3394 0350 3001 0000 		.long	.LCFI4-.Ltext0
 3395 0354 3201 0000 		.long	.LCFI5-.Ltext0
 3396 0358 0300      		.word	0x3
 3397 035a 92        		.byte	0x92
 3398 035b 20        		.uleb128 0x20
 3399 035c 03        		.sleb128 3
 3400 035d 3201 0000 		.long	.LCFI5-.Ltext0
 3401 0361 3401 0000 		.long	.LCFI6-.Ltext0
 3402 0365 0300      		.word	0x3
 3403 0367 92        		.byte	0x92
 3404 0368 20        		.uleb128 0x20
 3405 0369 04        		.sleb128 4
 3406 036a 3401 0000 		.long	.LCFI6-.Ltext0
 3407 036e 3601 0000 		.long	.LCFI7-.Ltext0
 3408 0372 0300      		.word	0x3
 3409 0374 92        		.byte	0x92
 3410 0375 20        		.uleb128 0x20
 3411 0376 05        		.sleb128 5
 3412 0377 3601 0000 		.long	.LCFI7-.Ltext0
 3413 037b 3801 0000 		.long	.LCFI8-.Ltext0
 3414 037f 0300      		.word	0x3
 3415 0381 92        		.byte	0x92
GAS LISTING C:\Users\Rando\AppData\Local\Temp\cctKssdG.s 			page 68


 3416 0382 20        		.uleb128 0x20
 3417 0383 06        		.sleb128 6
 3418 0384 3801 0000 		.long	.LCFI8-.Ltext0
 3419 0388 3A01 0000 		.long	.LCFI9-.Ltext0
 3420 038c 0300      		.word	0x3
 3421 038e 92        		.byte	0x92
 3422 038f 20        		.uleb128 0x20
 3423 0390 07        		.sleb128 7
 3424 0391 3A01 0000 		.long	.LCFI9-.Ltext0
 3425 0395 E601 0000 		.long	.LFE18-.Ltext0
 3426 0399 0300      		.word	0x3
 3427 039b 92        		.byte	0x92
 3428 039c 20        		.uleb128 0x20
 3429 039d 08        		.sleb128 8
 3430 039e 0000 0000 		.long	0
 3431 03a2 0000 0000 		.long	0
 3432               	.LLST29:
 3433 03a6 2E01 0000 		.long	.LVL43-.Ltext0
 3434 03aa 4401 0000 		.long	.LVL44-.Ltext0
 3435 03ae 0600      		.word	0x6
 3436 03b0 68        		.byte	0x68
 3437 03b1 93        		.byte	0x93
 3438 03b2 01        		.uleb128 0x1
 3439 03b3 69        		.byte	0x69
 3440 03b4 93        		.byte	0x93
 3441 03b5 01        		.uleb128 0x1
 3442 03b6 4401 0000 		.long	.LVL44-.Ltext0
 3443 03ba 6001 0000 		.long	.LVL47-.Ltext0
 3444 03be 0600      		.word	0x6
 3445 03c0 5E        		.byte	0x5e
 3446 03c1 93        		.byte	0x93
 3447 03c2 01        		.uleb128 0x1
 3448 03c3 5F        		.byte	0x5f
 3449 03c4 93        		.byte	0x93
 3450 03c5 01        		.uleb128 0x1
 3451 03c6 6001 0000 		.long	.LVL47-.Ltext0
 3452 03ca E601 0000 		.long	.LFE18-.Ltext0
 3453 03ce 0400      		.word	0x4
 3454 03d0 F3        		.byte	0xf3
 3455 03d1 01        		.uleb128 0x1
 3456 03d2 68        		.byte	0x68
 3457 03d3 9F        		.byte	0x9f
 3458 03d4 0000 0000 		.long	0
 3459 03d8 0000 0000 		.long	0
 3460               	.LLST30:
 3461 03dc 2E01 0000 		.long	.LVL43-.Ltext0
 3462 03e0 4701 0000 		.long	.LVL45-1-.Ltext0
 3463 03e4 0600      		.word	0x6
 3464 03e6 66        		.byte	0x66
 3465 03e7 93        		.byte	0x93
 3466 03e8 01        		.uleb128 0x1
 3467 03e9 67        		.byte	0x67
 3468 03ea 93        		.byte	0x93
 3469 03eb 01        		.uleb128 0x1
 3470 03ec 4701 0000 		.long	.LVL45-1-.Ltext0
 3471 03f0 AE01 0000 		.long	.LVL54-.Ltext0
 3472 03f4 0600      		.word	0x6
GAS LISTING C:\Users\Rando\AppData\Local\Temp\cctKssdG.s 			page 69


 3473 03f6 60        		.byte	0x60
 3474 03f7 93        		.byte	0x93
 3475 03f8 01        		.uleb128 0x1
 3476 03f9 61        		.byte	0x61
 3477 03fa 93        		.byte	0x93
 3478 03fb 01        		.uleb128 0x1
 3479 03fc AE01 0000 		.long	.LVL54-.Ltext0
 3480 0400 E601 0000 		.long	.LFE18-.Ltext0
 3481 0404 0400      		.word	0x4
 3482 0406 F3        		.byte	0xf3
 3483 0407 01        		.uleb128 0x1
 3484 0408 66        		.byte	0x66
 3485 0409 9F        		.byte	0x9f
 3486 040a 0000 0000 		.long	0
 3487 040e 0000 0000 		.long	0
 3488               	.LLST31:
 3489 0412 4801 0000 		.long	.LVL45-.Ltext0
 3490 0416 5401 0000 		.long	.LVL46-.Ltext0
 3491 041a 0600      		.word	0x6
 3492 041c 9E        		.byte	0x9e
 3493 041d 04        		.uleb128 0x4
 3494 041e 0000 0040 		.long	0x40000000
 3495 0422 0000 0000 		.long	0
 3496 0426 0000 0000 		.long	0
 3497               	.LLST32:
 3498 042a 4801 0000 		.long	.LVL45-.Ltext0
 3499 042e 5401 0000 		.long	.LVL46-.Ltext0
 3500 0432 0600      		.word	0x6
 3501 0434 9E        		.byte	0x9e
 3502 0435 04        		.uleb128 0x4
 3503 0436 0000 FA46 		.long	0x46fa0000
 3504 043a 0000 0000 		.long	0
 3505 043e 0000 0000 		.long	0
 3506               	.LLST33:
 3507 0442 4801 0000 		.long	.LVL45-.Ltext0
 3508 0446 5401 0000 		.long	.LVL46-.Ltext0
 3509 044a 0400      		.word	0x4
 3510 044c 0A        		.byte	0xa
 3511 044d 007D      		.word	0x7d00
 3512 044f 9F        		.byte	0x9f
 3513 0450 0000 0000 		.long	0
 3514 0454 0000 0000 		.long	0
 3515               	.LLST34:
 3516 0458 5401 0000 		.long	.LVL46-.Ltext0
 3517 045c 6001 0000 		.long	.LVL47-.Ltext0
 3518 0460 0200      		.word	0x2
 3519 0462 30        		.byte	0x30
 3520 0463 9F        		.byte	0x9f
 3521 0464 6001 0000 		.long	.LVL47-.Ltext0
 3522 0468 7E01 0000 		.long	.LVL50-.Ltext0
 3523 046c 0600      		.word	0x6
 3524 046e 6C        		.byte	0x6c
 3525 046f 93        		.byte	0x93
 3526 0470 01        		.uleb128 0x1
 3527 0471 6D        		.byte	0x6d
 3528 0472 93        		.byte	0x93
 3529 0473 01        		.uleb128 0x1
GAS LISTING C:\Users\Rando\AppData\Local\Temp\cctKssdG.s 			page 70


 3530 0474 0000 0000 		.long	0
 3531 0478 0000 0000 		.long	0
 3532               	.LLST35:
 3533 047c 7E01 0000 		.long	.LVL50-.Ltext0
 3534 0480 8A01 0000 		.long	.LVL51-.Ltext0
 3535 0484 0600      		.word	0x6
 3536 0486 9E        		.byte	0x9e
 3537 0487 04        		.uleb128 0x4
 3538 0488 0000 0040 		.long	0x40000000
 3539 048c 0000 0000 		.long	0
 3540 0490 0000 0000 		.long	0
 3541               	.LLST36:
 3542 0494 7E01 0000 		.long	.LVL50-.Ltext0
 3543 0498 8A01 0000 		.long	.LVL51-.Ltext0
 3544 049c 0600      		.word	0x6
 3545 049e 9E        		.byte	0x9e
 3546 049f 04        		.uleb128 0x4
 3547 04a0 0000 FA46 		.long	0x46fa0000
 3548 04a4 0000 0000 		.long	0
 3549 04a8 0000 0000 		.long	0
 3550               	.LLST37:
 3551 04ac 7E01 0000 		.long	.LVL50-.Ltext0
 3552 04b0 8A01 0000 		.long	.LVL51-.Ltext0
 3553 04b4 0400      		.word	0x4
 3554 04b6 0A        		.byte	0xa
 3555 04b7 007D      		.word	0x7d00
 3556 04b9 9F        		.byte	0x9f
 3557 04ba 0000 0000 		.long	0
 3558 04be 0000 0000 		.long	0
 3559               	.LLST38:
 3560 04c2 9601 0000 		.long	.LVL52-.Ltext0
 3561 04c6 A201 0000 		.long	.LVL53-.Ltext0
 3562 04ca 0600      		.word	0x6
 3563 04cc 9E        		.byte	0x9e
 3564 04cd 04        		.uleb128 0x4
 3565 04ce 0000 0040 		.long	0x40000000
 3566 04d2 0000 0000 		.long	0
 3567 04d6 0000 0000 		.long	0
 3568               	.LLST39:
 3569 04da 9601 0000 		.long	.LVL52-.Ltext0
 3570 04de A201 0000 		.long	.LVL53-.Ltext0
 3571 04e2 0600      		.word	0x6
 3572 04e4 9E        		.byte	0x9e
 3573 04e5 04        		.uleb128 0x4
 3574 04e6 0000 FA46 		.long	0x46fa0000
 3575 04ea 0000 0000 		.long	0
 3576 04ee 0000 0000 		.long	0
 3577               	.LLST40:
 3578 04f2 9601 0000 		.long	.LVL52-.Ltext0
 3579 04f6 A201 0000 		.long	.LVL53-.Ltext0
 3580 04fa 0400      		.word	0x4
 3581 04fc 0A        		.byte	0xa
 3582 04fd 007D      		.word	0x7d00
 3583 04ff 9F        		.byte	0x9f
 3584 0500 0000 0000 		.long	0
 3585 0504 0000 0000 		.long	0
 3586               	.LLST41:
GAS LISTING C:\Users\Rando\AppData\Local\Temp\cctKssdG.s 			page 71


 3587 0508 A201 0000 		.long	.LVL53-.Ltext0
 3588 050c AE01 0000 		.long	.LVL54-.Ltext0
 3589 0510 0200      		.word	0x2
 3590 0512 30        		.byte	0x30
 3591 0513 9F        		.byte	0x9f
 3592 0514 AE01 0000 		.long	.LVL54-.Ltext0
 3593 0518 CC01 0000 		.long	.LVL57-.Ltext0
 3594 051c 0600      		.word	0x6
 3595 051e 6C        		.byte	0x6c
 3596 051f 93        		.byte	0x93
 3597 0520 01        		.uleb128 0x1
 3598 0521 6D        		.byte	0x6d
 3599 0522 93        		.byte	0x93
 3600 0523 01        		.uleb128 0x1
 3601 0524 0000 0000 		.long	0
 3602 0528 0000 0000 		.long	0
 3603               	.LLST42:
 3604 052c CC01 0000 		.long	.LVL57-.Ltext0
 3605 0530 D801 0000 		.long	.LVL58-.Ltext0
 3606 0534 0600      		.word	0x6
 3607 0536 9E        		.byte	0x9e
 3608 0537 04        		.uleb128 0x4
 3609 0538 0000 0040 		.long	0x40000000
 3610 053c 0000 0000 		.long	0
 3611 0540 0000 0000 		.long	0
 3612               	.LLST43:
 3613 0544 CC01 0000 		.long	.LVL57-.Ltext0
 3614 0548 D801 0000 		.long	.LVL58-.Ltext0
 3615 054c 0600      		.word	0x6
 3616 054e 9E        		.byte	0x9e
 3617 054f 04        		.uleb128 0x4
 3618 0550 0000 FA46 		.long	0x46fa0000
 3619 0554 0000 0000 		.long	0
 3620 0558 0000 0000 		.long	0
 3621               	.LLST44:
 3622 055c CC01 0000 		.long	.LVL57-.Ltext0
 3623 0560 D801 0000 		.long	.LVL58-.Ltext0
 3624 0564 0400      		.word	0x4
 3625 0566 0A        		.byte	0xa
 3626 0567 007D      		.word	0x7d00
 3627 0569 9F        		.byte	0x9f
 3628 056a 0000 0000 		.long	0
 3629 056e 0000 0000 		.long	0
 3630               	.LLST45:
 3631 0572 E601 0000 		.long	.LVL59-.Ltext0
 3632 0576 2C02 0000 		.long	.LVL62-.Ltext0
 3633 057a 0600      		.word	0x6
 3634 057c 68        		.byte	0x68
 3635 057d 93        		.byte	0x93
 3636 057e 01        		.uleb128 0x1
 3637 057f 69        		.byte	0x69
 3638 0580 93        		.byte	0x93
 3639 0581 01        		.uleb128 0x1
 3640 0582 2C02 0000 		.long	.LVL62-.Ltext0
 3641 0586 3E02 0000 		.long	.LVL63-.Ltext0
 3642 058a 0400      		.word	0x4
 3643 058c F3        		.byte	0xf3
GAS LISTING C:\Users\Rando\AppData\Local\Temp\cctKssdG.s 			page 72


 3644 058d 01        		.uleb128 0x1
 3645 058e 68        		.byte	0x68
 3646 058f 9F        		.byte	0x9f
 3647 0590 3E02 0000 		.long	.LVL63-.Ltext0
 3648 0594 6A02 0000 		.long	.LVL66-.Ltext0
 3649 0598 0600      		.word	0x6
 3650 059a 68        		.byte	0x68
 3651 059b 93        		.byte	0x93
 3652 059c 01        		.uleb128 0x1
 3653 059d 69        		.byte	0x69
 3654 059e 93        		.byte	0x93
 3655 059f 01        		.uleb128 0x1
 3656 05a0 6A02 0000 		.long	.LVL66-.Ltext0
 3657 05a4 7E02 0000 		.long	.LFE19-.Ltext0
 3658 05a8 0400      		.word	0x4
 3659 05aa F3        		.byte	0xf3
 3660 05ab 01        		.uleb128 0x1
 3661 05ac 68        		.byte	0x68
 3662 05ad 9F        		.byte	0x9f
 3663 05ae 0000 0000 		.long	0
 3664 05b2 0000 0000 		.long	0
 3665               	.LLST46:
 3666 05b6 E601 0000 		.long	.LVL59-.Ltext0
 3667 05ba 2802 0000 		.long	.LVL61-.Ltext0
 3668 05be 0600      		.word	0x6
 3669 05c0 66        		.byte	0x66
 3670 05c1 93        		.byte	0x93
 3671 05c2 01        		.uleb128 0x1
 3672 05c3 67        		.byte	0x67
 3673 05c4 93        		.byte	0x93
 3674 05c5 01        		.uleb128 0x1
 3675 05c6 2802 0000 		.long	.LVL61-.Ltext0
 3676 05ca 3E02 0000 		.long	.LVL63-.Ltext0
 3677 05ce 0400      		.word	0x4
 3678 05d0 F3        		.byte	0xf3
 3679 05d1 01        		.uleb128 0x1
 3680 05d2 66        		.byte	0x66
 3681 05d3 9F        		.byte	0x9f
 3682 05d4 3E02 0000 		.long	.LVL63-.Ltext0
 3683 05d8 6602 0000 		.long	.LVL65-.Ltext0
 3684 05dc 0600      		.word	0x6
 3685 05de 66        		.byte	0x66
 3686 05df 93        		.byte	0x93
 3687 05e0 01        		.uleb128 0x1
 3688 05e1 67        		.byte	0x67
 3689 05e2 93        		.byte	0x93
 3690 05e3 01        		.uleb128 0x1
 3691 05e4 6602 0000 		.long	.LVL65-.Ltext0
 3692 05e8 7E02 0000 		.long	.LFE19-.Ltext0
 3693 05ec 0400      		.word	0x4
 3694 05ee F3        		.byte	0xf3
 3695 05ef 01        		.uleb128 0x1
 3696 05f0 66        		.byte	0x66
 3697 05f1 9F        		.byte	0x9f
 3698 05f2 0000 0000 		.long	0
 3699 05f6 0000 0000 		.long	0
 3700               	.LLST47:
GAS LISTING C:\Users\Rando\AppData\Local\Temp\cctKssdG.s 			page 73


 3701 05fa E601 0000 		.long	.LVL59-.Ltext0
 3702 05fe 0E02 0000 		.long	.LVL60-.Ltext0
 3703 0602 0600      		.word	0x6
 3704 0604 62        		.byte	0x62
 3705 0605 93        		.byte	0x93
 3706 0606 01        		.uleb128 0x1
 3707 0607 63        		.byte	0x63
 3708 0608 93        		.byte	0x93
 3709 0609 01        		.uleb128 0x1
 3710 060a 0E02 0000 		.long	.LVL60-.Ltext0
 3711 060e 3E02 0000 		.long	.LVL63-.Ltext0
 3712 0612 0400      		.word	0x4
 3713 0614 F3        		.byte	0xf3
 3714 0615 01        		.uleb128 0x1
 3715 0616 62        		.byte	0x62
 3716 0617 9F        		.byte	0x9f
 3717 0618 3E02 0000 		.long	.LVL63-.Ltext0
 3718 061c 4C02 0000 		.long	.LVL64-.Ltext0
 3719 0620 0600      		.word	0x6
 3720 0622 62        		.byte	0x62
 3721 0623 93        		.byte	0x93
 3722 0624 01        		.uleb128 0x1
 3723 0625 63        		.byte	0x63
 3724 0626 93        		.byte	0x93
 3725 0627 01        		.uleb128 0x1
 3726 0628 4C02 0000 		.long	.LVL64-.Ltext0
 3727 062c 7E02 0000 		.long	.LFE19-.Ltext0
 3728 0630 0400      		.word	0x4
 3729 0632 F3        		.byte	0xf3
 3730 0633 01        		.uleb128 0x1
 3731 0634 62        		.byte	0x62
 3732 0635 9F        		.byte	0x9f
 3733 0636 0000 0000 		.long	0
 3734 063a 0000 0000 		.long	0
 3735               	.LLST48:
 3736 063e 7E02 0000 		.long	.LFB20-.Ltext0
 3737 0642 8002 0000 		.long	.LCFI10-.Ltext0
 3738 0646 0300      		.word	0x3
 3739 0648 92        		.byte	0x92
 3740 0649 20        		.uleb128 0x20
 3741 064a 02        		.sleb128 2
 3742 064b 8002 0000 		.long	.LCFI10-.Ltext0
 3743 064f 8202 0000 		.long	.LCFI11-.Ltext0
 3744 0653 0300      		.word	0x3
 3745 0655 92        		.byte	0x92
 3746 0656 20        		.uleb128 0x20
 3747 0657 03        		.sleb128 3
 3748 0658 8202 0000 		.long	.LCFI11-.Ltext0
 3749 065c 8402 0000 		.long	.LCFI12-.Ltext0
 3750 0660 0300      		.word	0x3
 3751 0662 92        		.byte	0x92
 3752 0663 20        		.uleb128 0x20
 3753 0664 04        		.sleb128 4
 3754 0665 8402 0000 		.long	.LCFI12-.Ltext0
 3755 0669 8602 0000 		.long	.LCFI13-.Ltext0
 3756 066d 0300      		.word	0x3
 3757 066f 92        		.byte	0x92
GAS LISTING C:\Users\Rando\AppData\Local\Temp\cctKssdG.s 			page 74


 3758 0670 20        		.uleb128 0x20
 3759 0671 05        		.sleb128 5
 3760 0672 8602 0000 		.long	.LCFI13-.Ltext0
 3761 0676 8802 0000 		.long	.LCFI14-.Ltext0
 3762 067a 0300      		.word	0x3
 3763 067c 92        		.byte	0x92
 3764 067d 20        		.uleb128 0x20
 3765 067e 06        		.sleb128 6
 3766 067f 8802 0000 		.long	.LCFI14-.Ltext0
 3767 0683 8A02 0000 		.long	.LCFI15-.Ltext0
 3768 0687 0300      		.word	0x3
 3769 0689 92        		.byte	0x92
 3770 068a 20        		.uleb128 0x20
 3771 068b 07        		.sleb128 7
 3772 068c 8A02 0000 		.long	.LCFI15-.Ltext0
 3773 0690 8C02 0000 		.long	.LCFI16-.Ltext0
 3774 0694 0300      		.word	0x3
 3775 0696 92        		.byte	0x92
 3776 0697 20        		.uleb128 0x20
 3777 0698 08        		.sleb128 8
 3778 0699 8C02 0000 		.long	.LCFI16-.Ltext0
 3779 069d 8E02 0000 		.long	.LCFI17-.Ltext0
 3780 06a1 0300      		.word	0x3
 3781 06a3 92        		.byte	0x92
 3782 06a4 20        		.uleb128 0x20
 3783 06a5 09        		.sleb128 9
 3784 06a6 8E02 0000 		.long	.LCFI17-.Ltext0
 3785 06aa 9002 0000 		.long	.LCFI18-.Ltext0
 3786 06ae 0300      		.word	0x3
 3787 06b0 92        		.byte	0x92
 3788 06b1 20        		.uleb128 0x20
 3789 06b2 0A        		.sleb128 10
 3790 06b3 9002 0000 		.long	.LCFI18-.Ltext0
 3791 06b7 9202 0000 		.long	.LCFI19-.Ltext0
 3792 06bb 0300      		.word	0x3
 3793 06bd 92        		.byte	0x92
 3794 06be 20        		.uleb128 0x20
 3795 06bf 0B        		.sleb128 11
 3796 06c0 9202 0000 		.long	.LCFI19-.Ltext0
 3797 06c4 9402 0000 		.long	.LCFI20-.Ltext0
 3798 06c8 0300      		.word	0x3
 3799 06ca 92        		.byte	0x92
 3800 06cb 20        		.uleb128 0x20
 3801 06cc 0C        		.sleb128 12
 3802 06cd 9402 0000 		.long	.LCFI20-.Ltext0
 3803 06d1 A603 0000 		.long	.LFE20-.Ltext0
 3804 06d5 0300      		.word	0x3
 3805 06d7 92        		.byte	0x92
 3806 06d8 20        		.uleb128 0x20
 3807 06d9 0D        		.sleb128 13
 3808 06da 0000 0000 		.long	0
 3809 06de 0000 0000 		.long	0
 3810               	.LLST49:
 3811 06e2 7E02 0000 		.long	.LVL67-.Ltext0
 3812 06e6 A202 0000 		.long	.LVL68-.Ltext0
 3813 06ea 0600      		.word	0x6
 3814 06ec 68        		.byte	0x68
GAS LISTING C:\Users\Rando\AppData\Local\Temp\cctKssdG.s 			page 75


 3815 06ed 93        		.byte	0x93
 3816 06ee 01        		.uleb128 0x1
 3817 06ef 69        		.byte	0x69
 3818 06f0 93        		.byte	0x93
 3819 06f1 01        		.uleb128 0x1
 3820 06f2 A202 0000 		.long	.LVL68-.Ltext0
 3821 06f6 3203 0000 		.long	.LVL82-.Ltext0
 3822 06fa 0600      		.word	0x6
 3823 06fc 6C        		.byte	0x6c
 3824 06fd 93        		.byte	0x93
 3825 06fe 01        		.uleb128 0x1
 3826 06ff 6D        		.byte	0x6d
 3827 0700 93        		.byte	0x93
 3828 0701 01        		.uleb128 0x1
 3829 0702 3203 0000 		.long	.LVL82-.Ltext0
 3830 0706 6603 0000 		.long	.LVL89-.Ltext0
 3831 070a 0400      		.word	0x4
 3832 070c F3        		.byte	0xf3
 3833 070d 01        		.uleb128 0x1
 3834 070e 68        		.byte	0x68
 3835 070f 9F        		.byte	0x9f
 3836 0710 6603 0000 		.long	.LVL89-.Ltext0
 3837 0714 9203 0000 		.long	.LVL91-.Ltext0
 3838 0718 0600      		.word	0x6
 3839 071a 6C        		.byte	0x6c
 3840 071b 93        		.byte	0x93
 3841 071c 01        		.uleb128 0x1
 3842 071d 6D        		.byte	0x6d
 3843 071e 93        		.byte	0x93
 3844 071f 01        		.uleb128 0x1
 3845 0720 9203 0000 		.long	.LVL91-.Ltext0
 3846 0724 A203 0000 		.long	.LVL94-.Ltext0
 3847 0728 0400      		.word	0x4
 3848 072a F3        		.byte	0xf3
 3849 072b 01        		.uleb128 0x1
 3850 072c 68        		.byte	0x68
 3851 072d 9F        		.byte	0x9f
 3852 072e A203 0000 		.long	.LVL94-.Ltext0
 3853 0732 A603 0000 		.long	.LFE20-.Ltext0
 3854 0736 0600      		.word	0x6
 3855 0738 6C        		.byte	0x6c
 3856 0739 93        		.byte	0x93
 3857 073a 01        		.uleb128 0x1
 3858 073b 6D        		.byte	0x6d
 3859 073c 93        		.byte	0x93
 3860 073d 01        		.uleb128 0x1
 3861 073e 0000 0000 		.long	0
 3862 0742 0000 0000 		.long	0
 3863               	.LLST50:
 3864 0746 7E02 0000 		.long	.LVL67-.Ltext0
 3865 074a A502 0000 		.long	.LVL69-1-.Ltext0
 3866 074e 0600      		.word	0x6
 3867 0750 66        		.byte	0x66
 3868 0751 93        		.byte	0x93
 3869 0752 01        		.uleb128 0x1
 3870 0753 67        		.byte	0x67
 3871 0754 93        		.byte	0x93
GAS LISTING C:\Users\Rando\AppData\Local\Temp\cctKssdG.s 			page 76


 3872 0755 01        		.uleb128 0x1
 3873 0756 A502 0000 		.long	.LVL69-1-.Ltext0
 3874 075a A603 0000 		.long	.LFE20-.Ltext0
 3875 075e 0400      		.word	0x4
 3876 0760 F3        		.byte	0xf3
 3877 0761 01        		.uleb128 0x1
 3878 0762 66        		.byte	0x66
 3879 0763 9F        		.byte	0x9f
 3880 0764 0000 0000 		.long	0
 3881 0768 0000 0000 		.long	0
 3882               	.LLST51:
 3883 076c 7E02 0000 		.long	.LVL67-.Ltext0
 3884 0770 A502 0000 		.long	.LVL69-1-.Ltext0
 3885 0774 0600      		.word	0x6
 3886 0776 64        		.byte	0x64
 3887 0777 93        		.byte	0x93
 3888 0778 01        		.uleb128 0x1
 3889 0779 65        		.byte	0x65
 3890 077a 93        		.byte	0x93
 3891 077b 01        		.uleb128 0x1
 3892 077c A502 0000 		.long	.LVL69-1-.Ltext0
 3893 0780 6003 0000 		.long	.LVL88-.Ltext0
 3894 0784 0600      		.word	0x6
 3895 0786 5A        		.byte	0x5a
 3896 0787 93        		.byte	0x93
 3897 0788 01        		.uleb128 0x1
 3898 0789 5B        		.byte	0x5b
 3899 078a 93        		.byte	0x93
 3900 078b 01        		.uleb128 0x1
 3901 078c 6003 0000 		.long	.LVL88-.Ltext0
 3902 0790 6603 0000 		.long	.LVL89-.Ltext0
 3903 0794 0400      		.word	0x4
 3904 0796 F3        		.byte	0xf3
 3905 0797 01        		.uleb128 0x1
 3906 0798 64        		.byte	0x64
 3907 0799 9F        		.byte	0x9f
 3908 079a 6603 0000 		.long	.LVL89-.Ltext0
 3909 079e A603 0000 		.long	.LFE20-.Ltext0
 3910 07a2 0600      		.word	0x6
 3911 07a4 5A        		.byte	0x5a
 3912 07a5 93        		.byte	0x93
 3913 07a6 01        		.uleb128 0x1
 3914 07a7 5B        		.byte	0x5b
 3915 07a8 93        		.byte	0x93
 3916 07a9 01        		.uleb128 0x1
 3917 07aa 0000 0000 		.long	0
 3918 07ae 0000 0000 		.long	0
 3919               	.LLST52:
 3920 07b2 7E02 0000 		.long	.LVL67-.Ltext0
 3921 07b6 A502 0000 		.long	.LVL69-1-.Ltext0
 3922 07ba 0600      		.word	0x6
 3923 07bc 62        		.byte	0x62
 3924 07bd 93        		.byte	0x93
 3925 07be 01        		.uleb128 0x1
 3926 07bf 63        		.byte	0x63
 3927 07c0 93        		.byte	0x93
 3928 07c1 01        		.uleb128 0x1
GAS LISTING C:\Users\Rando\AppData\Local\Temp\cctKssdG.s 			page 77


 3929 07c2 A502 0000 		.long	.LVL69-1-.Ltext0
 3930 07c6 A603 0000 		.long	.LFE20-.Ltext0
 3931 07ca 0400      		.word	0x4
 3932 07cc F3        		.byte	0xf3
 3933 07cd 01        		.uleb128 0x1
 3934 07ce 62        		.byte	0x62
 3935 07cf 9F        		.byte	0x9f
 3936 07d0 0000 0000 		.long	0
 3937 07d4 0000 0000 		.long	0
 3938               	.LLST53:
 3939 07d8 7E02 0000 		.long	.LVL67-.Ltext0
 3940 07dc 2E03 0000 		.long	.LVL81-.Ltext0
 3941 07e0 0600      		.word	0x6
 3942 07e2 60        		.byte	0x60
 3943 07e3 93        		.byte	0x93
 3944 07e4 01        		.uleb128 0x1
 3945 07e5 61        		.byte	0x61
 3946 07e6 93        		.byte	0x93
 3947 07e7 01        		.uleb128 0x1
 3948 07e8 2E03 0000 		.long	.LVL81-.Ltext0
 3949 07ec 5C03 0000 		.long	.LVL87-.Ltext0
 3950 07f0 0600      		.word	0x6
 3951 07f2 5C        		.byte	0x5c
 3952 07f3 93        		.byte	0x93
 3953 07f4 01        		.uleb128 0x1
 3954 07f5 5D        		.byte	0x5d
 3955 07f6 93        		.byte	0x93
 3956 07f7 01        		.uleb128 0x1
 3957 07f8 5C03 0000 		.long	.LVL87-.Ltext0
 3958 07fc 6603 0000 		.long	.LVL89-.Ltext0
 3959 0800 0400      		.word	0x4
 3960 0802 F3        		.byte	0xf3
 3961 0803 01        		.uleb128 0x1
 3962 0804 60        		.byte	0x60
 3963 0805 9F        		.byte	0x9f
 3964 0806 6603 0000 		.long	.LVL89-.Ltext0
 3965 080a A603 0000 		.long	.LFE20-.Ltext0
 3966 080e 0600      		.word	0x6
 3967 0810 5C        		.byte	0x5c
 3968 0811 93        		.byte	0x93
 3969 0812 01        		.uleb128 0x1
 3970 0813 5D        		.byte	0x5d
 3971 0814 93        		.byte	0x93
 3972 0815 01        		.uleb128 0x1
 3973 0816 0000 0000 		.long	0
 3974 081a 0000 0000 		.long	0
 3975               	.LLST54:
 3976 081e EC02 0000 		.long	.LVL77-.Ltext0
 3977 0822 F802 0000 		.long	.LVL78-.Ltext0
 3978 0826 0600      		.word	0x6
 3979 0828 9E        		.byte	0x9e
 3980 0829 04        		.uleb128 0x4
 3981 082a 0000 0040 		.long	0x40000000
 3982 082e 0000 0000 		.long	0
 3983 0832 0000 0000 		.long	0
 3984               	.LLST55:
 3985 0836 EC02 0000 		.long	.LVL77-.Ltext0
GAS LISTING C:\Users\Rando\AppData\Local\Temp\cctKssdG.s 			page 78


 3986 083a F802 0000 		.long	.LVL78-.Ltext0
 3987 083e 0600      		.word	0x6
 3988 0840 9E        		.byte	0x9e
 3989 0841 04        		.uleb128 0x4
 3990 0842 0000 FA46 		.long	0x46fa0000
 3991 0846 0000 0000 		.long	0
 3992 084a 0000 0000 		.long	0
 3993               	.LLST56:
 3994 084e EC02 0000 		.long	.LVL77-.Ltext0
 3995 0852 F802 0000 		.long	.LVL78-.Ltext0
 3996 0856 0400      		.word	0x4
 3997 0858 0A        		.byte	0xa
 3998 0859 007D      		.word	0x7d00
 3999 085b 9F        		.byte	0x9f
 4000 085c 0000 0000 		.long	0
 4001 0860 0000 0000 		.long	0
 4002               	.LLST57:
 4003 0864 0603 0000 		.long	.LVL80-.Ltext0
 4004 0868 3203 0000 		.long	.LVL82-.Ltext0
 4005 086c 0200      		.word	0x2
 4006 086e 30        		.byte	0x30
 4007 086f 9F        		.byte	0x9f
 4008 0870 3203 0000 		.long	.LVL82-.Ltext0
 4009 0874 3403 0000 		.long	.LVL83-.Ltext0
 4010 0878 0700      		.word	0x7
 4011 087a 8C        		.byte	0x8c
 4012 087b 00        		.sleb128 0
 4013 087c F3        		.byte	0xf3
 4014 087d 01        		.uleb128 0x1
 4015 087e 68        		.byte	0x68
 4016 087f 1C        		.byte	0x1c
 4017 0880 9F        		.byte	0x9f
 4018 0881 3403 0000 		.long	.LVL83-.Ltext0
 4019 0885 3803 0000 		.long	.LVL84-.Ltext0
 4020 0889 0800      		.word	0x8
 4021 088b F3        		.byte	0xf3
 4022 088c 01        		.uleb128 0x1
 4023 088d 68        		.byte	0x68
 4024 088e 20        		.byte	0x20
 4025 088f 8C        		.byte	0x8c
 4026 0890 00        		.sleb128 0
 4027 0891 22        		.byte	0x22
 4028 0892 9F        		.byte	0x9f
 4029 0893 3803 0000 		.long	.LVL84-.Ltext0
 4030 0897 3E03 0000 		.long	.LVL85-.Ltext0
 4031 089b 0700      		.word	0x7
 4032 089d 8C        		.byte	0x8c
 4033 089e 00        		.sleb128 0
 4034 089f F3        		.byte	0xf3
 4035 08a0 01        		.uleb128 0x1
 4036 08a1 68        		.byte	0x68
 4037 08a2 1C        		.byte	0x1c
 4038 08a3 9F        		.byte	0x9f
 4039 08a4 6603 0000 		.long	.LVL89-.Ltext0
 4040 08a8 6A03 0000 		.long	.LVL90-.Ltext0
 4041 08ac 0200      		.word	0x2
 4042 08ae 30        		.byte	0x30
GAS LISTING C:\Users\Rando\AppData\Local\Temp\cctKssdG.s 			page 79


 4043 08af 9F        		.byte	0x9f
 4044 08b0 0000 0000 		.long	0
 4045 08b4 0000 0000 		.long	0
 4046               	.LLST58:
 4047 08b8 3E03 0000 		.long	.LVL85-.Ltext0
 4048 08bc 4A03 0000 		.long	.LVL86-.Ltext0
 4049 08c0 0600      		.word	0x6
 4050 08c2 9E        		.byte	0x9e
 4051 08c3 04        		.uleb128 0x4
 4052 08c4 0000 0040 		.long	0x40000000
 4053 08c8 0000 0000 		.long	0
 4054 08cc 0000 0000 		.long	0
 4055               	.LLST59:
 4056 08d0 3E03 0000 		.long	.LVL85-.Ltext0
 4057 08d4 4A03 0000 		.long	.LVL86-.Ltext0
 4058 08d8 0600      		.word	0x6
 4059 08da 9E        		.byte	0x9e
 4060 08db 04        		.uleb128 0x4
 4061 08dc 0000 FA46 		.long	0x46fa0000
 4062 08e0 0000 0000 		.long	0
 4063 08e4 0000 0000 		.long	0
 4064               	.LLST60:
 4065 08e8 3E03 0000 		.long	.LVL85-.Ltext0
 4066 08ec 4A03 0000 		.long	.LVL86-.Ltext0
 4067 08f0 0400      		.word	0x4
 4068 08f2 0A        		.byte	0xa
 4069 08f3 007D      		.word	0x7d00
 4070 08f5 9F        		.byte	0x9f
 4071 08f6 0000 0000 		.long	0
 4072 08fa 0000 0000 		.long	0
 4073               	.LLST61:
 4074 08fe 6A03 0000 		.long	.LVL90-.Ltext0
 4075 0902 9203 0000 		.long	.LVL91-.Ltext0
 4076 0906 0200      		.word	0x2
 4077 0908 30        		.byte	0x30
 4078 0909 9F        		.byte	0x9f
 4079 090a 9203 0000 		.long	.LVL91-.Ltext0
 4080 090e A203 0000 		.long	.LVL94-.Ltext0
 4081 0912 0600      		.word	0x6
 4082 0914 6C        		.byte	0x6c
 4083 0915 93        		.byte	0x93
 4084 0916 01        		.uleb128 0x1
 4085 0917 6D        		.byte	0x6d
 4086 0918 93        		.byte	0x93
 4087 0919 01        		.uleb128 0x1
 4088 091a A203 0000 		.long	.LVL94-.Ltext0
 4089 091e A603 0000 		.long	.LFE20-.Ltext0
 4090 0922 0200      		.word	0x2
 4091 0924 30        		.byte	0x30
 4092 0925 9F        		.byte	0x9f
 4093 0926 0000 0000 		.long	0
 4094 092a 0000 0000 		.long	0
 4095               	.LLST62:
 4096 092e A603 0000 		.long	.LFB21-.Ltext0
 4097 0932 A803 0000 		.long	.LCFI21-.Ltext0
 4098 0936 0300      		.word	0x3
 4099 0938 92        		.byte	0x92
GAS LISTING C:\Users\Rando\AppData\Local\Temp\cctKssdG.s 			page 80


 4100 0939 20        		.uleb128 0x20
 4101 093a 02        		.sleb128 2
 4102 093b A803 0000 		.long	.LCFI21-.Ltext0
 4103 093f AA03 0000 		.long	.LCFI22-.Ltext0
 4104 0943 0300      		.word	0x3
 4105 0945 92        		.byte	0x92
 4106 0946 20        		.uleb128 0x20
 4107 0947 03        		.sleb128 3
 4108 0948 AA03 0000 		.long	.LCFI22-.Ltext0
 4109 094c AC03 0000 		.long	.LCFI23-.Ltext0
 4110 0950 0300      		.word	0x3
 4111 0952 92        		.byte	0x92
 4112 0953 20        		.uleb128 0x20
 4113 0954 04        		.sleb128 4
 4114 0955 AC03 0000 		.long	.LCFI23-.Ltext0
 4115 0959 AE03 0000 		.long	.LCFI24-.Ltext0
 4116 095d 0300      		.word	0x3
 4117 095f 92        		.byte	0x92
 4118 0960 20        		.uleb128 0x20
 4119 0961 05        		.sleb128 5
 4120 0962 AE03 0000 		.long	.LCFI24-.Ltext0
 4121 0966 B003 0000 		.long	.LCFI25-.Ltext0
 4122 096a 0300      		.word	0x3
 4123 096c 92        		.byte	0x92
 4124 096d 20        		.uleb128 0x20
 4125 096e 06        		.sleb128 6
 4126 096f B003 0000 		.long	.LCFI25-.Ltext0
 4127 0973 B203 0000 		.long	.LCFI26-.Ltext0
 4128 0977 0300      		.word	0x3
 4129 0979 92        		.byte	0x92
 4130 097a 20        		.uleb128 0x20
 4131 097b 07        		.sleb128 7
 4132 097c B203 0000 		.long	.LCFI26-.Ltext0
 4133 0980 B403 0000 		.long	.LCFI27-.Ltext0
 4134 0984 0300      		.word	0x3
 4135 0986 92        		.byte	0x92
 4136 0987 20        		.uleb128 0x20
 4137 0988 08        		.sleb128 8
 4138 0989 B403 0000 		.long	.LCFI27-.Ltext0
 4139 098d B603 0000 		.long	.LCFI28-.Ltext0
 4140 0991 0300      		.word	0x3
 4141 0993 92        		.byte	0x92
 4142 0994 20        		.uleb128 0x20
 4143 0995 09        		.sleb128 9
 4144 0996 B603 0000 		.long	.LCFI28-.Ltext0
 4145 099a B803 0000 		.long	.LCFI29-.Ltext0
 4146 099e 0300      		.word	0x3
 4147 09a0 92        		.byte	0x92
 4148 09a1 20        		.uleb128 0x20
 4149 09a2 0A        		.sleb128 10
 4150 09a3 B803 0000 		.long	.LCFI29-.Ltext0
 4151 09a7 BA03 0000 		.long	.LCFI30-.Ltext0
 4152 09ab 0300      		.word	0x3
 4153 09ad 92        		.byte	0x92
 4154 09ae 20        		.uleb128 0x20
 4155 09af 0B        		.sleb128 11
 4156 09b0 BA03 0000 		.long	.LCFI30-.Ltext0
GAS LISTING C:\Users\Rando\AppData\Local\Temp\cctKssdG.s 			page 81


 4157 09b4 BC03 0000 		.long	.LCFI31-.Ltext0
 4158 09b8 0300      		.word	0x3
 4159 09ba 92        		.byte	0x92
 4160 09bb 20        		.uleb128 0x20
 4161 09bc 0C        		.sleb128 12
 4162 09bd BC03 0000 		.long	.LCFI31-.Ltext0
 4163 09c1 CE04 0000 		.long	.LFE21-.Ltext0
 4164 09c5 0300      		.word	0x3
 4165 09c7 92        		.byte	0x92
 4166 09c8 20        		.uleb128 0x20
 4167 09c9 0D        		.sleb128 13
 4168 09ca 0000 0000 		.long	0
 4169 09ce 0000 0000 		.long	0
 4170               	.LLST63:
 4171 09d2 A603 0000 		.long	.LVL95-.Ltext0
 4172 09d6 CA03 0000 		.long	.LVL96-.Ltext0
 4173 09da 0600      		.word	0x6
 4174 09dc 68        		.byte	0x68
 4175 09dd 93        		.byte	0x93
 4176 09de 01        		.uleb128 0x1
 4177 09df 69        		.byte	0x69
 4178 09e0 93        		.byte	0x93
 4179 09e1 01        		.uleb128 0x1
 4180 09e2 CA03 0000 		.long	.LVL96-.Ltext0
 4181 09e6 5A04 0000 		.long	.LVL110-.Ltext0
 4182 09ea 0600      		.word	0x6
 4183 09ec 6C        		.byte	0x6c
 4184 09ed 93        		.byte	0x93
 4185 09ee 01        		.uleb128 0x1
 4186 09ef 6D        		.byte	0x6d
 4187 09f0 93        		.byte	0x93
 4188 09f1 01        		.uleb128 0x1
 4189 09f2 5A04 0000 		.long	.LVL110-.Ltext0
 4190 09f6 8E04 0000 		.long	.LVL117-.Ltext0
 4191 09fa 0400      		.word	0x4
 4192 09fc F3        		.byte	0xf3
 4193 09fd 01        		.uleb128 0x1
 4194 09fe 68        		.byte	0x68
 4195 09ff 9F        		.byte	0x9f
 4196 0a00 8E04 0000 		.long	.LVL117-.Ltext0
 4197 0a04 BA04 0000 		.long	.LVL119-.Ltext0
 4198 0a08 0600      		.word	0x6
 4199 0a0a 6C        		.byte	0x6c
 4200 0a0b 93        		.byte	0x93
 4201 0a0c 01        		.uleb128 0x1
 4202 0a0d 6D        		.byte	0x6d
 4203 0a0e 93        		.byte	0x93
 4204 0a0f 01        		.uleb128 0x1
 4205 0a10 BA04 0000 		.long	.LVL119-.Ltext0
 4206 0a14 CA04 0000 		.long	.LVL122-.Ltext0
 4207 0a18 0400      		.word	0x4
 4208 0a1a F3        		.byte	0xf3
 4209 0a1b 01        		.uleb128 0x1
 4210 0a1c 68        		.byte	0x68
 4211 0a1d 9F        		.byte	0x9f
 4212 0a1e CA04 0000 		.long	.LVL122-.Ltext0
 4213 0a22 CE04 0000 		.long	.LFE21-.Ltext0
GAS LISTING C:\Users\Rando\AppData\Local\Temp\cctKssdG.s 			page 82


 4214 0a26 0600      		.word	0x6
 4215 0a28 6C        		.byte	0x6c
 4216 0a29 93        		.byte	0x93
 4217 0a2a 01        		.uleb128 0x1
 4218 0a2b 6D        		.byte	0x6d
 4219 0a2c 93        		.byte	0x93
 4220 0a2d 01        		.uleb128 0x1
 4221 0a2e 0000 0000 		.long	0
 4222 0a32 0000 0000 		.long	0
 4223               	.LLST64:
 4224 0a36 A603 0000 		.long	.LVL95-.Ltext0
 4225 0a3a CD03 0000 		.long	.LVL97-1-.Ltext0
 4226 0a3e 0600      		.word	0x6
 4227 0a40 66        		.byte	0x66
 4228 0a41 93        		.byte	0x93
 4229 0a42 01        		.uleb128 0x1
 4230 0a43 67        		.byte	0x67
 4231 0a44 93        		.byte	0x93
 4232 0a45 01        		.uleb128 0x1
 4233 0a46 CD03 0000 		.long	.LVL97-1-.Ltext0
 4234 0a4a CE04 0000 		.long	.LFE21-.Ltext0
 4235 0a4e 0400      		.word	0x4
 4236 0a50 F3        		.byte	0xf3
 4237 0a51 01        		.uleb128 0x1
 4238 0a52 66        		.byte	0x66
 4239 0a53 9F        		.byte	0x9f
 4240 0a54 0000 0000 		.long	0
 4241 0a58 0000 0000 		.long	0
 4242               	.LLST65:
 4243 0a5c A603 0000 		.long	.LVL95-.Ltext0
 4244 0a60 CD03 0000 		.long	.LVL97-1-.Ltext0
 4245 0a64 0600      		.word	0x6
 4246 0a66 64        		.byte	0x64
 4247 0a67 93        		.byte	0x93
 4248 0a68 01        		.uleb128 0x1
 4249 0a69 65        		.byte	0x65
 4250 0a6a 93        		.byte	0x93
 4251 0a6b 01        		.uleb128 0x1
 4252 0a6c CD03 0000 		.long	.LVL97-1-.Ltext0
 4253 0a70 8804 0000 		.long	.LVL116-.Ltext0
 4254 0a74 0600      		.word	0x6
 4255 0a76 5A        		.byte	0x5a
 4256 0a77 93        		.byte	0x93
 4257 0a78 01        		.uleb128 0x1
 4258 0a79 5B        		.byte	0x5b
 4259 0a7a 93        		.byte	0x93
 4260 0a7b 01        		.uleb128 0x1
 4261 0a7c 8804 0000 		.long	.LVL116-.Ltext0
 4262 0a80 8E04 0000 		.long	.LVL117-.Ltext0
 4263 0a84 0400      		.word	0x4
 4264 0a86 F3        		.byte	0xf3
 4265 0a87 01        		.uleb128 0x1
 4266 0a88 64        		.byte	0x64
 4267 0a89 9F        		.byte	0x9f
 4268 0a8a 8E04 0000 		.long	.LVL117-.Ltext0
 4269 0a8e CE04 0000 		.long	.LFE21-.Ltext0
 4270 0a92 0600      		.word	0x6
GAS LISTING C:\Users\Rando\AppData\Local\Temp\cctKssdG.s 			page 83


 4271 0a94 5A        		.byte	0x5a
 4272 0a95 93        		.byte	0x93
 4273 0a96 01        		.uleb128 0x1
 4274 0a97 5B        		.byte	0x5b
 4275 0a98 93        		.byte	0x93
 4276 0a99 01        		.uleb128 0x1
 4277 0a9a 0000 0000 		.long	0
 4278 0a9e 0000 0000 		.long	0
 4279               	.LLST66:
 4280 0aa2 A603 0000 		.long	.LVL95-.Ltext0
 4281 0aa6 CD03 0000 		.long	.LVL97-1-.Ltext0
 4282 0aaa 0600      		.word	0x6
 4283 0aac 62        		.byte	0x62
 4284 0aad 93        		.byte	0x93
 4285 0aae 01        		.uleb128 0x1
 4286 0aaf 63        		.byte	0x63
 4287 0ab0 93        		.byte	0x93
 4288 0ab1 01        		.uleb128 0x1
 4289 0ab2 CD03 0000 		.long	.LVL97-1-.Ltext0
 4290 0ab6 CE04 0000 		.long	.LFE21-.Ltext0
 4291 0aba 0400      		.word	0x4
 4292 0abc F3        		.byte	0xf3
 4293 0abd 01        		.uleb128 0x1
 4294 0abe 62        		.byte	0x62
 4295 0abf 9F        		.byte	0x9f
 4296 0ac0 0000 0000 		.long	0
 4297 0ac4 0000 0000 		.long	0
 4298               	.LLST67:
 4299 0ac8 A603 0000 		.long	.LVL95-.Ltext0
 4300 0acc 5604 0000 		.long	.LVL109-.Ltext0
 4301 0ad0 0600      		.word	0x6
 4302 0ad2 60        		.byte	0x60
 4303 0ad3 93        		.byte	0x93
 4304 0ad4 01        		.uleb128 0x1
 4305 0ad5 61        		.byte	0x61
 4306 0ad6 93        		.byte	0x93
 4307 0ad7 01        		.uleb128 0x1
 4308 0ad8 5604 0000 		.long	.LVL109-.Ltext0
 4309 0adc 8404 0000 		.long	.LVL115-.Ltext0
 4310 0ae0 0600      		.word	0x6
 4311 0ae2 5C        		.byte	0x5c
 4312 0ae3 93        		.byte	0x93
 4313 0ae4 01        		.uleb128 0x1
 4314 0ae5 5D        		.byte	0x5d
 4315 0ae6 93        		.byte	0x93
 4316 0ae7 01        		.uleb128 0x1
 4317 0ae8 8404 0000 		.long	.LVL115-.Ltext0
 4318 0aec 8E04 0000 		.long	.LVL117-.Ltext0
 4319 0af0 0400      		.word	0x4
 4320 0af2 F3        		.byte	0xf3
 4321 0af3 01        		.uleb128 0x1
 4322 0af4 60        		.byte	0x60
 4323 0af5 9F        		.byte	0x9f
 4324 0af6 8E04 0000 		.long	.LVL117-.Ltext0
 4325 0afa CE04 0000 		.long	.LFE21-.Ltext0
 4326 0afe 0600      		.word	0x6
 4327 0b00 5C        		.byte	0x5c
GAS LISTING C:\Users\Rando\AppData\Local\Temp\cctKssdG.s 			page 84


 4328 0b01 93        		.byte	0x93
 4329 0b02 01        		.uleb128 0x1
 4330 0b03 5D        		.byte	0x5d
 4331 0b04 93        		.byte	0x93
 4332 0b05 01        		.uleb128 0x1
 4333 0b06 0000 0000 		.long	0
 4334 0b0a 0000 0000 		.long	0
 4335               	.LLST68:
 4336 0b0e 1404 0000 		.long	.LVL105-.Ltext0
 4337 0b12 2004 0000 		.long	.LVL106-.Ltext0
 4338 0b16 0600      		.word	0x6
 4339 0b18 9E        		.byte	0x9e
 4340 0b19 04        		.uleb128 0x4
 4341 0b1a 0000 0040 		.long	0x40000000
 4342 0b1e 0000 0000 		.long	0
 4343 0b22 0000 0000 		.long	0
 4344               	.LLST69:
 4345 0b26 1404 0000 		.long	.LVL105-.Ltext0
 4346 0b2a 2004 0000 		.long	.LVL106-.Ltext0
 4347 0b2e 0600      		.word	0x6
 4348 0b30 9E        		.byte	0x9e
 4349 0b31 04        		.uleb128 0x4
 4350 0b32 0000 FA46 		.long	0x46fa0000
 4351 0b36 0000 0000 		.long	0
 4352 0b3a 0000 0000 		.long	0
 4353               	.LLST70:
 4354 0b3e 1404 0000 		.long	.LVL105-.Ltext0
 4355 0b42 2004 0000 		.long	.LVL106-.Ltext0
 4356 0b46 0400      		.word	0x4
 4357 0b48 0A        		.byte	0xa
 4358 0b49 007D      		.word	0x7d00
 4359 0b4b 9F        		.byte	0x9f
 4360 0b4c 0000 0000 		.long	0
 4361 0b50 0000 0000 		.long	0
 4362               	.LLST71:
 4363 0b54 2E04 0000 		.long	.LVL108-.Ltext0
 4364 0b58 5A04 0000 		.long	.LVL110-.Ltext0
 4365 0b5c 0200      		.word	0x2
 4366 0b5e 30        		.byte	0x30
 4367 0b5f 9F        		.byte	0x9f
 4368 0b60 5A04 0000 		.long	.LVL110-.Ltext0
 4369 0b64 5C04 0000 		.long	.LVL111-.Ltext0
 4370 0b68 0700      		.word	0x7
 4371 0b6a 8C        		.byte	0x8c
 4372 0b6b 00        		.sleb128 0
 4373 0b6c F3        		.byte	0xf3
 4374 0b6d 01        		.uleb128 0x1
 4375 0b6e 68        		.byte	0x68
 4376 0b6f 1C        		.byte	0x1c
 4377 0b70 9F        		.byte	0x9f
 4378 0b71 5C04 0000 		.long	.LVL111-.Ltext0
 4379 0b75 6004 0000 		.long	.LVL112-.Ltext0
 4380 0b79 0800      		.word	0x8
 4381 0b7b F3        		.byte	0xf3
 4382 0b7c 01        		.uleb128 0x1
 4383 0b7d 68        		.byte	0x68
 4384 0b7e 20        		.byte	0x20
GAS LISTING C:\Users\Rando\AppData\Local\Temp\cctKssdG.s 			page 85


 4385 0b7f 8C        		.byte	0x8c
 4386 0b80 00        		.sleb128 0
 4387 0b81 22        		.byte	0x22
 4388 0b82 9F        		.byte	0x9f
 4389 0b83 6004 0000 		.long	.LVL112-.Ltext0
 4390 0b87 6604 0000 		.long	.LVL113-.Ltext0
 4391 0b8b 0700      		.word	0x7
 4392 0b8d 8C        		.byte	0x8c
 4393 0b8e 00        		.sleb128 0
 4394 0b8f F3        		.byte	0xf3
 4395 0b90 01        		.uleb128 0x1
 4396 0b91 68        		.byte	0x68
 4397 0b92 1C        		.byte	0x1c
 4398 0b93 9F        		.byte	0x9f
 4399 0b94 8E04 0000 		.long	.LVL117-.Ltext0
 4400 0b98 9204 0000 		.long	.LVL118-.Ltext0
 4401 0b9c 0200      		.word	0x2
 4402 0b9e 30        		.byte	0x30
 4403 0b9f 9F        		.byte	0x9f
 4404 0ba0 0000 0000 		.long	0
 4405 0ba4 0000 0000 		.long	0
 4406               	.LLST72:
 4407 0ba8 6604 0000 		.long	.LVL113-.Ltext0
 4408 0bac 7204 0000 		.long	.LVL114-.Ltext0
 4409 0bb0 0600      		.word	0x6
 4410 0bb2 9E        		.byte	0x9e
 4411 0bb3 04        		.uleb128 0x4
 4412 0bb4 0000 0040 		.long	0x40000000
 4413 0bb8 0000 0000 		.long	0
 4414 0bbc 0000 0000 		.long	0
 4415               	.LLST73:
 4416 0bc0 6604 0000 		.long	.LVL113-.Ltext0
 4417 0bc4 7204 0000 		.long	.LVL114-.Ltext0
 4418 0bc8 0600      		.word	0x6
 4419 0bca 9E        		.byte	0x9e
 4420 0bcb 04        		.uleb128 0x4
 4421 0bcc 0000 FA46 		.long	0x46fa0000
 4422 0bd0 0000 0000 		.long	0
 4423 0bd4 0000 0000 		.long	0
 4424               	.LLST74:
 4425 0bd8 6604 0000 		.long	.LVL113-.Ltext0
 4426 0bdc 7204 0000 		.long	.LVL114-.Ltext0
 4427 0be0 0400      		.word	0x4
 4428 0be2 0A        		.byte	0xa
 4429 0be3 007D      		.word	0x7d00
 4430 0be5 9F        		.byte	0x9f
 4431 0be6 0000 0000 		.long	0
 4432 0bea 0000 0000 		.long	0
 4433               	.LLST75:
 4434 0bee 9204 0000 		.long	.LVL118-.Ltext0
 4435 0bf2 BA04 0000 		.long	.LVL119-.Ltext0
 4436 0bf6 0200      		.word	0x2
 4437 0bf8 30        		.byte	0x30
 4438 0bf9 9F        		.byte	0x9f
 4439 0bfa BA04 0000 		.long	.LVL119-.Ltext0
 4440 0bfe CA04 0000 		.long	.LVL122-.Ltext0
 4441 0c02 0600      		.word	0x6
GAS LISTING C:\Users\Rando\AppData\Local\Temp\cctKssdG.s 			page 86


 4442 0c04 6C        		.byte	0x6c
 4443 0c05 93        		.byte	0x93
 4444 0c06 01        		.uleb128 0x1
 4445 0c07 6D        		.byte	0x6d
 4446 0c08 93        		.byte	0x93
 4447 0c09 01        		.uleb128 0x1
 4448 0c0a CA04 0000 		.long	.LVL122-.Ltext0
 4449 0c0e CE04 0000 		.long	.LFE21-.Ltext0
 4450 0c12 0200      		.word	0x2
 4451 0c14 30        		.byte	0x30
 4452 0c15 9F        		.byte	0x9f
 4453 0c16 0000 0000 		.long	0
 4454 0c1a 0000 0000 		.long	0
 4455               		.section	.debug_aranges,"",@progbits
 4456 0000 1C00 0000 		.long	0x1c
 4457 0004 0200      		.word	0x2
 4458 0006 0000 0000 		.long	.Ldebug_info0
 4459 000a 04        		.byte	0x4
 4460 000b 00        		.byte	0
 4461 000c 0000      		.word	0
 4462 000e 0000      		.word	0
 4463 0010 0000 0000 		.long	.Ltext0
 4464 0014 D204 0000 		.long	.Letext0-.Ltext0
 4465 0018 0000 0000 		.long	0
 4466 001c 0000 0000 		.long	0
 4467               		.section	.debug_ranges,"",@progbits
 4468               	.Ldebug_ranges0:
 4469 0000 FE02 0000 		.long	.LBB76-.Ltext0
 4470 0004 0203 0000 		.long	.LBE76-.Ltext0
 4471 0008 0603 0000 		.long	.LBB77-.Ltext0
 4472 000c 3E03 0000 		.long	.LBE77-.Ltext0
 4473 0010 6603 0000 		.long	.LBB80-.Ltext0
 4474 0014 6A03 0000 		.long	.LBE80-.Ltext0
 4475 0018 0000 0000 		.long	0
 4476 001c 0000 0000 		.long	0
 4477 0020 2604 0000 		.long	.LBB84-.Ltext0
 4478 0024 2A04 0000 		.long	.LBE84-.Ltext0
 4479 0028 2E04 0000 		.long	.LBB85-.Ltext0
 4480 002c 6604 0000 		.long	.LBE85-.Ltext0
 4481 0030 8E04 0000 		.long	.LBB88-.Ltext0
 4482 0034 9204 0000 		.long	.LBE88-.Ltext0
 4483 0038 0000 0000 		.long	0
 4484 003c 0000 0000 		.long	0
 4485               		.section	.debug_line,"",@progbits
 4486               	.Ldebug_line0:
 4487 0000 8504 0000 		.section	.debug_str,"MS",@progbits,1
 4487      0200 9100 
 4487      0000 0201 
 4487      FB0E 0A00 
 4487      0101 0101 
 4488               	.LASF21:
 4489 0000 4549 4E4B 		.string	"EINK_display_frame"
 4489      5F64 6973 
 4489      706C 6179 
 4489      5F66 7261 
 4489      6D65 00
 4490               	.LASF30:
GAS LISTING C:\Users\Rando\AppData\Local\Temp\cctKssdG.s 			page 87


 4491 0013 5350 495F 		.string	"SPI_unset_EINK_cs"
 4491      756E 7365 
 4491      745F 4549 
 4491      4E4B 5F63 
 4491      7300 
 4492               	.LASF24:
 4493 0025 4549 4E4B 		.string	"EINK_draw_absolute_pixel"
 4493      5F64 7261 
 4493      775F 6162 
 4493      736F 6C75 
 4493      7465 5F70 
 4494               	.LASF34:
 4495 003e 7372 632F 		.string	"src/eink.c"
 4495      6569 6E6B 
 4495      2E63 00
 4496               	.LASF16:
 4497 0049 636F 6D6D 		.string	"command"
 4497      616E 6400 
 4498               	.LASF38:
 4499 0051 5F5F 6275 		.string	"__builtin_avr_delay_cycles"
 4499      696C 7469 
 4499      6E5F 6176 
 4499      725F 6465 
 4499      6C61 795F 
 4500               	.LASF20:
 4501 006c 4549 4E4B 		.string	"EINK_init"
 4501      5F69 6E69 
 4501      7400 
 4502               	.LASF39:
 4503 0076 4549 4E4B 		.string	"EINK_wait"
 4503      5F77 6169 
 4503      7400 
 4504               	.LASF17:
 4505 0080 6461 7461 		.string	"data"
 4505      00
 4506               	.LASF15:
 4507 0085 4549 4E4B 		.string	"EINK_send_data"
 4507      5F73 656E 
 4507      645F 6461 
 4507      7461 00
 4508               	.LASF1:
 4509 0094 756E 7369 		.string	"unsigned char"
 4509      676E 6564 
 4509      2063 6861 
 4509      7200 
 4510               	.LASF14:
 4511 00a2 4549 4E4B 		.string	"EINK_send_command"
 4511      5F73 656E 
 4511      645F 636F 
 4511      6D6D 616E 
 4511      6400 
 4512               	.LASF27:
 4513 00b4 4549 4E4B 		.string	"EINK_set_partial_black"
 4513      5F73 6574 
 4513      5F70 6172 
 4513      7469 616C 
 4513      5F62 6C61 
GAS LISTING C:\Users\Rando\AppData\Local\Temp\cctKssdG.s 			page 88


 4514               	.LASF6:
 4515 00cb 6C6F 6E67 		.string	"long unsigned int"
 4515      2075 6E73 
 4515      6967 6E65 
 4515      6420 696E 
 4515      7400 
 4516               	.LASF36:
 4517 00dd 5F64 656C 		.string	"_delay_ms"
 4517      6179 5F6D 
 4517      7300 
 4518               	.LASF5:
 4519 00e7 7569 6E74 		.string	"uint32_t"
 4519      3332 5F74 
 4519      00
 4520               	.LASF25:
 4521 00f0 696D 6167 		.string	"image"
 4521      6500 
 4522               	.LASF11:
 4523 00f6 646F 7562 		.string	"double"
 4523      6C65 00
 4524               	.LASF26:
 4525 00fd 636F 6C6F 		.string	"colored"
 4525      7265 6400 
 4526               	.LASF18:
 4527 0105 4549 4E4B 		.string	"EINK_toggle_reset"
 4527      5F74 6F67 
 4527      676C 655F 
 4527      7265 7365 
 4527      7400 
 4528               	.LASF2:
 4529 0117 756E 7369 		.string	"unsigned int"
 4529      676E 6564 
 4529      2069 6E74 
 4529      00
 4530               	.LASF29:
 4531 0124 4549 4E4B 		.string	"EINK_set_partial_red"
 4531      5F73 6574 
 4531      5F70 6172 
 4531      7469 616C 
 4531      5F72 6564 
 4532               	.LASF19:
 4533 0139 4549 4E4B 		.string	"EINK_clear_frame"
 4533      5F63 6C65 
 4533      6172 5F66 
 4533      7261 6D65 
 4533      00
 4534               	.LASF8:
 4535 014a 6C6F 6E67 		.string	"long long unsigned int"
 4535      206C 6F6E 
 4535      6720 756E 
 4535      7369 676E 
 4535      6564 2069 
 4536               	.LASF4:
 4537 0161 7569 6E74 		.string	"uint8_t"
 4537      385F 7400 
 4538               	.LASF13:
 4539 0169 4549 4E4B 		.string	"EINK_set_data"
GAS LISTING C:\Users\Rando\AppData\Local\Temp\cctKssdG.s 			page 89


 4539      5F73 6574 
 4539      5F64 6174 
 4539      6100 
 4540               	.LASF33:
 4541 0177 474E 5520 		.string	"GNU C11 5.4.0 -mn-flash=1 -mno-skip-bug -mmcu=avr5 -g -O2 -funsigned-char -funsigned-bitf
 4541      4331 3120 
 4541      352E 342E 
 4541      3020 2D6D 
 4541      6E2D 666C 
 4542               	.LASF22:
 4543 01f2 6672 616D 		.string	"frame_buffer_black"
 4543      655F 6275 
 4543      6666 6572 
 4543      5F62 6C61 
 4543      636B 00
 4544               	.LASF23:
 4545 0205 6672 616D 		.string	"frame_buffer_red"
 4545      655F 6275 
 4545      6666 6572 
 4545      5F72 6564 
 4545      00
 4546               	.LASF31:
 4547 0216 5350 495F 		.string	"SPI_send"
 4547      7365 6E64 
 4547      00
 4548               	.LASF7:
 4549 021f 6C6F 6E67 		.string	"long long int"
 4549      206C 6F6E 
 4549      6720 696E 
 4549      7400 
 4550               	.LASF32:
 4551 022d 5350 495F 		.string	"SPI_set_EINK_cs"
 4551      7365 745F 
 4551      4549 4E4B 
 4551      5F63 7300 
 4552               	.LASF12:
 4553 023d 4549 4E4B 		.string	"EINK_set_command"
 4553      5F73 6574 
 4553      5F63 6F6D 
 4553      6D61 6E64 
 4553      00
 4554               	.LASF10:
 4555 024e 5F5F 7469 		.string	"__ticks_dc"
 4555      636B 735F 
 4555      6463 00
 4556               	.LASF28:
 4557 0259 6275 6666 		.string	"buffer"
 4557      6572 00
 4558               	.LASF9:
 4559 0260 5F5F 746D 		.string	"__tmp"
 4559      7000 
 4560               	.LASF35:
 4561 0266 633A 5C75 		.string	"c:\\users\\rando\\documents\\rvp\\firmware\\wep-reciever"
 4561      7365 7273 
 4561      5C72 616E 
 4561      646F 5C64 
 4561      6F63 756D 
GAS LISTING C:\Users\Rando\AppData\Local\Temp\cctKssdG.s 			page 90


 4562               	.LASF3:
 4563 0299 6C6F 6E67 		.string	"long int"
 4563      2069 6E74 
 4563      00
 4564               	.LASF40:
 4565 02a2 6570 6477 		.string	"epdwidth"
 4565      6964 7468 
 4565      00
 4566               	.LASF0:
 4567 02ab 7369 676E 		.string	"signed char"
 4567      6564 2063 
 4567      6861 7200 
 4568               	.LASF37:
 4569 02b7 5F5F 6D73 		.string	"__ms"
 4569      00
 4570               		.ident	"GCC: (AVR_8_bit_GNU_Toolchain_3.6.2_1778) 5.4.0"
 4571               	.global __do_clear_bss
GAS LISTING C:\Users\Rando\AppData\Local\Temp\cctKssdG.s 			page 91


DEFINED SYMBOLS
                            *ABS*:00000000 eink.c
C:\Users\Rando\AppData\Local\Temp\cctKssdG.s:2      *ABS*:0000003e __SP_H__
C:\Users\Rando\AppData\Local\Temp\cctKssdG.s:3      *ABS*:0000003d __SP_L__
C:\Users\Rando\AppData\Local\Temp\cctKssdG.s:4      *ABS*:0000003f __SREG__
C:\Users\Rando\AppData\Local\Temp\cctKssdG.s:5      *ABS*:00000000 __tmp_reg__
C:\Users\Rando\AppData\Local\Temp\cctKssdG.s:6      *ABS*:00000001 __zero_reg__
C:\Users\Rando\AppData\Local\Temp\cctKssdG.s:12     .text:00000000 EINK_toggle_reset
C:\Users\Rando\AppData\Local\Temp\cctKssdG.s:45     .text:00000012 EINK_set_data
C:\Users\Rando\AppData\Local\Temp\cctKssdG.s:61     .text:00000016 EINK_set_command
C:\Users\Rando\AppData\Local\Temp\cctKssdG.s:77     .text:0000001a EINK_send_command
C:\Users\Rando\AppData\Local\Temp\cctKssdG.s:116    .text:00000030 EINK_send_data
C:\Users\Rando\AppData\Local\Temp\cctKssdG.s:155    .text:00000046 EINK_clear_frame
C:\Users\Rando\AppData\Local\Temp\cctKssdG.s:268    .text:000000a8 EINK_init
                            *COM*:00000001 epdwidth
C:\Users\Rando\AppData\Local\Temp\cctKssdG.s:377    .text:0000012e EINK_display_frame
C:\Users\Rando\AppData\Local\Temp\cctKssdG.s:549    .text:000001e6 EINK_draw_absolute_pixel
C:\Users\Rando\AppData\Local\Temp\cctKssdG.s:657    .text:0000027e EINK_set_partial_black
C:\Users\Rando\AppData\Local\Temp\cctKssdG.s:917    .text:000003a6 EINK_set_partial_red
C:\Users\Rando\AppData\Local\Temp\cctKssdG.s:1177   .text:000004ce EINK_wait

UNDEFINED SYMBOLS
SPI_unset_EINK_cs
SPI_send
SPI_set_EINK_cs
__do_clear_bss
