GAS LISTING C:\Users\Rando\AppData\Local\Temp\ccJqte3m.s 			page 1


   1               		.file	"i2c.c"
   2               	__SP_H__ = 0x3e
   3               	__SP_L__ = 0x3d
   4               	__SREG__ = 0x3f
   5               	__tmp_reg__ = 0
   6               	__zero_reg__ = 1
   7               		.text
   8               	.Ltext0:
   9               		.cfi_sections	.debug_frame
  10               	.global	_wait_transmission_complete
  11               		.type	_wait_transmission_complete, @function
  12               	_wait_transmission_complete:
  13               	.LFB0:
  14               		.file 1 "src/i2c.c"
   1:src/i2c.c     **** #include <include/i2c.h>
   2:src/i2c.c     **** 
   3:src/i2c.c     **** // Ootame kuni siinil on suhtlus toimunud
   4:src/i2c.c     **** void _wait_transmission_complete() {
  15               		.loc 1 4 0
  16               		.cfi_startproc
  17               	/* prologue: function */
  18               	/* frame size = 0 */
  19               	/* stack size = 0 */
  20               	.L__stack_usage = 0
  21               	.L2:
   5:src/i2c.c     **** 	while (!(TWCR & (1<<TWINT)));
  22               		.loc 1 5 0 discriminator 1
  23 0000 8091 BC00 		lds r24,188
  24 0004 87FF      		sbrs r24,7
  25 0006 00C0      		rjmp .L2
  26               	/* epilogue start */
   6:src/i2c.c     **** }
  27               		.loc 1 6 0
  28 0008 0895      		ret
  29               		.cfi_endproc
  30               	.LFE0:
  31               		.size	_wait_transmission_complete, .-_wait_transmission_complete
  32               	.global	i2c_init
  33               		.type	i2c_init, @function
  34               	i2c_init:
  35               	.LFB1:
   7:src/i2c.c     **** 
   8:src/i2c.c     **** // Käivitame I2C
   9:src/i2c.c     **** void i2c_init(unsigned long clk_hz) {
  36               		.loc 1 9 0
  37               		.cfi_startproc
  38               	.LVL0:
  39               	/* prologue: function */
  40               	/* frame size = 0 */
  41               	/* stack size = 0 */
  42               	.L__stack_usage = 0
  43 000a 9B01      		movw r18,r22
  44 000c AC01      		movw r20,r24
  10:src/i2c.c     **** 	TWSR = 0;
  45               		.loc 1 10 0
  46 000e 1092 B900 		sts 185,__zero_reg__
  11:src/i2c.c     **** 	TWBR = ((F_CPU/clk_hz)-16)/2;
GAS LISTING C:\Users\Rando\AppData\Local\Temp\ccJqte3m.s 			page 2


  47               		.loc 1 11 0
  48 0012 60E0      		ldi r22,0
  49 0014 74E2      		ldi r23,lo8(36)
  50 0016 84EF      		ldi r24,lo8(-12)
  51 0018 90E0      		ldi r25,0
  52               	.LVL1:
  53 001a 0E94 0000 		call __udivmodsi4
  54               	.LVL2:
  55 001e DA01      		movw r26,r20
  56 0020 C901      		movw r24,r18
  57 0022 4097      		sbiw r24,16
  58 0024 A109      		sbc r26,__zero_reg__
  59 0026 B109      		sbc r27,__zero_reg__
  60 0028 B695      		lsr r27
  61 002a A795      		ror r26
  62 002c 9795      		ror r25
  63 002e 8795      		ror r24
  64 0030 8093 B800 		sts 184,r24
  12:src/i2c.c     **** 	TWCR = (1<<TWEN);
  65               		.loc 1 12 0
  66 0034 84E0      		ldi r24,lo8(4)
  67 0036 8093 BC00 		sts 188,r24
  68 003a 0895      		ret
  69               		.cfi_endproc
  70               	.LFE1:
  71               		.size	i2c_init, .-i2c_init
  72               	.global	i2c_stop
  73               		.type	i2c_stop, @function
  74               	i2c_stop:
  75               	.LFB2:
  13:src/i2c.c     **** }
  14:src/i2c.c     **** 
  15:src/i2c.c     **** // Tõstatame STOP ja ootame siini vabastamist
  16:src/i2c.c     **** void i2c_stop() {
  76               		.loc 1 16 0
  77               		.cfi_startproc
  78               	/* prologue: function */
  79               	/* frame size = 0 */
  80               	/* stack size = 0 */
  81               	.L__stack_usage = 0
  17:src/i2c.c     **** 	TWCR = (1 << TWINT) | (1 << TWEN) | (1 << TWSTO);
  82               		.loc 1 17 0
  83 003c 84E9      		ldi r24,lo8(-108)
  84 003e 8093 BC00 		sts 188,r24
  85               	.L7:
  18:src/i2c.c     **** 	while(TWCR & (1<<TWSTO));
  86               		.loc 1 18 0 discriminator 1
  87 0042 8091 BC00 		lds r24,188
  88 0046 84FD      		sbrc r24,4
  89 0048 00C0      		rjmp .L7
  90               	/* epilogue start */
  19:src/i2c.c     **** }
  91               		.loc 1 19 0
  92 004a 0895      		ret
  93               		.cfi_endproc
  94               	.LFE2:
  95               		.size	i2c_stop, .-i2c_stop
GAS LISTING C:\Users\Rando\AppData\Local\Temp\ccJqte3m.s 			page 3


  96               	.global	i2c_start
  97               		.type	i2c_start, @function
  98               	i2c_start:
  99               	.LFB3:
  20:src/i2c.c     **** 
  21:src/i2c.c     **** // Algatame TWI operatsiooni ja kirjutame seadme aadressi siinile
  22:src/i2c.c     **** uint8_t i2c_start(uint8_t address) {
 100               		.loc 1 22 0
 101               		.cfi_startproc
 102               	.LVL3:
 103               	/* prologue: function */
 104               	/* frame size = 0 */
 105               	/* stack size = 0 */
 106               	.L__stack_usage = 0
  23:src/i2c.c     **** 	uint8_t status;
  24:src/i2c.c     **** 	
  25:src/i2c.c     **** 	// Saadame TWI stardi ja ootame selle toimumist.
  26:src/i2c.c     **** 	TWCR = (1<<TWINT)|(1<<TWSTA)|(1<<TWEN);
 107               		.loc 1 26 0
 108 004c 94EA      		ldi r25,lo8(-92)
 109 004e 9093 BC00 		sts 188,r25
 110               	.L10:
 111               	.LBB70:
 112               	.LBB71:
   5:src/i2c.c     **** }
 113               		.loc 1 5 0
 114 0052 9091 BC00 		lds r25,188
 115 0056 97FF      		sbrs r25,7
 116 0058 00C0      		rjmp .L10
 117               	.LBE71:
 118               	.LBE70:
  27:src/i2c.c     **** 	_wait_transmission_complete();
  28:src/i2c.c     **** 	
  29:src/i2c.c     **** 	// Loeme TWI staatusest vajaminevad bitid.
  30:src/i2c.c     **** 	status = TW_STATUS & 0xF8;
 119               		.loc 1 30 0
 120 005a 9091 B900 		lds r25,185
 121 005e 987F      		andi r25,lo8(-8)
 122               	.LVL4:
  31:src/i2c.c     **** 	// Kui staatuse kood ei ole START või REP_START
  32:src/i2c.c     **** 	if((status != TW_START) && (status != TW_REP_START)) {
 123               		.loc 1 32 0
 124 0060 9830      		cpi r25,lo8(8)
 125 0062 01F0      		breq .L11
 126               		.loc 1 32 0 is_stmt 0 discriminator 1
 127 0064 9031      		cpi r25,lo8(16)
 128 0066 01F0      		breq .L11
 129 0068 892F      		mov r24,r25
 130               	.LVL5:
 131 006a 0895      		ret
 132               	.LVL6:
 133               	.L11:
 134               	.LBB72:
 135               	.LBB73:
  33:src/i2c.c     **** 		return status; // Varajane return
  34:src/i2c.c     **** 	}
  35:src/i2c.c     **** 	
GAS LISTING C:\Users\Rando\AppData\Local\Temp\ccJqte3m.s 			page 4


  36:src/i2c.c     **** 	// Kirjutame seadme aadressi siini ja ootame 
  37:src/i2c.c     **** 	TWDR = address;
 136               		.loc 1 37 0 is_stmt 1
 137 006c 8093 BB00 		sts 187,r24
  38:src/i2c.c     **** 	TWCR = (1<<TWINT) | (1<<TWEN);
 138               		.loc 1 38 0
 139 0070 84E8      		ldi r24,lo8(-124)
 140               	.LVL7:
 141 0072 8093 BC00 		sts 188,r24
 142               	.LVL8:
 143               	.L13:
 144               	.LBB74:
 145               	.LBB75:
   5:src/i2c.c     **** }
 146               		.loc 1 5 0
 147 0076 8091 BC00 		lds r24,188
 148 007a 87FF      		sbrs r24,7
 149 007c 00C0      		rjmp .L13
 150               	.LBE75:
 151               	.LBE74:
  39:src/i2c.c     **** 	_wait_transmission_complete();
  40:src/i2c.c     **** 	
  41:src/i2c.c     **** 	// Loeme TWI staatusest vajaminevad bitid.
  42:src/i2c.c     **** 	status = TW_STATUS & 0xF8;
 152               		.loc 1 42 0
 153 007e 8091 B900 		lds r24,185
 154 0082 887F      		andi r24,lo8(-8)
 155               	.LVL9:
  43:src/i2c.c     **** 	// Kui staatus ei ole seadmelt tagasi tulnud ACK
  44:src/i2c.c     **** 	if((status != TW_MT_SLA_ACK) && (status != TW_MR_SLA_ACK)) {
 156               		.loc 1 44 0
 157 0084 8831      		cpi r24,lo8(24)
 158 0086 01F0      		breq .L17
 159 0088 8034      		cpi r24,lo8(64)
 160 008a 01F0      		breq .L17
 161               	.LBB76:
 162               	.LBB77:
  17:src/i2c.c     **** 	while(TWCR & (1<<TWSTO));
 163               		.loc 1 17 0
 164 008c 94E9      		ldi r25,lo8(-108)
 165               	.LVL10:
 166 008e 9093 BC00 		sts 188,r25
 167               	.L14:
  18:src/i2c.c     **** }
 168               		.loc 1 18 0
 169 0092 9091 BC00 		lds r25,188
 170 0096 94FD      		sbrc r25,4
 171 0098 00C0      		rjmp .L14
 172 009a 0895      		ret
 173               	.LVL11:
 174               	.L17:
 175               	.LBE77:
 176               	.LBE76:
  45:src/i2c.c     **** 		i2c_stop();
  46:src/i2c.c     **** 		return status; // Varajane return
  47:src/i2c.c     **** 	}
  48:src/i2c.c     **** 	
GAS LISTING C:\Users\Rando\AppData\Local\Temp\ccJqte3m.s 			page 5


  49:src/i2c.c     **** 	return 0; // Probleeme pole return
 177               		.loc 1 49 0
 178 009c 80E0      		ldi r24,0
 179               	.LVL12:
 180               	.LBE73:
 181               	.LBE72:
  50:src/i2c.c     **** 
  51:src/i2c.c     **** }
 182               		.loc 1 51 0
 183 009e 0895      		ret
 184               		.cfi_endproc
 185               	.LFE3:
 186               		.size	i2c_start, .-i2c_start
 187               	.global	i2c_write
 188               		.type	i2c_write, @function
 189               	i2c_write:
 190               	.LFB4:
  52:src/i2c.c     **** 
  53:src/i2c.c     **** // Kirjutame siinile andmeid
  54:src/i2c.c     **** uint8_t i2c_write(uint8_t data) {
 191               		.loc 1 54 0
 192               		.cfi_startproc
 193               	.LVL13:
 194               	/* prologue: function */
 195               	/* frame size = 0 */
 196               	/* stack size = 0 */
 197               	.L__stack_usage = 0
  55:src/i2c.c     **** 	uint8_t status;
  56:src/i2c.c     **** 	
  57:src/i2c.c     **** 	// Kirjutame andmed siinile ja ootame operatsiooni lõppu
  58:src/i2c.c     **** 	TWDR = data;
 198               		.loc 1 58 0
 199 00a0 8093 BB00 		sts 187,r24
  59:src/i2c.c     **** 	TWCR = (1 << TWINT) | (1 << TWEN);
 200               		.loc 1 59 0
 201 00a4 84E8      		ldi r24,lo8(-124)
 202               	.LVL14:
 203 00a6 8093 BC00 		sts 188,r24
 204               	.LVL15:
 205               	.L25:
 206               	.LBB78:
 207               	.LBB79:
   5:src/i2c.c     **** }
 208               		.loc 1 5 0
 209 00aa 8091 BC00 		lds r24,188
 210 00ae 87FF      		sbrs r24,7
 211 00b0 00C0      		rjmp .L25
 212               	.LBE79:
 213               	.LBE78:
  60:src/i2c.c     **** 	_wait_transmission_complete();
  61:src/i2c.c     **** 	
  62:src/i2c.c     **** 	// Loeme TWI staatusest vajaminevad bitid.
  63:src/i2c.c     **** 	status = TW_STATUS & 0xF8;
 214               		.loc 1 63 0
 215 00b2 8091 B900 		lds r24,185
 216 00b6 887F      		andi r24,lo8(-8)
 217               	.LVL16:
GAS LISTING C:\Users\Rando\AppData\Local\Temp\ccJqte3m.s 			page 6


  64:src/i2c.c     **** 	// Kui seade ei tagastanud ACK
  65:src/i2c.c     **** 	if(status != TW_MT_DATA_ACK) {
 218               		.loc 1 65 0
 219 00b8 8832      		cpi r24,lo8(40)
 220 00ba 01F0      		breq .L29
  66:src/i2c.c     **** 		return status; // Varajane return
  67:src/i2c.c     **** 	}
  68:src/i2c.c     **** 	
  69:src/i2c.c     **** 	return 0; // Probleeme pole return
  70:src/i2c.c     **** }
 221               		.loc 1 70 0
 222 00bc 0895      		ret
 223               	.L29:
  69:src/i2c.c     **** }
 224               		.loc 1 69 0
 225 00be 80E0      		ldi r24,0
 226               	.LVL17:
 227               		.loc 1 70 0
 228 00c0 0895      		ret
 229               		.cfi_endproc
 230               	.LFE4:
 231               		.size	i2c_write, .-i2c_write
 232               	.global	i2c_read_nack
 233               		.type	i2c_read_nack, @function
 234               	i2c_read_nack:
 235               	.LFB5:
  71:src/i2c.c     **** 
  72:src/i2c.c     **** // Loeme ilma mikrokontrolleripoolset ACK'i tagastamata - tüüpiliselt viimase (või ainsa ühekordse)
  73:src/i2c.c     **** uint8_t i2c_read_nack() {
 236               		.loc 1 73 0
 237               		.cfi_startproc
 238               	/* prologue: function */
 239               	/* frame size = 0 */
 240               	/* stack size = 0 */
 241               	.L__stack_usage = 0
  74:src/i2c.c     **** 	
  75:src/i2c.c     **** 	TWCR = (1<<TWINT)|(1<<TWEN);
 242               		.loc 1 75 0
 243 00c2 84E8      		ldi r24,lo8(-124)
 244 00c4 8093 BC00 		sts 188,r24
 245               	.L31:
 246               	.LBB80:
 247               	.LBB81:
   5:src/i2c.c     **** }
 248               		.loc 1 5 0
 249 00c8 8091 BC00 		lds r24,188
 250 00cc 87FF      		sbrs r24,7
 251 00ce 00C0      		rjmp .L31
 252               	.LBE81:
 253               	.LBE80:
  76:src/i2c.c     **** 	_wait_transmission_complete();
  77:src/i2c.c     **** 	
  78:src/i2c.c     **** 	return TWDR;
 254               		.loc 1 78 0
 255 00d0 8091 BB00 		lds r24,187
  79:src/i2c.c     **** }
 256               		.loc 1 79 0
GAS LISTING C:\Users\Rando\AppData\Local\Temp\ccJqte3m.s 			page 7


 257 00d4 0895      		ret
 258               		.cfi_endproc
 259               	.LFE5:
 260               		.size	i2c_read_nack, .-i2c_read_nack
 261               	.global	i2c_read_ack
 262               		.type	i2c_read_ack, @function
 263               	i2c_read_ack:
 264               	.LFB6:
  80:src/i2c.c     **** 
  81:src/i2c.c     **** // Loeme ilma mikrokontrolleripoolset ACK'i tagastades - tüüpiliselt annab seadmele märku, et prose
  82:src/i2c.c     **** uint8_t i2c_read_ack() {
 265               		.loc 1 82 0
 266               		.cfi_startproc
 267               	/* prologue: function */
 268               	/* frame size = 0 */
 269               	/* stack size = 0 */
 270               	.L__stack_usage = 0
  83:src/i2c.c     **** 	
  84:src/i2c.c     **** 	TWCR = (1<<TWINT)|(1<<TWEN) | (1 << TWEA);
 271               		.loc 1 84 0
 272 00d6 84EC      		ldi r24,lo8(-60)
 273 00d8 8093 BC00 		sts 188,r24
 274               	.L34:
 275               	.LBB82:
 276               	.LBB83:
   5:src/i2c.c     **** }
 277               		.loc 1 5 0
 278 00dc 8091 BC00 		lds r24,188
 279 00e0 87FF      		sbrs r24,7
 280 00e2 00C0      		rjmp .L34
 281               	.LBE83:
 282               	.LBE82:
  85:src/i2c.c     **** 	_wait_transmission_complete();
  86:src/i2c.c     **** 	
  87:src/i2c.c     **** 	return TWDR;
 283               		.loc 1 87 0
 284 00e4 8091 BB00 		lds r24,187
  88:src/i2c.c     **** }
 285               		.loc 1 88 0
 286 00e8 0895      		ret
 287               		.cfi_endproc
 288               	.LFE6:
 289               		.size	i2c_read_ack, .-i2c_read_ack
 290               	.global	i2c_read_multiple
 291               		.type	i2c_read_multiple, @function
 292               	i2c_read_multiple:
 293               	.LFB7:
  89:src/i2c.c     **** 
  90:src/i2c.c     **** // Loeb siinilt andmeid seadme mingist registrist n_bytes jagu ja kirjutab result'i. ACK jälgib spe
  91:src/i2c.c     **** void i2c_read_multiple(uint8_t write_address, uint8_t read_address, uint8_t register_address, uint8
 294               		.loc 1 91 0
 295               		.cfi_startproc
 296               	.LVL18:
 297 00ea EF92      		push r14
 298               	.LCFI0:
 299               		.cfi_def_cfa_offset 3
 300               		.cfi_offset 14, -2
GAS LISTING C:\Users\Rando\AppData\Local\Temp\ccJqte3m.s 			page 8


 301 00ec FF92      		push r15
 302               	.LCFI1:
 303               		.cfi_def_cfa_offset 4
 304               		.cfi_offset 15, -3
 305 00ee 0F93      		push r16
 306               	.LCFI2:
 307               		.cfi_def_cfa_offset 5
 308               		.cfi_offset 16, -4
 309 00f0 1F93      		push r17
 310               	.LCFI3:
 311               		.cfi_def_cfa_offset 6
 312               		.cfi_offset 17, -5
 313 00f2 CF93      		push r28
 314               	.LCFI4:
 315               		.cfi_def_cfa_offset 7
 316               		.cfi_offset 28, -6
 317 00f4 DF93      		push r29
 318               	.LCFI5:
 319               		.cfi_def_cfa_offset 8
 320               		.cfi_offset 29, -7
 321               	/* prologue: function */
 322               	/* frame size = 0 */
 323               	/* stack size = 6 */
 324               	.L__stack_usage = 6
 325 00f6 162F      		mov r17,r22
 326 00f8 D42F      		mov r29,r20
 327 00fa C22F      		mov r28,r18
  92:src/i2c.c     **** 	uint8_t status = i2c_start(write_address);
 328               		.loc 1 92 0
 329 00fc 0E94 0000 		call i2c_start
 330               	.LVL19:
  93:src/i2c.c     **** 	if(!status) {
 331               		.loc 1 93 0
 332 0100 8111      		cpse r24,__zero_reg__
 333 0102 00C0      		rjmp .L37
 334               	.LVL20:
 335               	.LBB84:
 336               	.LBB85:
  58:src/i2c.c     **** 	TWCR = (1 << TWINT) | (1 << TWEN);
 337               		.loc 1 58 0
 338 0104 D093 BB00 		sts 187,r29
  59:src/i2c.c     **** 	_wait_transmission_complete();
 339               		.loc 1 59 0
 340 0108 84E8      		ldi r24,lo8(-124)
 341               	.LVL21:
 342 010a 8093 BC00 		sts 188,r24
 343               	.L38:
 344               	.LBB86:
 345               	.LBB87:
   5:src/i2c.c     **** }
 346               		.loc 1 5 0
 347 010e 8091 BC00 		lds r24,188
 348 0112 87FF      		sbrs r24,7
 349 0114 00C0      		rjmp .L38
 350               	.LBE87:
 351               	.LBE86:
  63:src/i2c.c     **** 	// Kui seade ei tagastanud ACK
GAS LISTING C:\Users\Rando\AppData\Local\Temp\ccJqte3m.s 			page 9


 352               		.loc 1 63 0
 353 0116 8091 B900 		lds r24,185
 354 011a 887F      		andi r24,lo8(-8)
 355               	.LVL22:
  65:src/i2c.c     **** 		return status; // Varajane return
 356               		.loc 1 65 0
 357 011c 8832      		cpi r24,lo8(40)
 358 011e 01F0      		breq .L39
 359               	.LVL23:
 360               	.LBE85:
 361               	.LBE84:
  94:src/i2c.c     **** 		status = i2c_write(register_address);
  95:src/i2c.c     **** 		if(!status) {
 362               		.loc 1 95 0
 363 0120 8823      		tst r24
 364 0122 01F0      		breq .L39
 365               	/* epilogue start */
  96:src/i2c.c     **** 			if(!repstart) {
  97:src/i2c.c     **** 				i2c_stop();
  98:src/i2c.c     **** 			}
  99:src/i2c.c     **** 			status = i2c_start(read_address);
 100:src/i2c.c     **** 			for(uint8_t i = 0; i < n_bytes; i++) {
 101:src/i2c.c     **** 				if(i == n_bytes-1) {
 102:src/i2c.c     **** 					result[i] = i2c_read_nack();
 103:src/i2c.c     **** 				} else {
 104:src/i2c.c     **** 					result[i] = i2c_read_ack();
 105:src/i2c.c     **** 				}
 106:src/i2c.c     **** 			}
 107:src/i2c.c     **** 			i2c_stop();
 108:src/i2c.c     **** 		}	
 109:src/i2c.c     **** 	} else {
 110:src/i2c.c     **** 		i2c_stop();
 111:src/i2c.c     **** 	}
 112:src/i2c.c     **** }
 366               		.loc 1 112 0
 367 0124 DF91      		pop r29
 368               	.LVL24:
 369 0126 CF91      		pop r28
 370               	.LVL25:
 371 0128 1F91      		pop r17
 372               	.LVL26:
 373 012a 0F91      		pop r16
 374               	.LVL27:
 375 012c FF90      		pop r15
 376 012e EF90      		pop r14
 377               	.LVL28:
 378 0130 0895      		ret
 379               	.LVL29:
 380               	.L37:
 381               	.LBB88:
 382               	.LBB89:
  17:src/i2c.c     **** 	while(TWCR & (1<<TWSTO));
 383               		.loc 1 17 0
 384 0132 84E9      		ldi r24,lo8(-108)
 385               	.LVL30:
 386 0134 8093 BC00 		sts 188,r24
 387               	.L52:
GAS LISTING C:\Users\Rando\AppData\Local\Temp\ccJqte3m.s 			page 10


  18:src/i2c.c     **** }
 388               		.loc 1 18 0
 389 0138 8091 BC00 		lds r24,188
 390 013c 84FD      		sbrc r24,4
 391 013e 00C0      		rjmp .L52
 392               	/* epilogue start */
 393               	.LBE89:
 394               	.LBE88:
 395               		.loc 1 112 0
 396 0140 DF91      		pop r29
 397               	.LVL31:
 398 0142 CF91      		pop r28
 399               	.LVL32:
 400 0144 1F91      		pop r17
 401               	.LVL33:
 402 0146 0F91      		pop r16
 403               	.LVL34:
 404 0148 FF90      		pop r15
 405 014a EF90      		pop r14
 406               	.LVL35:
 407 014c 0895      		ret
 408               	.LVL36:
 409               	.L39:
  96:src/i2c.c     **** 			if(!repstart) {
 410               		.loc 1 96 0
 411 014e 0023      		tst r16
 412 0150 01F0      		breq .L40
 413               	.L44:
  99:src/i2c.c     **** 			for(uint8_t i = 0; i < n_bytes; i++) {
 414               		.loc 1 99 0
 415 0152 812F      		mov r24,r17
 416 0154 0E94 0000 		call i2c_start
 417               	.LVL37:
 418               	.LBB90:
 100:src/i2c.c     **** 				if(i == n_bytes-1) {
 419               		.loc 1 100 0
 420 0158 CC23      		tst r28
 421 015a 01F0      		breq .L42
 422 015c 4C2F      		mov r20,r28
 423 015e 50E0      		ldi r21,0
 424 0160 4150      		subi r20,1
 425 0162 5109      		sbc r21,__zero_reg__
 426 0164 F701      		movw r30,r14
 427 0166 20E0      		ldi r18,0
 428 0168 30E0      		ldi r19,0
 429               	.LBB91:
 430               	.LBB92:
  84:src/i2c.c     **** 	_wait_transmission_complete();
 431               		.loc 1 84 0
 432 016a 94EC      		ldi r25,lo8(-60)
 433               	.LBE92:
 434               	.LBE91:
 435               	.LBB96:
 436               	.LBB97:
  75:src/i2c.c     **** 	_wait_transmission_complete();
 437               		.loc 1 75 0
 438 016c 64E8      		ldi r22,lo8(-124)
GAS LISTING C:\Users\Rando\AppData\Local\Temp\ccJqte3m.s 			page 11


 439               	.LVL38:
 440               	.L50:
 441               	.LBE97:
 442               	.LBE96:
 101:src/i2c.c     **** 					result[i] = i2c_read_nack();
 443               		.loc 1 101 0
 444 016e 2417      		cp r18,r20
 445 0170 3507      		cpc r19,r21
 446 0172 01F0      		breq .L67
 447               	.LBB101:
 448               	.LBB95:
  84:src/i2c.c     **** 	_wait_transmission_complete();
 449               		.loc 1 84 0
 450 0174 9093 BC00 		sts 188,r25
 451               	.L49:
 452               	.LBB93:
 453               	.LBB94:
   5:src/i2c.c     **** }
 454               		.loc 1 5 0
 455 0178 8091 BC00 		lds r24,188
 456 017c 87FF      		sbrs r24,7
 457 017e 00C0      		rjmp .L49
 458               	.L66:
 459               	.LBE94:
 460               	.LBE93:
  87:src/i2c.c     **** }
 461               		.loc 1 87 0
 462 0180 8091 BB00 		lds r24,187
 463               	.LBE95:
 464               	.LBE101:
 104:src/i2c.c     **** 				}
 465               		.loc 1 104 0
 466 0184 8083      		st Z,r24
 467               	.LVL39:
 468 0186 2F5F      		subi r18,-1
 469 0188 3F4F      		sbci r19,-1
 470               	.LVL40:
 471 018a 3196      		adiw r30,1
 100:src/i2c.c     **** 				if(i == n_bytes-1) {
 472               		.loc 1 100 0
 473 018c 2C17      		cp r18,r28
 474 018e 00F0      		brlo .L50
 475               	.LVL41:
 476               	.L42:
 477               	.LBE90:
 478               	.LBB103:
 479               	.LBB104:
  17:src/i2c.c     **** 	while(TWCR & (1<<TWSTO));
 480               		.loc 1 17 0
 481 0190 84E9      		ldi r24,lo8(-108)
 482 0192 8093 BC00 		sts 188,r24
 483               	.L45:
  18:src/i2c.c     **** }
 484               		.loc 1 18 0
 485 0196 8091 BC00 		lds r24,188
 486 019a 84FD      		sbrc r24,4
 487 019c 00C0      		rjmp .L45
GAS LISTING C:\Users\Rando\AppData\Local\Temp\ccJqte3m.s 			page 12


 488               	/* epilogue start */
 489               	.LBE104:
 490               	.LBE103:
 491               		.loc 1 112 0
 492 019e DF91      		pop r29
 493               	.LVL42:
 494 01a0 CF91      		pop r28
 495               	.LVL43:
 496 01a2 1F91      		pop r17
 497               	.LVL44:
 498 01a4 0F91      		pop r16
 499               	.LVL45:
 500 01a6 FF90      		pop r15
 501 01a8 EF90      		pop r14
 502               	.LVL46:
 503 01aa 0895      		ret
 504               	.LVL47:
 505               	.L67:
 506               	.LBB105:
 507               	.LBB102:
 508               	.LBB100:
  75:src/i2c.c     **** 	_wait_transmission_complete();
 509               		.loc 1 75 0
 510 01ac 6093 BC00 		sts 188,r22
 511               	.L47:
 512               	.LBB98:
 513               	.LBB99:
   5:src/i2c.c     **** }
 514               		.loc 1 5 0
 515 01b0 8091 BC00 		lds r24,188
 516 01b4 87FF      		sbrs r24,7
 517 01b6 00C0      		rjmp .L47
 518 01b8 00C0      		rjmp .L66
 519               	.LVL48:
 520               	.L40:
 521               	.LBE99:
 522               	.LBE98:
 523               	.LBE100:
 524               	.LBE102:
 525               	.LBE105:
 526               	.LBB106:
 527               	.LBB107:
  17:src/i2c.c     **** 	while(TWCR & (1<<TWSTO));
 528               		.loc 1 17 0
 529 01ba 84E9      		ldi r24,lo8(-108)
 530 01bc 8093 BC00 		sts 188,r24
 531               	.L43:
  18:src/i2c.c     **** }
 532               		.loc 1 18 0
 533 01c0 8091 BC00 		lds r24,188
 534 01c4 84FD      		sbrc r24,4
 535 01c6 00C0      		rjmp .L43
 536 01c8 00C0      		rjmp .L44
 537               	.LBE107:
 538               	.LBE106:
 539               		.cfi_endproc
 540               	.LFE7:
GAS LISTING C:\Users\Rando\AppData\Local\Temp\ccJqte3m.s 			page 13


 541               		.size	i2c_read_multiple, .-i2c_read_multiple
 542               	.global	i2c_read_single
 543               		.type	i2c_read_single, @function
 544               	i2c_read_single:
 545               	.LFB8:
 113:src/i2c.c     **** 
 114:src/i2c.c     **** // Loeme siinile üksiku baidi andmeid seadme mingist registrist. Ack parameetriga saab seadistada, 
 115:src/i2c.c     **** uint8_t i2c_read_single(uint8_t write_address, uint8_t read_address, uint8_t register_address, uint
 546               		.loc 1 115 0
 547               		.cfi_startproc
 548               	.LVL49:
 549 01ca 1F93      		push r17
 550               	.LCFI6:
 551               		.cfi_def_cfa_offset 3
 552               		.cfi_offset 17, -2
 553 01cc CF93      		push r28
 554               	.LCFI7:
 555               		.cfi_def_cfa_offset 4
 556               		.cfi_offset 28, -3
 557 01ce DF93      		push r29
 558               	.LCFI8:
 559               		.cfi_def_cfa_offset 5
 560               		.cfi_offset 29, -4
 561               	/* prologue: function */
 562               	/* frame size = 0 */
 563               	/* stack size = 3 */
 564               	.L__stack_usage = 3
 565 01d0 D62F      		mov r29,r22
 566 01d2 C42F      		mov r28,r20
 567 01d4 122F      		mov r17,r18
 116:src/i2c.c     **** 	uint8_t status = i2c_start(write_address);
 568               		.loc 1 116 0
 569 01d6 0E94 0000 		call i2c_start
 570               	.LVL50:
 117:src/i2c.c     **** 	if(!status) {
 571               		.loc 1 117 0
 572 01da 8111      		cpse r24,__zero_reg__
 573 01dc 00C0      		rjmp .L69
 574               	.LVL51:
 575               	.LBB108:
 576               	.LBB109:
  58:src/i2c.c     **** 	TWCR = (1 << TWINT) | (1 << TWEN);
 577               		.loc 1 58 0
 578 01de C093 BB00 		sts 187,r28
  59:src/i2c.c     **** 	_wait_transmission_complete();
 579               		.loc 1 59 0
 580 01e2 84E8      		ldi r24,lo8(-124)
 581               	.LVL52:
 582 01e4 8093 BC00 		sts 188,r24
 583               	.L70:
 584               	.LBB110:
 585               	.LBB111:
   5:src/i2c.c     **** }
 586               		.loc 1 5 0
 587 01e8 8091 BC00 		lds r24,188
 588 01ec 87FF      		sbrs r24,7
 589 01ee 00C0      		rjmp .L70
GAS LISTING C:\Users\Rando\AppData\Local\Temp\ccJqte3m.s 			page 14


 590               	.LBE111:
 591               	.LBE110:
  63:src/i2c.c     **** 	// Kui seade ei tagastanud ACK
 592               		.loc 1 63 0
 593 01f0 8091 B900 		lds r24,185
 594 01f4 887F      		andi r24,lo8(-8)
 595               	.LVL53:
  65:src/i2c.c     **** 		return status; // Varajane return
 596               		.loc 1 65 0
 597 01f6 8832      		cpi r24,lo8(40)
 598 01f8 01F0      		breq .L71
 599               	.LVL54:
 600               	.LBE109:
 601               	.LBE108:
 118:src/i2c.c     **** 		status = i2c_write(register_address);
 119:src/i2c.c     **** 		if(! status) {
 602               		.loc 1 119 0
 603 01fa 8823      		tst r24
 604 01fc 01F0      		breq .L71
 605               	.LBB112:
 606               	.LBB113:
  17:src/i2c.c     **** 	while(TWCR & (1<<TWSTO));
 607               		.loc 1 17 0
 608 01fe 94E9      		ldi r25,lo8(-108)
 609 0200 9093 BC00 		sts 188,r25
 610               	.L80:
  18:src/i2c.c     **** }
 611               		.loc 1 18 0
 612 0204 9091 BC00 		lds r25,188
 613 0208 94FD      		sbrc r25,4
 614 020a 00C0      		rjmp .L80
 615               	.L74:
 616               	/* epilogue start */
 617               	.LBE113:
 618               	.LBE112:
 120:src/i2c.c     **** 			i2c_stop();
 121:src/i2c.c     **** 			
 122:src/i2c.c     **** 			status = i2c_start(read_address);
 123:src/i2c.c     **** 			if(!status) {
 124:src/i2c.c     **** 				uint8_t reading;
 125:src/i2c.c     **** 				if(ack) {
 126:src/i2c.c     **** 					reading = i2c_read_ack();
 127:src/i2c.c     **** 				} else {
 128:src/i2c.c     **** 					reading = i2c_read_nack();
 129:src/i2c.c     **** 				}
 130:src/i2c.c     **** 				i2c_stop();
 131:src/i2c.c     **** 				return reading;
 132:src/i2c.c     **** 			}
 133:src/i2c.c     **** 			
 134:src/i2c.c     **** 		} else {
 135:src/i2c.c     **** 			i2c_stop();
 136:src/i2c.c     **** 		}
 137:src/i2c.c     **** 		
 138:src/i2c.c     **** 	} else {
 139:src/i2c.c     **** 		i2c_stop();
 140:src/i2c.c     **** 	}
 141:src/i2c.c     **** 	return status;
GAS LISTING C:\Users\Rando\AppData\Local\Temp\ccJqte3m.s 			page 15


 142:src/i2c.c     **** }
 619               		.loc 1 142 0
 620 020c DF91      		pop r29
 621               	.LVL55:
 622 020e CF91      		pop r28
 623               	.LVL56:
 624 0210 1F91      		pop r17
 625               	.LVL57:
 626 0212 0895      		ret
 627               	.LVL58:
 628               	.L69:
 629               	.LBB114:
 630               	.LBB115:
  17:src/i2c.c     **** 	while(TWCR & (1<<TWSTO));
 631               		.loc 1 17 0
 632 0214 94E9      		ldi r25,lo8(-108)
 633 0216 9093 BC00 		sts 188,r25
 634               	.L81:
  18:src/i2c.c     **** }
 635               		.loc 1 18 0
 636 021a 9091 BC00 		lds r25,188
 637 021e 94FD      		sbrc r25,4
 638 0220 00C0      		rjmp .L81
 639               	/* epilogue start */
 640               	.LBE115:
 641               	.LBE114:
 642               		.loc 1 142 0
 643 0222 DF91      		pop r29
 644               	.LVL59:
 645 0224 CF91      		pop r28
 646               	.LVL60:
 647 0226 1F91      		pop r17
 648               	.LVL61:
 649 0228 0895      		ret
 650               	.LVL62:
 651               	.L71:
 652               	.LBB116:
 653               	.LBB117:
  17:src/i2c.c     **** 	while(TWCR & (1<<TWSTO));
 654               		.loc 1 17 0
 655 022a 84E9      		ldi r24,lo8(-108)
 656 022c 8093 BC00 		sts 188,r24
 657               	.L73:
  18:src/i2c.c     **** }
 658               		.loc 1 18 0
 659 0230 8091 BC00 		lds r24,188
 660 0234 84FD      		sbrc r24,4
 661 0236 00C0      		rjmp .L73
 662               	.LBE117:
 663               	.LBE116:
 122:src/i2c.c     **** 			if(!status) {
 664               		.loc 1 122 0
 665 0238 8D2F      		mov r24,r29
 666 023a 0E94 0000 		call i2c_start
 667               	.LVL63:
 123:src/i2c.c     **** 				uint8_t reading;
 668               		.loc 1 123 0
GAS LISTING C:\Users\Rando\AppData\Local\Temp\ccJqte3m.s 			page 16


 669 023e 8111      		cpse r24,__zero_reg__
 670 0240 00C0      		rjmp .L74
 671               	.LBB118:
 125:src/i2c.c     **** 					reading = i2c_read_ack();
 672               		.loc 1 125 0
 673 0242 1123      		tst r17
 674 0244 01F0      		breq .L75
 675               	.LBB119:
 676               	.LBB120:
  84:src/i2c.c     **** 	_wait_transmission_complete();
 677               		.loc 1 84 0
 678 0246 84EC      		ldi r24,lo8(-60)
 679               	.LVL64:
 680 0248 8093 BC00 		sts 188,r24
 681               	.L76:
 682               	.LBB121:
 683               	.LBB122:
   5:src/i2c.c     **** }
 684               		.loc 1 5 0
 685 024c 8091 BC00 		lds r24,188
 686 0250 87FF      		sbrs r24,7
 687 0252 00C0      		rjmp .L76
 688               	.L93:
 689               	.LBE122:
 690               	.LBE121:
 691               	.LBE120:
 692               	.LBE119:
 693               	.LBB123:
 694               	.LBB124:
  78:src/i2c.c     **** }
 695               		.loc 1 78 0
 696 0254 8091 BB00 		lds r24,187
 697               	.LVL65:
 698               	.LBE124:
 699               	.LBE123:
 700               	.LBB128:
 701               	.LBB129:
  17:src/i2c.c     **** 	while(TWCR & (1<<TWSTO));
 702               		.loc 1 17 0
 703 0258 94E9      		ldi r25,lo8(-108)
 704 025a 9093 BC00 		sts 188,r25
 705               	.L79:
  18:src/i2c.c     **** }
 706               		.loc 1 18 0
 707 025e 9091 BC00 		lds r25,188
 708 0262 94FD      		sbrc r25,4
 709 0264 00C0      		rjmp .L79
 710               	/* epilogue start */
 711               	.LBE129:
 712               	.LBE128:
 713               	.LBE118:
 714               		.loc 1 142 0
 715 0266 DF91      		pop r29
 716               	.LVL66:
 717 0268 CF91      		pop r28
 718               	.LVL67:
 719 026a 1F91      		pop r17
GAS LISTING C:\Users\Rando\AppData\Local\Temp\ccJqte3m.s 			page 17


 720               	.LVL68:
 721 026c 0895      		ret
 722               	.LVL69:
 723               	.L75:
 724               	.LBB131:
 725               	.LBB130:
 726               	.LBB127:
  75:src/i2c.c     **** 	_wait_transmission_complete();
 727               		.loc 1 75 0
 728 026e 84E8      		ldi r24,lo8(-124)
 729               	.LVL70:
 730 0270 8093 BC00 		sts 188,r24
 731               	.L78:
 732               	.LBB125:
 733               	.LBB126:
   5:src/i2c.c     **** }
 734               		.loc 1 5 0
 735 0274 8091 BC00 		lds r24,188
 736 0278 87FF      		sbrs r24,7
 737 027a 00C0      		rjmp .L78
 738 027c 00C0      		rjmp .L93
 739               	.LBE126:
 740               	.LBE125:
 741               	.LBE127:
 742               	.LBE130:
 743               	.LBE131:
 744               		.cfi_endproc
 745               	.LFE8:
 746               		.size	i2c_read_single, .-i2c_read_single
 747               	.Letext0:
 748               		.file 2 "c:\\avr toolchain\\avr\\include\\stdint.h"