GAS LISTING C:\Users\Rando\AppData\Local\Temp\ccaGBvwp.s 			page 1


   1               		.file	"main.c"
   2               	__SP_H__ = 0x3e
   3               	__SP_L__ = 0x3d
   4               	__SREG__ = 0x3f
   5               	__tmp_reg__ = 0
   6               	__zero_reg__ = 1
   7               		.text
   8               	.Ltext0:
   9               		.cfi_sections	.debug_frame
  10               	.global	__vector_7
  11               		.type	__vector_7, @function
  12               	__vector_7:
  13               	.LFB6:
  14               		.file 1 "src/main.c"
   1:src/main.c    **** #include <avr/io.h>
   2:src/main.c    **** #include <include/spi.h>
   3:src/main.c    **** #define F_CPU 16000000UL
   4:src/main.c    **** #include <util/delay.h>
   5:src/main.c    **** #include <include/nrf24l01.h>
   6:src/main.c    **** #include <avr/interrupt.h>
   7:src/main.c    **** #include <include/eink.h>
   8:src/main.c    **** #include <include/batmon.h>
   9:src/main.c    **** #include <avr/sleep.h>
  10:src/main.c    **** 
  11:src/main.c    **** /* Riistvaraprojekt UT 2020/21 - Rando Hinn, vastuvõtjamooduli peakood */
  12:src/main.c    **** 
  13:src/main.c    **** volatile uint8_t data[10];
  14:src/main.c    **** volatile uint8_t data_available = 0;
  15:src/main.c    **** uint16_t tc = 0;
  16:src/main.c    **** 
  17:src/main.c    **** ISR(INT6_vect) {
  15               		.loc 1 17 0
  16               		.cfi_startproc
  17 0000 1F92      		push r1
  18               	.LCFI0:
  19               		.cfi_def_cfa_offset 3
  20               		.cfi_offset 1, -2
  21 0002 0F92      		push r0
  22               	.LCFI1:
  23               		.cfi_def_cfa_offset 4
  24               		.cfi_offset 0, -3
  25 0004 0FB6      		in r0,__SREG__
  26 0006 0F92      		push r0
  27 0008 1124      		clr __zero_reg__
  28 000a 2F93      		push r18
  29               	.LCFI2:
  30               		.cfi_def_cfa_offset 5
  31               		.cfi_offset 18, -4
  32 000c 3F93      		push r19
  33               	.LCFI3:
  34               		.cfi_def_cfa_offset 6
  35               		.cfi_offset 19, -5
  36 000e 4F93      		push r20
  37               	.LCFI4:
  38               		.cfi_def_cfa_offset 7
  39               		.cfi_offset 20, -6
  40 0010 5F93      		push r21
GAS LISTING C:\Users\Rando\AppData\Local\Temp\ccaGBvwp.s 			page 2


  41               	.LCFI5:
  42               		.cfi_def_cfa_offset 8
  43               		.cfi_offset 21, -7
  44 0012 6F93      		push r22
  45               	.LCFI6:
  46               		.cfi_def_cfa_offset 9
  47               		.cfi_offset 22, -8
  48 0014 7F93      		push r23
  49               	.LCFI7:
  50               		.cfi_def_cfa_offset 10
  51               		.cfi_offset 23, -9
  52 0016 8F93      		push r24
  53               	.LCFI8:
  54               		.cfi_def_cfa_offset 11
  55               		.cfi_offset 24, -10
  56 0018 9F93      		push r25
  57               	.LCFI9:
  58               		.cfi_def_cfa_offset 12
  59               		.cfi_offset 25, -11
  60 001a AF93      		push r26
  61               	.LCFI10:
  62               		.cfi_def_cfa_offset 13
  63               		.cfi_offset 26, -12
  64 001c BF93      		push r27
  65               	.LCFI11:
  66               		.cfi_def_cfa_offset 14
  67               		.cfi_offset 27, -13
  68 001e EF93      		push r30
  69               	.LCFI12:
  70               		.cfi_def_cfa_offset 15
  71               		.cfi_offset 30, -14
  72 0020 FF93      		push r31
  73               	.LCFI13:
  74               		.cfi_def_cfa_offset 16
  75               		.cfi_offset 31, -15
  76               	/* prologue: Signal */
  77               	/* frame size = 0 */
  78               	/* stack size = 15 */
  79               	.L__stack_usage = 15
  18:src/main.c    ****     if(data_available == 0) {
  80               		.loc 1 18 0
  81 0022 8091 0000 		lds r24,data_available
  82 0026 8111      		cpse r24,__zero_reg__
  83 0028 00C0      		rjmp .L1
  19:src/main.c    ****         nrf24l01_read_register(R_RX_PAYLOAD, (uint8_t*) data,10);
  84               		.loc 1 19 0
  85 002a 4AE0      		ldi r20,lo8(10)
  86 002c 60E0      		ldi r22,lo8(data)
  87 002e 70E0      		ldi r23,hi8(data)
  88 0030 81E6      		ldi r24,lo8(97)
  89 0032 0E94 0000 		call nrf24l01_read_register
  90               	.LVL0:
  20:src/main.c    ****         data_available = 1;
  91               		.loc 1 20 0
  92 0036 81E0      		ldi r24,lo8(1)
  93 0038 8093 0000 		sts data_available,r24
  94               	.L1:
GAS LISTING C:\Users\Rando\AppData\Local\Temp\ccaGBvwp.s 			page 3


  95               	/* epilogue start */
  21:src/main.c    ****     }
  22:src/main.c    **** }
  96               		.loc 1 22 0
  97 003c FF91      		pop r31
  98 003e EF91      		pop r30
  99 0040 BF91      		pop r27
 100 0042 AF91      		pop r26
 101 0044 9F91      		pop r25
 102 0046 8F91      		pop r24
 103 0048 7F91      		pop r23
 104 004a 6F91      		pop r22
 105 004c 5F91      		pop r21
 106 004e 4F91      		pop r20
 107 0050 3F91      		pop r19
 108 0052 2F91      		pop r18
 109 0054 0F90      		pop r0
 110 0056 0FBE      		out __SREG__,r0
 111 0058 0F90      		pop r0
 112 005a 1F90      		pop r1
 113 005c 1895      		reti
 114               		.cfi_endproc
 115               	.LFE6:
 116               		.size	__vector_7, .-__vector_7
 117               	.global	clean_buffer
 118               		.type	clean_buffer, @function
 119               	clean_buffer:
 120               	.LFB7:
  23:src/main.c    **** 
  24:src/main.c    **** // Opereerib etteantaval eraldiseisval puhvril, seetõttu ei paikne EINK libraga koos. 
  25:src/main.c    **** void clean_buffer(uint8_t* buffer) {
 121               		.loc 1 25 0
 122               		.cfi_startproc
 123               	.LVL1:
 124 005e AF92      		push r10
 125               	.LCFI14:
 126               		.cfi_def_cfa_offset 3
 127               		.cfi_offset 10, -2
 128 0060 BF92      		push r11
 129               	.LCFI15:
 130               		.cfi_def_cfa_offset 4
 131               		.cfi_offset 11, -3
 132 0062 CF92      		push r12
 133               	.LCFI16:
 134               		.cfi_def_cfa_offset 5
 135               		.cfi_offset 12, -4
 136 0064 DF92      		push r13
 137               	.LCFI17:
 138               		.cfi_def_cfa_offset 6
 139               		.cfi_offset 13, -5
 140 0066 EF92      		push r14
 141               	.LCFI18:
 142               		.cfi_def_cfa_offset 7
 143               		.cfi_offset 14, -6
 144 0068 FF92      		push r15
 145               	.LCFI19:
 146               		.cfi_def_cfa_offset 8
GAS LISTING C:\Users\Rando\AppData\Local\Temp\ccaGBvwp.s 			page 4


 147               		.cfi_offset 15, -7
 148 006a 0F93      		push r16
 149               	.LCFI20:
 150               		.cfi_def_cfa_offset 9
 151               		.cfi_offset 16, -8
 152 006c 1F93      		push r17
 153               	.LCFI21:
 154               		.cfi_def_cfa_offset 10
 155               		.cfi_offset 17, -9
 156 006e CF93      		push r28
 157               	.LCFI22:
 158               		.cfi_def_cfa_offset 11
 159               		.cfi_offset 28, -10
 160 0070 DF93      		push r29
 161               	.LCFI23:
 162               		.cfi_def_cfa_offset 12
 163               		.cfi_offset 29, -11
 164               	/* prologue: function */
 165               	/* frame size = 0 */
 166               	/* stack size = 10 */
 167               	.L__stack_usage = 10
 168 0072 7C01      		movw r14,r24
 169               	.LVL2:
 170               	.LBB10:
  26:src/main.c    ****     for(uint8_t x = 0; x < epdwidth; x++) {
 171               		.loc 1 26 0
 172 0074 2091 0000 		lds r18,epdwidth
 173 0078 2223      		tst r18
 174 007a 01F0      		breq .L5
 175               		.loc 1 26 0 is_stmt 0 discriminator 3
 176 007c D12C      		mov r13,__zero_reg__
 177               	.LVL3:
 178               	.L7:
 179 007e 0D2D      		mov r16,r13
 180 0080 10E0      		ldi r17,0
 181 0082 C0E0      		ldi r28,0
 182 0084 D0E0      		ldi r29,0
 183               	.L6:
 184               	.LVL4:
 185               	.LBB11:
  27:src/main.c    ****         for (uint8_t y = 0; y < HEIGHT; y++) {
  28:src/main.c    ****             EINK_draw_absolute_pixel(buffer,x,y,0);
 186               		.loc 1 28 0 is_stmt 1 discriminator 3
 187 0086 20E0      		ldi r18,0
 188 0088 30E0      		ldi r19,0
 189 008a AE01      		movw r20,r28
 190 008c B801      		movw r22,r16
 191 008e C701      		movw r24,r14
 192 0090 0E94 0000 		call EINK_draw_absolute_pixel
 193               	.LVL5:
 194 0094 2196      		adiw r28,1
 195               	.LVL6:
  27:src/main.c    ****         for (uint8_t y = 0; y < HEIGHT; y++) {
 196               		.loc 1 27 0 discriminator 3
 197 0096 C832      		cpi r28,40
 198 0098 D105      		cpc r29,__zero_reg__
 199 009a 01F4      		brne .L6
GAS LISTING C:\Users\Rando\AppData\Local\Temp\ccaGBvwp.s 			page 5


 200               	.LBE11:
  26:src/main.c    ****     for(uint8_t x = 0; x < epdwidth; x++) {
 201               		.loc 1 26 0 discriminator 2
 202 009c D394      		inc r13
 203               	.LVL7:
 204 009e 2091 0000 		lds r18,epdwidth
 205 00a2 D216      		cp r13,r18
 206 00a4 00F0      		brlo .L7
 207               	.LVL8:
 208               	.L5:
 209               	.LBE10:
 210               	.LBB12:
  29:src/main.c    ****         }
  30:src/main.c    ****     }
  31:src/main.c    ****     for(int i = 0; i < 122/epdwidth; i++) {
 211               		.loc 1 31 0 discriminator 1
 212 00a6 30E0      		ldi r19,0
 213 00a8 8AE7      		ldi r24,lo8(122)
 214 00aa 90E0      		ldi r25,0
 215 00ac B901      		movw r22,r18
 216 00ae 0E94 0000 		call __divmodhi4
 217 00b2 672B      		or r22,r23
 218 00b4 01F0      		breq .L4
 219               		.loc 1 31 0 is_stmt 0 discriminator 3
 220 00b6 C12C      		mov r12,__zero_reg__
 221 00b8 D12C      		mov r13,__zero_reg__
 222 00ba 8AE7      		ldi r24,lo8(122)
 223 00bc A82E      		mov r10,r24
 224 00be B12C      		mov r11,__zero_reg__
 225               	.LVL9:
 226               	.L11:
 227 00c0 C0E0      		ldi r28,0
 228 00c2 D0E0      		ldi r29,0
 229 00c4 00C0      		rjmp .L10
 230               	.LVL10:
 231               	.L19:
 232 00c6 2091 0000 		lds r18,epdwidth
 233 00ca 30E0      		ldi r19,0
 234               	.L10:
 235               	.LBB13:
  32:src/main.c    ****         for(int j = 0; j < 250/HEIGHT; j++) {
  33:src/main.c    ****             EINK_set_partial_red(buffer, i*epdwidth,j*HEIGHT, epdwidth,HEIGHT);
 236               		.loc 1 33 0 is_stmt 1 discriminator 3
 237 00cc 2C9D      		mul r18,r12
 238 00ce B001      		movw r22,r0
 239 00d0 2D9D      		mul r18,r13
 240 00d2 700D      		add r23,r0
 241 00d4 3C9D      		mul r19,r12
 242 00d6 700D      		add r23,r0
 243 00d8 1124      		clr r1
 244 00da 08E2      		ldi r16,lo8(40)
 245 00dc 10E0      		ldi r17,0
 246 00de AE01      		movw r20,r28
 247 00e0 C701      		movw r24,r14
 248 00e2 0E94 0000 		call EINK_set_partial_red
 249               	.LVL11:
  34:src/main.c    ****             EINK_set_partial_black(buffer, i*epdwidth,j*HEIGHT, epdwidth,HEIGHT);
GAS LISTING C:\Users\Rando\AppData\Local\Temp\ccaGBvwp.s 			page 6


 250               		.loc 1 34 0 discriminator 3
 251 00e6 2091 0000 		lds r18,epdwidth
 252 00ea 30E0      		ldi r19,0
 253 00ec 2C9D      		mul r18,r12
 254 00ee B001      		movw r22,r0
 255 00f0 2D9D      		mul r18,r13
 256 00f2 700D      		add r23,r0
 257 00f4 3C9D      		mul r19,r12
 258 00f6 700D      		add r23,r0
 259 00f8 1124      		clr r1
 260 00fa AE01      		movw r20,r28
 261 00fc C701      		movw r24,r14
 262 00fe 0E94 0000 		call EINK_set_partial_black
 263               	.LVL12:
 264 0102 A896      		adiw r28,40
  32:src/main.c    ****         for(int j = 0; j < 250/HEIGHT; j++) {
 265               		.loc 1 32 0 discriminator 3
 266 0104 C03F      		cpi r28,-16
 267 0106 D105      		cpc r29,__zero_reg__
 268 0108 01F4      		brne .L19
 269               	.LBE13:
  31:src/main.c    ****         for(int j = 0; j < 250/HEIGHT; j++) {
 270               		.loc 1 31 0 discriminator 2
 271 010a 8FEF      		ldi r24,-1
 272 010c C81A      		sub r12,r24
 273 010e D80A      		sbc r13,r24
 274               	.LVL13:
 275 0110 2091 0000 		lds r18,epdwidth
 276 0114 30E0      		ldi r19,0
 277 0116 C501      		movw r24,r10
 278 0118 B901      		movw r22,r18
 279 011a 0E94 0000 		call __divmodhi4
 280 011e C616      		cp r12,r22
 281 0120 D706      		cpc r13,r23
 282 0122 04F0      		brlt .L11
 283               	.LVL14:
 284               	.L4:
 285               	/* epilogue start */
 286               	.LBE12:
  35:src/main.c    ****         }
  36:src/main.c    ****     }
  37:src/main.c    **** }
 287               		.loc 1 37 0
 288 0124 DF91      		pop r29
 289 0126 CF91      		pop r28
 290 0128 1F91      		pop r17
 291 012a 0F91      		pop r16
 292 012c FF90      		pop r15
 293 012e EF90      		pop r14
 294               	.LVL15:
 295 0130 DF90      		pop r13
 296 0132 CF90      		pop r12
 297 0134 BF90      		pop r11
 298 0136 AF90      		pop r10
 299 0138 0895      		ret
 300               		.cfi_endproc
 301               	.LFE7:
GAS LISTING C:\Users\Rando\AppData\Local\Temp\ccaGBvwp.s 			page 7


 302               		.size	clean_buffer, .-clean_buffer
 303               	.global	__vector_17
 304               		.type	__vector_17, @function
 305               	__vector_17:
 306               	.LFB8:
  38:src/main.c    **** 
  39:src/main.c    **** 
  40:src/main.c    **** ISR(TIMER1_COMPA_vect) {
 307               		.loc 1 40 0
 308               		.cfi_startproc
 309 013a 1F92      		push r1
 310               	.LCFI24:
 311               		.cfi_def_cfa_offset 3
 312               		.cfi_offset 1, -2
 313 013c 0F92      		push r0
 314               	.LCFI25:
 315               		.cfi_def_cfa_offset 4
 316               		.cfi_offset 0, -3
 317 013e 0FB6      		in r0,__SREG__
 318 0140 0F92      		push r0
 319 0142 1124      		clr __zero_reg__
 320 0144 8F93      		push r24
 321               	.LCFI26:
 322               		.cfi_def_cfa_offset 5
 323               		.cfi_offset 24, -4
 324 0146 9F93      		push r25
 325               	.LCFI27:
 326               		.cfi_def_cfa_offset 6
 327               		.cfi_offset 25, -5
 328               	/* prologue: Signal */
 329               	/* frame size = 0 */
 330               	/* stack size = 5 */
 331               	.L__stack_usage = 5
  41:src/main.c    ****     tc++;
 332               		.loc 1 41 0
 333 0148 8091 0000 		lds r24,tc
 334 014c 9091 0000 		lds r25,tc+1
 335 0150 0196      		adiw r24,1
 336 0152 9093 0000 		sts tc+1,r25
 337 0156 8093 0000 		sts tc,r24
 338               	/* epilogue start */
  42:src/main.c    ****     if(tc == 3600000) { // countime tunni
  43:src/main.c    ****         if(batmon_soc() < 25) {
  44:src/main.c    ****             cli();
  45:src/main.c    ****             unsigned char buffer[(epdwidth / 8) * HEIGHT];
  46:src/main.c    ****             for(uint8_t x = 0; x < epdwidth; x++) {
  47:src/main.c    ****                 for (uint8_t y = 0; y < HEIGHT; y++) {
  48:src/main.c    ****                     EINK_draw_absolute_pixel(buffer,x,y,0);
  49:src/main.c    ****                 }
  50:src/main.c    ****             }
  51:src/main.c    ****             for(int i = 0; i < 122/epdwidth; i++) {
  52:src/main.c    ****                 for(int j = 0; j < 250/HEIGHT; j++) {
  53:src/main.c    ****                     EINK_set_partial_red(buffer, i*epdwidth,j*HEIGHT, epdwidth,HEIGHT);
  54:src/main.c    ****                     EINK_set_partial_black(buffer, i*epdwidth,j*HEIGHT, epdwidth,HEIGHT);
  55:src/main.c    ****                 }
  56:src/main.c    ****             }
  57:src/main.c    ****             uint8_t cv[1];
GAS LISTING C:\Users\Rando\AppData\Local\Temp\ccaGBvwp.s 			page 8


  58:src/main.c    ****             //Overwrite with no powerup set
  59:src/main.c    ****             cv[0] = (1 << CRCO) | (1 << EN_CRC) | (1 << MASK_MAX_RT);
  60:src/main.c    ****             nrf24l01_write_register(CONFIG, cv,1);
  61:src/main.c    ****             set_sleep_mode(SLEEP_MODE_PWR_DOWN);
  62:src/main.c    ****             sleep_mode();
  63:src/main.c    ****         }
  64:src/main.c    ****         tc = 0;
  65:src/main.c    ****     }
  66:src/main.c    **** }
 339               		.loc 1 66 0
 340 015a 9F91      		pop r25
 341 015c 8F91      		pop r24
 342 015e 0F90      		pop r0
 343 0160 0FBE      		out __SREG__,r0
 344 0162 0F90      		pop r0
 345 0164 1F90      		pop r1
 346 0166 1895      		reti
 347               		.cfi_endproc
 348               	.LFE8:
 349               		.size	__vector_17, .-__vector_17
 350               		.section	.text.startup,"ax",@progbits
 351               	.global	main
 352               		.type	main, @function
 353               	main:
 354               	.LFB9:
  67:src/main.c    **** 
  68:src/main.c    **** int main() {
 355               		.loc 1 68 0
 356               		.cfi_startproc
 357 0000 BF92      		push r11
 358               	.LCFI28:
 359               		.cfi_def_cfa_offset 3
 360               		.cfi_offset 11, -2
 361 0002 CF92      		push r12
 362               	.LCFI29:
 363               		.cfi_def_cfa_offset 4
 364               		.cfi_offset 12, -3
 365 0004 DF92      		push r13
 366               	.LCFI30:
 367               		.cfi_def_cfa_offset 5
 368               		.cfi_offset 13, -4
 369 0006 EF92      		push r14
 370               	.LCFI31:
 371               		.cfi_def_cfa_offset 6
 372               		.cfi_offset 14, -5
 373 0008 FF92      		push r15
 374               	.LCFI32:
 375               		.cfi_def_cfa_offset 7
 376               		.cfi_offset 15, -6
 377 000a 0F93      		push r16
 378               	.LCFI33:
 379               		.cfi_def_cfa_offset 8
 380               		.cfi_offset 16, -7
 381 000c 1F93      		push r17
 382               	.LCFI34:
 383               		.cfi_def_cfa_offset 9
 384               		.cfi_offset 17, -8
GAS LISTING C:\Users\Rando\AppData\Local\Temp\ccaGBvwp.s 			page 9


 385 000e CF93      		push r28
 386               	.LCFI35:
 387               		.cfi_def_cfa_offset 10
 388               		.cfi_offset 28, -9
 389 0010 DF93      		push r29
 390               	.LCFI36:
 391               		.cfi_def_cfa_offset 11
 392               		.cfi_offset 29, -10
 393 0012 00D0      		rcall .
 394 0014 00D0      		rcall .
 395 0016 1F92      		push __zero_reg__
 396               	.LCFI37:
 397               		.cfi_def_cfa_offset 16
 398 0018 CDB7      		in r28,__SP_L__
 399 001a DEB7      		in r29,__SP_H__
 400               	.LCFI38:
 401               		.cfi_def_cfa_register 28
 402               	/* prologue: function */
 403               	/* frame size = 5 */
 404               	/* stack size = 14 */
 405               	.L__stack_usage = 14
  69:src/main.c    **** 
  70:src/main.c    ****     //DEBUG led
  71:src/main.c    ****     DDRF = (1 << DDF0);
  72:src/main.c    **** 	
  73:src/main.c    ****     if(batmon_init()) {
  74:src/main.c    ****         batmon_config(700);
  75:src/main.c    ****         if(batmon_soc() > 25) { // Akut üle 25%? Läheme käima
  76:src/main.c    ****         
  77:src/main.c    ****             // Ja tekitame timeri, millega akut kontrollida 100ms
  78:src/main.c    ****             TIMSK1 |= (1 << OCIE1A);
  79:src/main.c    ****             TCCR1B |= (1 << WGM12) | (1<<CS10) | (1 << CS12);
  80:src/main.c    ****             OCR1A = 1562;
  81:src/main.c    ****         
  82:src/main.c    ****             //IRQ
  83:src/main.c    ****             DDRE &= ~(1 << DDE6);
  84:src/main.c    ****             EICRB |= (1<<ISC60)|(0<<ISC61);   //INT6 falling edge
  85:src/main.c    ****             EIMSK |= (1<<INT6);
  86:src/main.c    ****             sei();
  87:src/main.c    ****             
  88:src/main.c    ****             // EINK Busy
  89:src/main.c    ****             DDRD &= ~(1 << DDD3);
  90:src/main.c    **** 
  91:src/main.c    ****             SPI_init();   
  92:src/main.c    ****             EINK_init();
  93:src/main.c    ****             EINK_wait();
  94:src/main.c    ****             
  95:src/main.c    ****             uint8_t buffer[(epdwidth / 8) * HEIGHT];
  96:src/main.c    ****             clean_buffer(buffer);
  97:src/main.c    ****             EINK_wait();
  98:src/main.c    ****             
  99:src/main.c    ****             // Valgeks
 100:src/main.c    ****             EINK_send_command(DISPLAY_REFRESH);
 101:src/main.c    ****             EINK_wait();
 102:src/main.c    **** 
 103:src/main.c    ****             // Delay piisavalt, et esimese refreshi jõuaks enne ära teha
 104:src/main.c    ****             _delay_ms(15000);
GAS LISTING C:\Users\Rando\AppData\Local\Temp\ccaGBvwp.s 			page 10


 105:src/main.c    **** 
 106:src/main.c    ****             //Suvaline aadress
 107:src/main.c    ****             uint8_t address[5];
 108:src/main.c    ****             for(int i = 0; i < 5; i++) {
 109:src/main.c    ****                 address[i] = 0x12+i;
 110:src/main.c    ****             }
 111:src/main.c    ****                 
 112:src/main.c    ****             nrf24l01_init(5, address, 110, 10 ,MODE_RECIEVE);
 113:src/main.c    ****             nrf24l01_read_register(R_RX_PAYLOAD,(uint8_t *)data,10); // Esimesel korral peame puhvr
 114:src/main.c    ****             nrf24l01_reset_interrupts();    
 115:src/main.c    **** 
 116:src/main.c    ****             while(1) {
 117:src/main.c    ****                 if(data_available) {
 118:src/main.c    ****                     if(data[0] == 'D') {
 119:src/main.c    ****                         if(data[1] == 'B') {
 120:src/main.c    ****                             EINK_set_partial_black(buffer, (uint8_t)data[2], (uint8_t)data[3], epdw
 121:src/main.c    ****                             EINK_wait();
 122:src/main.c    ****                             for(uint8_t x = 0; x < epdwidth; x++) {
 123:src/main.c    ****                                 for (uint8_t y = 0; y < HEIGHT; y++) {
 124:src/main.c    ****                                     EINK_draw_absolute_pixel(buffer,x,y,0);
 125:src/main.c    ****                                 }
 126:src/main.c    ****                             }
 127:src/main.c    ****                         } else if (data[1] == 'R') {
 128:src/main.c    ****                             EINK_set_partial_red(buffer, (uint8_t)data[2], (uint8_t)data[3], epdwid
 129:src/main.c    ****                             EINK_wait();
 130:src/main.c    ****                             for(uint8_t x = 0; x < epdwidth; x++) {
 131:src/main.c    ****                                 for (uint8_t y = 0; y < HEIGHT; y++) {
 132:src/main.c    ****                                     EINK_draw_absolute_pixel(buffer,x,y,0);
 133:src/main.c    ****                                 }
 134:src/main.c    ****                             }
 135:src/main.c    ****                         }
 136:src/main.c    ****                     } else {
 137:src/main.c    ****                         if(data[0] == 'S') {
 138:src/main.c    ****                             EINK_draw_absolute_pixel(buffer,(uint8_t)data[1],(uint8_t)data[2],1);
 139:src/main.c    ****                         } else if(data[0] == 'C') {
 140:src/main.c    ****                             EINK_draw_absolute_pixel(buffer,data[1],data[2],0);
 141:src/main.c    ****                         } else if(data[0] == 'R') {
 142:src/main.c    ****                             EINK_send_command(DISPLAY_REFRESH);
 143:src/main.c    ****                             EINK_wait();
 144:src/main.c    ****                         } else if(data[0] == 'W') {
 145:src/main.c    ****                             clean_buffer(buffer);
 146:src/main.c    ****                             EINK_wait();
 147:src/main.c    ****                         }
 148:src/main.c    ****                     }
 149:src/main.c    ****                         
 150:src/main.c    ****                     nrf24l01_reset_interrupts();
 151:src/main.c    ****                     data_available = 0;
 152:src/main.c    ****                 }
 153:src/main.c    ****             }
 154:src/main.c    ****         }
 155:src/main.c    ****     }
 156:src/main.c    ****     return 0;
 157:src/main.c    **** }...
 406               		.loc 1 157 0
 407 001c 0DB7      		in r16,__SP_L__
 408 001e 1EB7      		in r17,__SP_H__
  71:src/main.c    ****     DDRF = (1 << DDF0);
GAS LISTING C:\Users\Rando\AppData\Local\Temp\ccaGBvwp.s 			page 11


 409               		.loc 1 71 0
 410 0020 81E0      		ldi r24,lo8(1)
 411 0022 80BB      		out 0x10,r24
  73:src/main.c    ****     if(batmon_init()) {
 412               		.loc 1 73 0
 413 0024 0E94 0000 		call batmon_init
 414               	.LVL16:
 415 0028 8111      		cpse r24,__zero_reg__
 416 002a 00C0      		rjmp .L49
 417               	.L22:
 418               		.loc 1 157 0
 419 002c 80E0      		ldi r24,0
 420 002e 90E0      		ldi r25,0
 421 0030 0FB6      		in __tmp_reg__,__SREG__
 422 0032 F894      		cli
 423 0034 1EBF      		out __SP_H__,r17
 424 0036 0FBE      		out __SREG__,__tmp_reg__
 425 0038 0DBF      		out __SP_L__,r16
 426               	/* epilogue start */
 427 003a 0F90      		pop __tmp_reg__
 428 003c 0F90      		pop __tmp_reg__
 429 003e 0F90      		pop __tmp_reg__
 430 0040 0F90      		pop __tmp_reg__
 431 0042 0F90      		pop __tmp_reg__
 432 0044 DF91      		pop r29
 433 0046 CF91      		pop r28
 434 0048 1F91      		pop r17
 435 004a 0F91      		pop r16
 436 004c FF90      		pop r15
 437 004e EF90      		pop r14
 438 0050 DF90      		pop r13
 439 0052 CF90      		pop r12
 440 0054 BF90      		pop r11
 441 0056 0895      		ret
 442               	.L49:
  74:src/main.c    ****         batmon_config(700);
 443               		.loc 1 74 0
 444 0058 8CEB      		ldi r24,lo8(-68)
 445 005a 92E0      		ldi r25,lo8(2)
 446 005c 0E94 0000 		call batmon_config
 447               	.LVL17:
  75:src/main.c    ****         if(batmon_soc() > 25) { // Akut üle 25%? Läheme käima
 448               		.loc 1 75 0
 449 0060 0E94 0000 		call batmon_soc
 450               	.LVL18:
 451 0064 8A31      		cpi r24,lo8(26)
 452 0066 00F0      		brlo .L22
 453               	.LBB14:
  78:src/main.c    ****             TIMSK1 |= (1 << OCIE1A);
 454               		.loc 1 78 0 discriminator 1
 455 0068 8091 6F00 		lds r24,111
 456 006c 8260      		ori r24,lo8(2)
 457 006e 8093 6F00 		sts 111,r24
  79:src/main.c    ****             TCCR1B |= (1 << WGM12) | (1<<CS10) | (1 << CS12);
 458               		.loc 1 79 0 discriminator 1
 459 0072 8091 8100 		lds r24,129
 460 0076 8D60      		ori r24,lo8(13)
GAS LISTING C:\Users\Rando\AppData\Local\Temp\ccaGBvwp.s 			page 12


 461 0078 8093 8100 		sts 129,r24
  80:src/main.c    ****             OCR1A = 1562;
 462               		.loc 1 80 0 discriminator 1
 463 007c 8AE1      		ldi r24,lo8(26)
 464 007e 96E0      		ldi r25,lo8(6)
 465 0080 9093 8900 		sts 136+1,r25
 466 0084 8093 8800 		sts 136,r24
  83:src/main.c    ****             DDRE &= ~(1 << DDE6);
 467               		.loc 1 83 0 discriminator 1
 468 0088 6E98      		cbi 0xd,6
  84:src/main.c    ****             EICRB |= (1<<ISC60)|(0<<ISC61);   //INT6 falling edge
 469               		.loc 1 84 0 discriminator 1
 470 008a 8091 6A00 		lds r24,106
 471 008e 8061      		ori r24,lo8(16)
 472 0090 8093 6A00 		sts 106,r24
  85:src/main.c    ****             EIMSK |= (1<<INT6);
 473               		.loc 1 85 0 discriminator 1
 474 0094 EE9A      		sbi 0x1d,6
  86:src/main.c    ****             sei();
 475               		.loc 1 86 0 discriminator 1
 476               	/* #APP */
 477               	 ;  86 "src/main.c" 1
 478 0096 7894      		sei
 479               	 ;  0 "" 2
  89:src/main.c    ****             DDRD &= ~(1 << DDD3);
 480               		.loc 1 89 0 discriminator 1
 481               	/* #NOAPP */
 482 0098 5398      		cbi 0xa,3
  91:src/main.c    ****             SPI_init();   
 483               		.loc 1 91 0 discriminator 1
 484 009a 0E94 0000 		call SPI_init
 485               	.LVL19:
  92:src/main.c    ****             EINK_init();
 486               		.loc 1 92 0 discriminator 1
 487 009e 0E94 0000 		call EINK_init
 488               	.LVL20:
  93:src/main.c    ****             EINK_wait();
 489               		.loc 1 93 0 discriminator 1
 490 00a2 0E94 0000 		call EINK_wait
 491               	.LVL21:
  95:src/main.c    ****             uint8_t buffer[(epdwidth / 8) * HEIGHT];
 492               		.loc 1 95 0 discriminator 1
 493 00a6 8091 0000 		lds r24,epdwidth
 494 00aa 8695      		lsr r24
 495 00ac 8695      		lsr r24
 496 00ae 8695      		lsr r24
 497               	.LVL22:
 498 00b0 2DB7      		in r18,__SP_L__
 499 00b2 3EB7      		in r19,__SP_H__
 500 00b4 98E2      		ldi r25,lo8(40)
 501 00b6 899F      		mul r24,r25
 502 00b8 2019      		sub r18,r0
 503 00ba 3109      		sbc r19,r1
 504 00bc 1124      		clr __zero_reg__
 505 00be 0FB6      		in __tmp_reg__,__SREG__
 506 00c0 F894      		cli
 507 00c2 3EBF      		out __SP_H__,r19
GAS LISTING C:\Users\Rando\AppData\Local\Temp\ccaGBvwp.s 			page 13


 508 00c4 0FBE      		out __SREG__,__tmp_reg__
 509 00c6 2DBF      		out __SP_L__,r18
 510 00c8 2F5F      		subi r18,-1
 511 00ca 3F4F      		sbci r19,-1
 512 00cc 7901      		movw r14,r18
 513               	.LVL23:
  96:src/main.c    ****             clean_buffer(buffer);
 514               		.loc 1 96 0 discriminator 1
 515 00ce C901      		movw r24,r18
 516               	.LVL24:
 517 00d0 0E94 0000 		call clean_buffer
 518               	.LVL25:
  97:src/main.c    ****             EINK_wait();
 519               		.loc 1 97 0 discriminator 1
 520 00d4 0E94 0000 		call EINK_wait
 521               	.LVL26:
 100:src/main.c    ****             EINK_send_command(DISPLAY_REFRESH);
 522               		.loc 1 100 0 discriminator 1
 523 00d8 82E1      		ldi r24,lo8(18)
 524 00da 0E94 0000 		call EINK_send_command
 525               	.LVL27:
 101:src/main.c    ****             EINK_wait();
 526               		.loc 1 101 0 discriminator 1
 527 00de 0E94 0000 		call EINK_wait
 528               	.LVL28:
 529               	.LBB15:
 530               	.LBB16:
 531               		.file 2 "c:\\avr toolchain\\avr\\include\\util\\delay.h"
   1:c:\avr toolchain\avr\include\util\delay.h **** /* Copyright (c) 2002, Marek Michalkiewicz
   2:c:\avr toolchain\avr\include\util\delay.h ****    Copyright (c) 2004,2005,2007 Joerg Wunsch
   3:c:\avr toolchain\avr\include\util\delay.h ****    Copyright (c) 2007  Florin-Viorel Petrov
   4:c:\avr toolchain\avr\include\util\delay.h ****    All rights reserved.
   5:c:\avr toolchain\avr\include\util\delay.h **** 
   6:c:\avr toolchain\avr\include\util\delay.h ****    Redistribution and use in source and binary forms, with or without
   7:c:\avr toolchain\avr\include\util\delay.h ****    modification, are permitted provided that the following conditions are met:
   8:c:\avr toolchain\avr\include\util\delay.h **** 
   9:c:\avr toolchain\avr\include\util\delay.h ****    * Redistributions of source code must retain the above copyright
  10:c:\avr toolchain\avr\include\util\delay.h ****      notice, this list of conditions and the following disclaimer.
  11:c:\avr toolchain\avr\include\util\delay.h **** 
  12:c:\avr toolchain\avr\include\util\delay.h ****    * Redistributions in binary form must reproduce the above copyright
  13:c:\avr toolchain\avr\include\util\delay.h ****      notice, this list of conditions and the following disclaimer in
  14:c:\avr toolchain\avr\include\util\delay.h ****      the documentation and/or other materials provided with the
  15:c:\avr toolchain\avr\include\util\delay.h ****      distribution.
  16:c:\avr toolchain\avr\include\util\delay.h **** 
  17:c:\avr toolchain\avr\include\util\delay.h ****    * Neither the name of the copyright holders nor the names of
  18:c:\avr toolchain\avr\include\util\delay.h ****      contributors may be used to endorse or promote products derived
  19:c:\avr toolchain\avr\include\util\delay.h ****      from this software without specific prior written permission.
  20:c:\avr toolchain\avr\include\util\delay.h **** 
  21:c:\avr toolchain\avr\include\util\delay.h ****   THIS SOFTWARE IS PROVIDED BY THE COPYRIGHT HOLDERS AND CONTRIBUTORS "AS IS"
  22:c:\avr toolchain\avr\include\util\delay.h ****   AND ANY EXPRESS OR IMPLIED WARRANTIES, INCLUDING, BUT NOT LIMITED TO, THE
  23:c:\avr toolchain\avr\include\util\delay.h ****   IMPLIED WARRANTIES OF MERCHANTABILITY AND FITNESS FOR A PARTICULAR PURPOSE
  24:c:\avr toolchain\avr\include\util\delay.h ****   ARE DISCLAIMED. IN NO EVENT SHALL THE COPYRIGHT OWNER OR CONTRIBUTORS BE
  25:c:\avr toolchain\avr\include\util\delay.h ****   LIABLE FOR ANY DIRECT, INDIRECT, INCIDENTAL, SPECIAL, EXEMPLARY, OR
  26:c:\avr toolchain\avr\include\util\delay.h ****   CONSEQUENTIAL DAMAGES (INCLUDING, BUT NOT LIMITED TO, PROCUREMENT OF
  27:c:\avr toolchain\avr\include\util\delay.h ****   SUBSTITUTE GOODS OR SERVICES; LOSS OF USE, DATA, OR PROFITS; OR BUSINESS
  28:c:\avr toolchain\avr\include\util\delay.h ****   INTERRUPTION) HOWEVER CAUSED AND ON ANY THEORY OF LIABILITY, WHETHER IN
  29:c:\avr toolchain\avr\include\util\delay.h ****   CONTRACT, STRICT LIABILITY, OR TORT (INCLUDING NEGLIGENCE OR OTHERWISE)
GAS LISTING C:\Users\Rando\AppData\Local\Temp\ccaGBvwp.s 			page 14


  30:c:\avr toolchain\avr\include\util\delay.h ****   ARISING IN ANY WAY OUT OF THE USE OF THIS SOFTWARE, EVEN IF ADVISED OF THE
  31:c:\avr toolchain\avr\include\util\delay.h ****   POSSIBILITY OF SUCH DAMAGE. */
  32:c:\avr toolchain\avr\include\util\delay.h **** 
  33:c:\avr toolchain\avr\include\util\delay.h **** /* $Id$ */
  34:c:\avr toolchain\avr\include\util\delay.h **** 
  35:c:\avr toolchain\avr\include\util\delay.h **** #ifndef _UTIL_DELAY_H_
  36:c:\avr toolchain\avr\include\util\delay.h **** #define _UTIL_DELAY_H_ 1
  37:c:\avr toolchain\avr\include\util\delay.h **** 
  38:c:\avr toolchain\avr\include\util\delay.h **** #ifndef __DOXYGEN__
  39:c:\avr toolchain\avr\include\util\delay.h **** #  ifndef __HAS_DELAY_CYCLES
  40:c:\avr toolchain\avr\include\util\delay.h **** #    define __HAS_DELAY_CYCLES 1
  41:c:\avr toolchain\avr\include\util\delay.h **** #  endif
  42:c:\avr toolchain\avr\include\util\delay.h **** #endif  /* __DOXYGEN__ */
  43:c:\avr toolchain\avr\include\util\delay.h **** 
  44:c:\avr toolchain\avr\include\util\delay.h **** #include <inttypes.h>
  45:c:\avr toolchain\avr\include\util\delay.h **** #include <util/delay_basic.h>
  46:c:\avr toolchain\avr\include\util\delay.h **** #include <math.h>
  47:c:\avr toolchain\avr\include\util\delay.h **** 
  48:c:\avr toolchain\avr\include\util\delay.h **** /** \file */
  49:c:\avr toolchain\avr\include\util\delay.h **** /** \defgroup util_delay <util/delay.h>: Convenience functions for busy-wait delay loops
  50:c:\avr toolchain\avr\include\util\delay.h ****     \code
  51:c:\avr toolchain\avr\include\util\delay.h ****     #define F_CPU 1000000UL  // 1 MHz
  52:c:\avr toolchain\avr\include\util\delay.h ****     //#define F_CPU 14.7456E6
  53:c:\avr toolchain\avr\include\util\delay.h ****     #include <util/delay.h>
  54:c:\avr toolchain\avr\include\util\delay.h ****     \endcode
  55:c:\avr toolchain\avr\include\util\delay.h **** 
  56:c:\avr toolchain\avr\include\util\delay.h ****     \note As an alternative method, it is possible to pass the
  57:c:\avr toolchain\avr\include\util\delay.h ****     F_CPU macro down to the compiler from the Makefile.
  58:c:\avr toolchain\avr\include\util\delay.h ****     Obviously, in that case, no \c \#define statement should be
  59:c:\avr toolchain\avr\include\util\delay.h ****     used.
  60:c:\avr toolchain\avr\include\util\delay.h **** 
  61:c:\avr toolchain\avr\include\util\delay.h ****     The functions in this header file are wrappers around the basic
  62:c:\avr toolchain\avr\include\util\delay.h ****     busy-wait functions from <util/delay_basic.h>.  They are meant as
  63:c:\avr toolchain\avr\include\util\delay.h ****     convenience functions where actual time values can be specified
  64:c:\avr toolchain\avr\include\util\delay.h ****     rather than a number of cycles to wait for.  The idea behind is
  65:c:\avr toolchain\avr\include\util\delay.h ****     that compile-time constant expressions will be eliminated by
  66:c:\avr toolchain\avr\include\util\delay.h ****     compiler optimization so floating-point expressions can be used
  67:c:\avr toolchain\avr\include\util\delay.h ****     to calculate the number of delay cycles needed based on the CPU
  68:c:\avr toolchain\avr\include\util\delay.h ****     frequency passed by the macro F_CPU.
  69:c:\avr toolchain\avr\include\util\delay.h **** 
  70:c:\avr toolchain\avr\include\util\delay.h ****     \note In order for these functions to work as intended, compiler
  71:c:\avr toolchain\avr\include\util\delay.h ****     optimizations <em>must</em> be enabled, and the delay time
  72:c:\avr toolchain\avr\include\util\delay.h ****     <em>must</em> be an expression that is a known constant at
  73:c:\avr toolchain\avr\include\util\delay.h ****     compile-time.  If these requirements are not met, the resulting
  74:c:\avr toolchain\avr\include\util\delay.h ****     delay will be much longer (and basically unpredictable), and
  75:c:\avr toolchain\avr\include\util\delay.h ****     applications that otherwise do not use floating-point calculations
  76:c:\avr toolchain\avr\include\util\delay.h ****     will experience severe code bloat by the floating-point library
  77:c:\avr toolchain\avr\include\util\delay.h ****     routines linked into the application.
  78:c:\avr toolchain\avr\include\util\delay.h **** 
  79:c:\avr toolchain\avr\include\util\delay.h ****     The functions available allow the specification of microsecond, and
  80:c:\avr toolchain\avr\include\util\delay.h ****     millisecond delays directly, using the application-supplied macro
  81:c:\avr toolchain\avr\include\util\delay.h ****     F_CPU as the CPU clock frequency (in Hertz).
  82:c:\avr toolchain\avr\include\util\delay.h **** 
  83:c:\avr toolchain\avr\include\util\delay.h **** */
  84:c:\avr toolchain\avr\include\util\delay.h **** 
  85:c:\avr toolchain\avr\include\util\delay.h **** #if !defined(__DOXYGEN__)
  86:c:\avr toolchain\avr\include\util\delay.h **** static __inline__ void _delay_us(double __us) __attribute__((__always_inline__));
GAS LISTING C:\Users\Rando\AppData\Local\Temp\ccaGBvwp.s 			page 15


  87:c:\avr toolchain\avr\include\util\delay.h **** static __inline__ void _delay_ms(double __ms) __attribute__((__always_inline__));
  88:c:\avr toolchain\avr\include\util\delay.h **** #endif
  89:c:\avr toolchain\avr\include\util\delay.h **** 
  90:c:\avr toolchain\avr\include\util\delay.h **** #ifndef F_CPU
  91:c:\avr toolchain\avr\include\util\delay.h **** /* prevent compiler error by supplying a default */
  92:c:\avr toolchain\avr\include\util\delay.h **** # warning "F_CPU not defined for <util/delay.h>"
  93:c:\avr toolchain\avr\include\util\delay.h **** /** \ingroup util_delay
  94:c:\avr toolchain\avr\include\util\delay.h ****     \def F_CPU
  95:c:\avr toolchain\avr\include\util\delay.h ****     \brief CPU frequency in Hz
  96:c:\avr toolchain\avr\include\util\delay.h **** 
  97:c:\avr toolchain\avr\include\util\delay.h ****     The macro F_CPU specifies the CPU frequency to be considered by
  98:c:\avr toolchain\avr\include\util\delay.h ****     the delay macros.  This macro is normally supplied by the
  99:c:\avr toolchain\avr\include\util\delay.h ****     environment (e.g. from within a project header, or the project's
 100:c:\avr toolchain\avr\include\util\delay.h ****     Makefile).  The value 1 MHz here is only provided as a "vanilla"
 101:c:\avr toolchain\avr\include\util\delay.h ****     fallback if no such user-provided definition could be found.
 102:c:\avr toolchain\avr\include\util\delay.h **** 
 103:c:\avr toolchain\avr\include\util\delay.h ****     In terms of the delay functions, the CPU frequency can be given as
 104:c:\avr toolchain\avr\include\util\delay.h ****     a floating-point constant (e.g. 3.6864E6 for 3.6864 MHz).
 105:c:\avr toolchain\avr\include\util\delay.h ****     However, the macros in <util/setbaud.h> require it to be an
 106:c:\avr toolchain\avr\include\util\delay.h ****     integer value.
 107:c:\avr toolchain\avr\include\util\delay.h ****  */
 108:c:\avr toolchain\avr\include\util\delay.h **** # define F_CPU 1000000UL
 109:c:\avr toolchain\avr\include\util\delay.h **** #endif
 110:c:\avr toolchain\avr\include\util\delay.h **** 
 111:c:\avr toolchain\avr\include\util\delay.h **** #ifndef __OPTIMIZE__
 112:c:\avr toolchain\avr\include\util\delay.h **** # warning "Compiler optimizations disabled; functions from <util/delay.h> won't work as designed"
 113:c:\avr toolchain\avr\include\util\delay.h **** #endif
 114:c:\avr toolchain\avr\include\util\delay.h **** 
 115:c:\avr toolchain\avr\include\util\delay.h **** #if __HAS_DELAY_CYCLES && defined(__OPTIMIZE__) && \
 116:c:\avr toolchain\avr\include\util\delay.h ****   !defined(__DELAY_BACKWARD_COMPATIBLE__) &&	   \
 117:c:\avr toolchain\avr\include\util\delay.h ****   __STDC_HOSTED__
 118:c:\avr toolchain\avr\include\util\delay.h **** #  include <math.h>
 119:c:\avr toolchain\avr\include\util\delay.h **** #endif
 120:c:\avr toolchain\avr\include\util\delay.h **** 
 121:c:\avr toolchain\avr\include\util\delay.h **** /**
 122:c:\avr toolchain\avr\include\util\delay.h ****    \ingroup util_delay
 123:c:\avr toolchain\avr\include\util\delay.h **** 
 124:c:\avr toolchain\avr\include\util\delay.h ****    Perform a delay of \c __ms milliseconds, using _delay_loop_2().
 125:c:\avr toolchain\avr\include\util\delay.h **** 
 126:c:\avr toolchain\avr\include\util\delay.h ****    The macro F_CPU is supposed to be defined to a
 127:c:\avr toolchain\avr\include\util\delay.h ****    constant defining the CPU clock frequency (in Hertz).
 128:c:\avr toolchain\avr\include\util\delay.h **** 
 129:c:\avr toolchain\avr\include\util\delay.h ****    The maximal possible delay is 262.14 ms / F_CPU in MHz.
 130:c:\avr toolchain\avr\include\util\delay.h **** 
 131:c:\avr toolchain\avr\include\util\delay.h ****    When the user request delay which exceed the maximum possible one,
 132:c:\avr toolchain\avr\include\util\delay.h ****    _delay_ms() provides a decreased resolution functionality. In this
 133:c:\avr toolchain\avr\include\util\delay.h ****    mode _delay_ms() will work with a resolution of 1/10 ms, providing
 134:c:\avr toolchain\avr\include\util\delay.h ****    delays up to 6.5535 seconds (independent from CPU frequency).  The
 135:c:\avr toolchain\avr\include\util\delay.h ****    user will not be informed about decreased resolution.
 136:c:\avr toolchain\avr\include\util\delay.h **** 
 137:c:\avr toolchain\avr\include\util\delay.h ****    If the avr-gcc toolchain has __builtin_avr_delay_cycles()
 138:c:\avr toolchain\avr\include\util\delay.h ****    support, maximal possible delay is 4294967.295 ms/ F_CPU in MHz. For
 139:c:\avr toolchain\avr\include\util\delay.h ****    values greater than the maximal possible delay, overflows results in
 140:c:\avr toolchain\avr\include\util\delay.h ****    no delay i.e., 0ms.
 141:c:\avr toolchain\avr\include\util\delay.h **** 
 142:c:\avr toolchain\avr\include\util\delay.h ****    Conversion of \c __ms into clock cycles may not always result in
 143:c:\avr toolchain\avr\include\util\delay.h ****    integer.  By default, the clock cycles rounded up to next
GAS LISTING C:\Users\Rando\AppData\Local\Temp\ccaGBvwp.s 			page 16


 144:c:\avr toolchain\avr\include\util\delay.h ****    integer. This ensures that the user gets at least \c __ms
 145:c:\avr toolchain\avr\include\util\delay.h ****    microseconds of delay.
 146:c:\avr toolchain\avr\include\util\delay.h **** 
 147:c:\avr toolchain\avr\include\util\delay.h ****    Alternatively, by defining the macro \c __DELAY_ROUND_DOWN__, or
 148:c:\avr toolchain\avr\include\util\delay.h ****    \c __DELAY_ROUND_CLOSEST__, before including this header file, the
 149:c:\avr toolchain\avr\include\util\delay.h ****    algorithm can be made to round down, or round to closest integer,
 150:c:\avr toolchain\avr\include\util\delay.h ****    respectively.
 151:c:\avr toolchain\avr\include\util\delay.h **** 
 152:c:\avr toolchain\avr\include\util\delay.h ****    \note
 153:c:\avr toolchain\avr\include\util\delay.h **** 
 154:c:\avr toolchain\avr\include\util\delay.h ****    The implementation of _delay_ms() based on
 155:c:\avr toolchain\avr\include\util\delay.h ****    __builtin_avr_delay_cycles() is not backward compatible with older
 156:c:\avr toolchain\avr\include\util\delay.h ****    implementations.  In order to get functionality backward compatible
 157:c:\avr toolchain\avr\include\util\delay.h ****    with previous versions, the macro \c "__DELAY_BACKWARD_COMPATIBLE__"
 158:c:\avr toolchain\avr\include\util\delay.h ****    must be defined before including this header file. Also, the
 159:c:\avr toolchain\avr\include\util\delay.h ****    backward compatible algorithm will be chosen if the code is
 160:c:\avr toolchain\avr\include\util\delay.h ****    compiled in a <em>freestanding environment</em> (GCC option
 161:c:\avr toolchain\avr\include\util\delay.h ****    \c -ffreestanding), as the math functions required for rounding are
 162:c:\avr toolchain\avr\include\util\delay.h ****    not available to the compiler then.
 163:c:\avr toolchain\avr\include\util\delay.h **** 
 164:c:\avr toolchain\avr\include\util\delay.h ****  */
 165:c:\avr toolchain\avr\include\util\delay.h **** void
 166:c:\avr toolchain\avr\include\util\delay.h **** _delay_ms(double __ms)
 167:c:\avr toolchain\avr\include\util\delay.h **** {
 168:c:\avr toolchain\avr\include\util\delay.h **** 	double __tmp ;
 169:c:\avr toolchain\avr\include\util\delay.h **** #if __HAS_DELAY_CYCLES && defined(__OPTIMIZE__) && \
 170:c:\avr toolchain\avr\include\util\delay.h ****   !defined(__DELAY_BACKWARD_COMPATIBLE__) &&	   \
 171:c:\avr toolchain\avr\include\util\delay.h ****   __STDC_HOSTED__
 172:c:\avr toolchain\avr\include\util\delay.h **** 	uint32_t __ticks_dc;
 173:c:\avr toolchain\avr\include\util\delay.h **** 	extern void __builtin_avr_delay_cycles(unsigned long);
 174:c:\avr toolchain\avr\include\util\delay.h **** 	__tmp = ((F_CPU) / 1e3) * __ms;
 175:c:\avr toolchain\avr\include\util\delay.h **** 
 176:c:\avr toolchain\avr\include\util\delay.h **** 	#if defined(__DELAY_ROUND_DOWN__)
 177:c:\avr toolchain\avr\include\util\delay.h **** 		__ticks_dc = (uint32_t)fabs(__tmp);
 178:c:\avr toolchain\avr\include\util\delay.h **** 
 179:c:\avr toolchain\avr\include\util\delay.h **** 	#elif defined(__DELAY_ROUND_CLOSEST__)
 180:c:\avr toolchain\avr\include\util\delay.h **** 		__ticks_dc = (uint32_t)(fabs(__tmp)+0.5);
 181:c:\avr toolchain\avr\include\util\delay.h **** 
 182:c:\avr toolchain\avr\include\util\delay.h **** 	#else
 183:c:\avr toolchain\avr\include\util\delay.h **** 		//round up by default
 184:c:\avr toolchain\avr\include\util\delay.h **** 		__ticks_dc = (uint32_t)(ceil(fabs(__tmp)));
 185:c:\avr toolchain\avr\include\util\delay.h **** 	#endif
 186:c:\avr toolchain\avr\include\util\delay.h **** 
 187:c:\avr toolchain\avr\include\util\delay.h **** 	__builtin_avr_delay_cycles(__ticks_dc);
 532               		.loc 2 187 0 discriminator 1
 533 00e2 3FEF      		ldi r19,lo8(39999999)
 534 00e4 89E5      		ldi r24,hi8(39999999)
 535 00e6 92E6      		ldi r25,hlo8(39999999)
 536 00e8 22E0      		ldi r18,hhi8(39999999)
 537 00ea 3150      	1:	subi r19,1
 538 00ec 8040      		sbci r24,0
 539 00ee 9040      		sbci r25,0
 540 00f0 2040      		sbci r18,0
 541 00f2 01F4      		brne 1b
 542 00f4 00C0      		rjmp .
 543 00f6 0000      		nop
 544               	.LVL29:
GAS LISTING C:\Users\Rando\AppData\Local\Temp\ccaGBvwp.s 			page 17


 545               	.LBE16:
 546               	.LBE15:
 547               	.LBB17:
 109:src/main.c    ****                 address[i] = 0x12+i;
 548               		.loc 1 109 0 discriminator 1
 549 00f8 82E1      		ldi r24,lo8(18)
 550 00fa 8983      		std Y+1,r24
 551               	.LVL30:
 552 00fc 83E1      		ldi r24,lo8(19)
 553 00fe 8A83      		std Y+2,r24
 554               	.LVL31:
 555 0100 84E1      		ldi r24,lo8(20)
 556 0102 8B83      		std Y+3,r24
 557               	.LVL32:
 558 0104 85E1      		ldi r24,lo8(21)
 559 0106 8C83      		std Y+4,r24
 560               	.LVL33:
 561 0108 86E1      		ldi r24,lo8(22)
 562 010a 8D83      		std Y+5,r24
 563               	.LVL34:
 564               	.LBE17:
 112:src/main.c    ****             nrf24l01_init(5, address, 110, 10 ,MODE_RECIEVE);
 565               		.loc 1 112 0 discriminator 1
 566 010c 01E0      		ldi r16,lo8(1)
 567 010e 2AE0      		ldi r18,lo8(10)
 568 0110 4EE6      		ldi r20,lo8(110)
 569 0112 BE01      		movw r22,r28
 570 0114 6F5F      		subi r22,-1
 571 0116 7F4F      		sbci r23,-1
 572 0118 85E0      		ldi r24,lo8(5)
 573 011a 0E94 0000 		call nrf24l01_init
 574               	.LVL35:
 113:src/main.c    ****             nrf24l01_read_register(R_RX_PAYLOAD,(uint8_t *)data,10); // Esimesel korral peame puhvr
 575               		.loc 1 113 0 discriminator 1
 576 011e 4AE0      		ldi r20,lo8(10)
 577 0120 60E0      		ldi r22,lo8(data)
 578 0122 70E0      		ldi r23,hi8(data)
 579 0124 81E6      		ldi r24,lo8(97)
 580 0126 0E94 0000 		call nrf24l01_read_register
 581               	.LVL36:
 114:src/main.c    ****             nrf24l01_reset_interrupts();    
 582               		.loc 1 114 0 discriminator 1
 583 012a 0E94 0000 		call nrf24l01_reset_interrupts
 584               	.LVL37:
 585               	.L23:
 117:src/main.c    ****                 if(data_available) {
 586               		.loc 1 117 0
 587 012e 8091 0000 		lds r24,data_available
 588 0132 8823      		tst r24
 589 0134 01F0      		breq .L23
 118:src/main.c    ****                     if(data[0] == 'D') {
 590               		.loc 1 118 0
 591 0136 8091 0000 		lds r24,data
 592 013a 8434      		cpi r24,lo8(68)
 593 013c 01F0      		breq .L50
 137:src/main.c    ****                         if(data[0] == 'S') {
 594               		.loc 1 137 0
GAS LISTING C:\Users\Rando\AppData\Local\Temp\ccaGBvwp.s 			page 18


 595 013e 8091 0000 		lds r24,data
 596 0142 8335      		cpi r24,lo8(83)
 597 0144 01F4      		brne .+2
 598 0146 00C0      		rjmp .L51
 139:src/main.c    ****                         } else if(data[0] == 'C') {
 599               		.loc 1 139 0
 600 0148 8091 0000 		lds r24,data
 601 014c 8334      		cpi r24,lo8(67)
 602 014e 01F4      		brne .+2
 603 0150 00C0      		rjmp .L52
 141:src/main.c    ****                         } else if(data[0] == 'R') {
 604               		.loc 1 141 0
 605 0152 8091 0000 		lds r24,data
 606 0156 8235      		cpi r24,lo8(82)
 607 0158 01F4      		brne .+2
 608 015a 00C0      		rjmp .L53
 144:src/main.c    ****                         } else if(data[0] == 'W') {
 609               		.loc 1 144 0
 610 015c 8091 0000 		lds r24,data
 611 0160 8735      		cpi r24,lo8(87)
 612 0162 01F4      		brne .+2
 613 0164 00C0      		rjmp .L54
 614               	.L27:
 150:src/main.c    ****                     nrf24l01_reset_interrupts();
 615               		.loc 1 150 0
 616 0166 0E94 0000 		call nrf24l01_reset_interrupts
 617               	.LVL38:
 151:src/main.c    ****                     data_available = 0;
 618               		.loc 1 151 0
 619 016a 1092 0000 		sts data_available,__zero_reg__
 620 016e 00C0      		rjmp .L23
 621               	.L50:
 119:src/main.c    ****                         if(data[1] == 'B') {
 622               		.loc 1 119 0
 623 0170 8091 0000 		lds r24,data+1
 624 0174 8234      		cpi r24,lo8(66)
 625 0176 01F4      		brne .+2
 626 0178 00C0      		rjmp .L55
 127:src/main.c    ****                         } else if (data[1] == 'R') {
 627               		.loc 1 127 0
 628 017a 8091 0000 		lds r24,data+1
 629 017e 8235      		cpi r24,lo8(82)
 630 0180 01F4      		brne .L27
 128:src/main.c    ****                             EINK_set_partial_red(buffer, (uint8_t)data[2], (uint8_t)data[3], epdwid
 631               		.loc 1 128 0
 632 0182 4091 0000 		lds r20,data+3
 633 0186 6091 0000 		lds r22,data+2
 634 018a 2091 0000 		lds r18,epdwidth
 635 018e 30E0      		ldi r19,0
 636 0190 50E0      		ldi r21,0
 637 0192 70E0      		ldi r23,0
 638 0194 08E2      		ldi r16,lo8(40)
 639 0196 10E0      		ldi r17,0
 640 0198 C701      		movw r24,r14
 641 019a 0E94 0000 		call EINK_set_partial_red
 642               	.LVL39:
 129:src/main.c    ****                             EINK_wait();
GAS LISTING C:\Users\Rando\AppData\Local\Temp\ccaGBvwp.s 			page 19


 643               		.loc 1 129 0
 644 019e 0E94 0000 		call EINK_wait
 645               	.LVL40:
 646               	.LBB18:
 130:src/main.c    ****                             for(uint8_t x = 0; x < epdwidth; x++) {
 647               		.loc 1 130 0
 648 01a2 8091 0000 		lds r24,epdwidth
 649 01a6 8823      		tst r24
 650 01a8 01F0      		breq .L27
 130:src/main.c    ****                             for(uint8_t x = 0; x < epdwidth; x++) {
 651               		.loc 1 130 0 is_stmt 0 discriminator 3
 652 01aa B12C      		mov r11,__zero_reg__
 653               	.LVL41:
 654               	.L32:
 655 01ac CB2C      		mov r12,r11
 656 01ae D12C      		mov r13,__zero_reg__
 657 01b0 00E0      		ldi r16,0
 658 01b2 10E0      		ldi r17,0
 659               	.L31:
 660               	.LVL42:
 661               	.LBB19:
 132:src/main.c    ****                                     EINK_draw_absolute_pixel(buffer,x,y,0);
 662               		.loc 1 132 0 is_stmt 1 discriminator 3
 663 01b4 20E0      		ldi r18,0
 664 01b6 30E0      		ldi r19,0
 665 01b8 A801      		movw r20,r16
 666 01ba B601      		movw r22,r12
 667 01bc C701      		movw r24,r14
 668 01be 0E94 0000 		call EINK_draw_absolute_pixel
 669               	.LVL43:
 670 01c2 0F5F      		subi r16,-1
 671 01c4 1F4F      		sbci r17,-1
 672               	.LVL44:
 131:src/main.c    ****                                 for (uint8_t y = 0; y < HEIGHT; y++) {
 673               		.loc 1 131 0 discriminator 3
 674 01c6 0832      		cpi r16,40
 675 01c8 1105      		cpc r17,__zero_reg__
 676 01ca 01F4      		brne .L31
 677               	.LBE19:
 130:src/main.c    ****                             for(uint8_t x = 0; x < epdwidth; x++) {
 678               		.loc 1 130 0 discriminator 2
 679 01cc B394      		inc r11
 680               	.LVL45:
 681 01ce 8091 0000 		lds r24,epdwidth
 682 01d2 B816      		cp r11,r24
 683 01d4 00F0      		brlo .L32
 684 01d6 00C0      		rjmp .L27
 685               	.LVL46:
 686               	.L51:
 687               	.LBE18:
 138:src/main.c    ****                             EINK_draw_absolute_pixel(buffer,(uint8_t)data[1],(uint8_t)data[2],1);
 688               		.loc 1 138 0
 689 01d8 4091 0000 		lds r20,data+2
 690 01dc 6091 0000 		lds r22,data+1
 691 01e0 50E0      		ldi r21,0
 692 01e2 70E0      		ldi r23,0
 693 01e4 21E0      		ldi r18,lo8(1)
GAS LISTING C:\Users\Rando\AppData\Local\Temp\ccaGBvwp.s 			page 20


 694 01e6 30E0      		ldi r19,0
 695 01e8 C701      		movw r24,r14
 696 01ea 0E94 0000 		call EINK_draw_absolute_pixel
 697               	.LVL47:
 698 01ee 00C0      		rjmp .L27
 699               	.L52:
 140:src/main.c    ****                             EINK_draw_absolute_pixel(buffer,data[1],data[2],0);
 700               		.loc 1 140 0
 701 01f0 4091 0000 		lds r20,data+2
 702 01f4 6091 0000 		lds r22,data+1
 703 01f8 50E0      		ldi r21,0
 704 01fa 70E0      		ldi r23,0
 705 01fc 20E0      		ldi r18,0
 706 01fe 30E0      		ldi r19,0
 707 0200 C701      		movw r24,r14
 708 0202 0E94 0000 		call EINK_draw_absolute_pixel
 709               	.LVL48:
 710 0206 00C0      		rjmp .L27
 711               	.L55:
 120:src/main.c    ****                             EINK_set_partial_black(buffer, (uint8_t)data[2], (uint8_t)data[3], epdw
 712               		.loc 1 120 0
 713 0208 4091 0000 		lds r20,data+3
 714 020c 6091 0000 		lds r22,data+2
 715 0210 2091 0000 		lds r18,epdwidth
 716 0214 30E0      		ldi r19,0
 717 0216 50E0      		ldi r21,0
 718 0218 70E0      		ldi r23,0
 719 021a 08E2      		ldi r16,lo8(40)
 720 021c 10E0      		ldi r17,0
 721 021e C701      		movw r24,r14
 722 0220 0E94 0000 		call EINK_set_partial_black
 723               	.LVL49:
 121:src/main.c    ****                             EINK_wait();
 724               		.loc 1 121 0
 725 0224 0E94 0000 		call EINK_wait
 726               	.LVL50:
 727               	.LBB20:
 122:src/main.c    ****                             for(uint8_t x = 0; x < epdwidth; x++) {
 728               		.loc 1 122 0
 729 0228 8091 0000 		lds r24,epdwidth
 730 022c 8823      		tst r24
 731 022e 01F4      		brne .+2
 732 0230 00C0      		rjmp .L27
 122:src/main.c    ****                             for(uint8_t x = 0; x < epdwidth; x++) {
 733               		.loc 1 122 0 is_stmt 0 discriminator 3
 734 0232 B12C      		mov r11,__zero_reg__
 735               	.LVL51:
 736               	.L29:
 737 0234 CB2C      		mov r12,r11
 738 0236 D12C      		mov r13,__zero_reg__
 739 0238 00E0      		ldi r16,0
 740 023a 10E0      		ldi r17,0
 741               	.L28:
 742               	.LVL52:
 743               	.LBB21:
 124:src/main.c    ****                                     EINK_draw_absolute_pixel(buffer,x,y,0);
 744               		.loc 1 124 0 is_stmt 1 discriminator 3
GAS LISTING C:\Users\Rando\AppData\Local\Temp\ccaGBvwp.s 			page 21


 745 023c 20E0      		ldi r18,0
 746 023e 30E0      		ldi r19,0
 747 0240 A801      		movw r20,r16
 748 0242 B601      		movw r22,r12
 749 0244 C701      		movw r24,r14
 750 0246 0E94 0000 		call EINK_draw_absolute_pixel
 751               	.LVL53:
 752 024a 0F5F      		subi r16,-1
 753 024c 1F4F      		sbci r17,-1
 754               	.LVL54:
 123:src/main.c    ****                                 for (uint8_t y = 0; y < HEIGHT; y++) {
 755               		.loc 1 123 0 discriminator 3
 756 024e 0832      		cpi r16,40
 757 0250 1105      		cpc r17,__zero_reg__
 758 0252 01F4      		brne .L28
 759               	.LBE21:
 122:src/main.c    ****                             for(uint8_t x = 0; x < epdwidth; x++) {
 760               		.loc 1 122 0 discriminator 2
 761 0254 B394      		inc r11
 762               	.LVL55:
 763 0256 8091 0000 		lds r24,epdwidth
 764 025a B816      		cp r11,r24
 765 025c 00F0      		brlo .L29
 766 025e 00C0      		rjmp .L27
 767               	.LVL56:
 768               	.L53:
 769               	.LBE20:
 142:src/main.c    ****                             EINK_send_command(DISPLAY_REFRESH);
 770               		.loc 1 142 0
 771 0260 82E1      		ldi r24,lo8(18)
 772 0262 0E94 0000 		call EINK_send_command
 773               	.LVL57:
 143:src/main.c    ****                             EINK_wait();
 774               		.loc 1 143 0
 775 0266 0E94 0000 		call EINK_wait
 776               	.LVL58:
 777 026a 00C0      		rjmp .L27
 778               	.L54:
 145:src/main.c    ****                             clean_buffer(buffer);
 779               		.loc 1 145 0
 780 026c C701      		movw r24,r14
 781 026e 0E94 0000 		call clean_buffer
 782               	.LVL59:
 146:src/main.c    ****                             EINK_wait();
 783               		.loc 1 146 0
 784 0272 0E94 0000 		call EINK_wait
 785               	.LVL60:
 786 0276 00C0      		rjmp .L27
 787               	.LBE14:
 788               		.cfi_endproc
 789               	.LFE9:
 790               		.size	main, .-main
 791               	.global	tc
 792               		.section .bss
 793               		.type	tc, @object
 794               		.size	tc, 2
 795               	tc:
GAS LISTING C:\Users\Rando\AppData\Local\Temp\ccaGBvwp.s 			page 22


 796 0000 0000      		.zero	2
 797               	.global	data_available
 798               		.type	data_available, @object
 799               		.size	data_available, 1
 800               	data_available:
 801 0002 00        		.zero	1
 802               		.comm	data,10,1
 803               		.comm	epdwidth,1,1
 804               		.text
 805               	.Letext0:
 806               		.file 3 "c:\\avr toolchain\\avr\\include\\stdint.h"
 807               		.file 4 "./include/eink.h"
 808               		.file 5 "./include/nrf24l01.h"
 809               		.file 6 "./include/spi.h"
 810               		.file 7 "./include/batmon.h"
 811               		.section	.debug_info,"",@progbits
 812               	.Ldebug_info0:
 813 0000 A606 0000 		.long	0x6a6
 814 0004 0200      		.word	0x2
 815 0006 0000 0000 		.long	.Ldebug_abbrev0
 816 000a 04        		.byte	0x4
 817 000b 01        		.uleb128 0x1
 818 000c 0000 0000 		.long	.LASF35
 819 0010 0C        		.byte	0xc
 820 0011 0000 0000 		.long	.LASF36
 821 0015 0000 0000 		.long	.LASF37
 822 0019 0000 0000 		.long	.Ldebug_ranges0+0
 823 001d 0000 0000 		.long	0
 824 0021 0000 0000 		.long	0
 825 0025 0000 0000 		.long	.Ldebug_line0
 826 0029 02        		.uleb128 0x2
 827 002a 01        		.byte	0x1
 828 002b 06        		.byte	0x6
 829 002c 0000 0000 		.long	.LASF0
 830 0030 03        		.uleb128 0x3
 831 0031 0000 0000 		.long	.LASF2
 832 0035 03        		.byte	0x3
 833 0036 7E        		.byte	0x7e
 834 0037 3B00 0000 		.long	0x3b
 835 003b 02        		.uleb128 0x2
 836 003c 01        		.byte	0x1
 837 003d 08        		.byte	0x8
 838 003e 0000 0000 		.long	.LASF1
 839 0042 04        		.uleb128 0x4
 840 0043 02        		.byte	0x2
 841 0044 05        		.byte	0x5
 842 0045 696E 7400 		.string	"int"
 843 0049 03        		.uleb128 0x3
 844 004a 0000 0000 		.long	.LASF3
 845 004e 03        		.byte	0x3
 846 004f 80        		.byte	0x80
 847 0050 5400 0000 		.long	0x54
 848 0054 02        		.uleb128 0x2
 849 0055 02        		.byte	0x2
 850 0056 07        		.byte	0x7
 851 0057 0000 0000 		.long	.LASF4
 852 005b 02        		.uleb128 0x2
GAS LISTING C:\Users\Rando\AppData\Local\Temp\ccaGBvwp.s 			page 23


 853 005c 04        		.byte	0x4
 854 005d 05        		.byte	0x5
 855 005e 0000 0000 		.long	.LASF5
 856 0062 03        		.uleb128 0x3
 857 0063 0000 0000 		.long	.LASF6
 858 0067 03        		.byte	0x3
 859 0068 82        		.byte	0x82
 860 0069 6D00 0000 		.long	0x6d
 861 006d 02        		.uleb128 0x2
 862 006e 04        		.byte	0x4
 863 006f 07        		.byte	0x7
 864 0070 0000 0000 		.long	.LASF7
 865 0074 02        		.uleb128 0x2
 866 0075 08        		.byte	0x8
 867 0076 05        		.byte	0x5
 868 0077 0000 0000 		.long	.LASF8
 869 007b 02        		.uleb128 0x2
 870 007c 08        		.byte	0x8
 871 007d 07        		.byte	0x7
 872 007e 0000 0000 		.long	.LASF9
 873 0082 05        		.uleb128 0x5
 874 0083 0000 0000 		.long	.LASF38
 875 0087 02        		.byte	0x2
 876 0088 A6        		.byte	0xa6
 877 0089 01        		.byte	0x1
 878 008a 03        		.byte	0x3
 879 008b BB00 0000 		.long	0xbb
 880 008f 06        		.uleb128 0x6
 881 0090 0000 0000 		.long	.LASF39
 882 0094 02        		.byte	0x2
 883 0095 A6        		.byte	0xa6
 884 0096 BB00 0000 		.long	0xbb
 885 009a 07        		.uleb128 0x7
 886 009b 0000 0000 		.long	.LASF10
 887 009f 02        		.byte	0x2
 888 00a0 A8        		.byte	0xa8
 889 00a1 BB00 0000 		.long	0xbb
 890 00a5 07        		.uleb128 0x7
 891 00a6 0000 0000 		.long	.LASF11
 892 00aa 02        		.byte	0x2
 893 00ab AC        		.byte	0xac
 894 00ac 6200 0000 		.long	0x62
 895 00b0 08        		.uleb128 0x8
 896 00b1 01        		.byte	0x1
 897 00b2 0000 0000 		.long	.LASF40
 898 00b6 02        		.byte	0x2
 899 00b7 AD        		.byte	0xad
 900 00b8 01        		.byte	0x1
 901 00b9 00        		.byte	0
 902 00ba 00        		.byte	0
 903 00bb 02        		.uleb128 0x2
 904 00bc 04        		.byte	0x4
 905 00bd 04        		.byte	0x4
 906 00be 0000 0000 		.long	.LASF12
 907 00c2 09        		.uleb128 0x9
 908 00c3 01        		.byte	0x1
 909 00c4 0000 0000 		.long	.LASF13
GAS LISTING C:\Users\Rando\AppData\Local\Temp\ccaGBvwp.s 			page 24


 910 00c8 01        		.byte	0x1
 911 00c9 11        		.byte	0x11
 912 00ca 01        		.byte	0x1
 913 00cb 0000 0000 		.long	.LFB6
 914 00cf 0000 0000 		.long	.LFE6
 915 00d3 0000 0000 		.long	.LLST0
 916 00d7 01        		.byte	0x1
 917 00d8 0001 0000 		.long	0x100
 918 00dc 0A        		.uleb128 0xa
 919 00dd 0000 0000 		.long	.LVL0
 920 00e1 0006 0000 		.long	0x600
 921 00e5 0B        		.uleb128 0xb
 922 00e6 01        		.byte	0x1
 923 00e7 68        		.byte	0x68
 924 00e8 02        		.byte	0x2
 925 00e9 08        		.byte	0x8
 926 00ea 61        		.byte	0x61
 927 00eb 0B        		.uleb128 0xb
 928 00ec 06        		.byte	0x6
 929 00ed 66        		.byte	0x66
 930 00ee 93        		.byte	0x93
 931 00ef 01        		.uleb128 0x1
 932 00f0 67        		.byte	0x67
 933 00f1 93        		.byte	0x93
 934 00f2 01        		.uleb128 0x1
 935 00f3 05        		.byte	0x5
 936 00f4 03        		.byte	0x3
 937 00f5 0000 0000 		.long	data
 938 00f9 0B        		.uleb128 0xb
 939 00fa 01        		.byte	0x1
 940 00fb 64        		.byte	0x64
 941 00fc 01        		.byte	0x1
 942 00fd 3A        		.byte	0x3a
 943 00fe 00        		.byte	0
 944 00ff 00        		.byte	0
 945 0100 09        		.uleb128 0x9
 946 0101 01        		.byte	0x1
 947 0102 0000 0000 		.long	.LASF14
 948 0106 01        		.byte	0x1
 949 0107 19        		.byte	0x19
 950 0108 01        		.byte	0x1
 951 0109 0000 0000 		.long	.LFB7
 952 010d 0000 0000 		.long	.LFE7
 953 0111 0000 0000 		.long	.LLST1
 954 0115 01        		.byte	0x1
 955 0116 1502 0000 		.long	0x215
 956 011a 0C        		.uleb128 0xc
 957 011b 0000 0000 		.long	.LASF16
 958 011f 01        		.byte	0x1
 959 0120 19        		.byte	0x19
 960 0121 1502 0000 		.long	0x215
 961 0125 0000 0000 		.long	.LLST2
 962 0129 0D        		.uleb128 0xd
 963 012a 0000 0000 		.long	.LBB10
 964 012e 0000 0000 		.long	.LBE10
 965 0132 9001 0000 		.long	0x190
 966 0136 0E        		.uleb128 0xe
GAS LISTING C:\Users\Rando\AppData\Local\Temp\ccaGBvwp.s 			page 25


 967 0137 7800      		.string	"x"
 968 0139 01        		.byte	0x1
 969 013a 1A        		.byte	0x1a
 970 013b 3000 0000 		.long	0x30
 971 013f 0000 0000 		.long	.LLST3
 972 0143 0F        		.uleb128 0xf
 973 0144 0000 0000 		.long	.LBB11
 974 0148 0000 0000 		.long	.LBE11
 975 014c 0E        		.uleb128 0xe
 976 014d 7900      		.string	"y"
 977 014f 01        		.byte	0x1
 978 0150 1B        		.byte	0x1b
 979 0151 3000 0000 		.long	0x30
 980 0155 0000 0000 		.long	.LLST4
 981 0159 0A        		.uleb128 0xa
 982 015a 0000 0000 		.long	.LVL5
 983 015e 0D06 0000 		.long	0x60d
 984 0162 0B        		.uleb128 0xb
 985 0163 06        		.byte	0x6
 986 0164 68        		.byte	0x68
 987 0165 93        		.byte	0x93
 988 0166 01        		.uleb128 0x1
 989 0167 69        		.byte	0x69
 990 0168 93        		.byte	0x93
 991 0169 01        		.uleb128 0x1
 992 016a 02        		.byte	0x2
 993 016b 7E        		.byte	0x7e
 994 016c 00        		.sleb128 0
 995 016d 0B        		.uleb128 0xb
 996 016e 06        		.byte	0x6
 997 016f 66        		.byte	0x66
 998 0170 93        		.byte	0x93
 999 0171 01        		.uleb128 0x1
 1000 0172 67        		.byte	0x67
 1001 0173 93        		.byte	0x93
 1002 0174 01        		.uleb128 0x1
 1003 0175 02        		.byte	0x2
 1004 0176 80        		.byte	0x80
 1005 0177 00        		.sleb128 0
 1006 0178 0B        		.uleb128 0xb
 1007 0179 06        		.byte	0x6
 1008 017a 64        		.byte	0x64
 1009 017b 93        		.byte	0x93
 1010 017c 01        		.uleb128 0x1
 1011 017d 65        		.byte	0x65
 1012 017e 93        		.byte	0x93
 1013 017f 01        		.uleb128 0x1
 1014 0180 02        		.byte	0x2
 1015 0181 8C        		.byte	0x8c
 1016 0182 00        		.sleb128 0
 1017 0183 0B        		.uleb128 0xb
 1018 0184 06        		.byte	0x6
 1019 0185 62        		.byte	0x62
 1020 0186 93        		.byte	0x93
 1021 0187 01        		.uleb128 0x1
 1022 0188 63        		.byte	0x63
 1023 0189 93        		.byte	0x93
GAS LISTING C:\Users\Rando\AppData\Local\Temp\ccaGBvwp.s 			page 26


 1024 018a 01        		.uleb128 0x1
 1025 018b 01        		.byte	0x1
 1026 018c 30        		.byte	0x30
 1027 018d 00        		.byte	0
 1028 018e 00        		.byte	0
 1029 018f 00        		.byte	0
 1030 0190 0F        		.uleb128 0xf
 1031 0191 0000 0000 		.long	.LBB12
 1032 0195 0000 0000 		.long	.LBE12
 1033 0199 0E        		.uleb128 0xe
 1034 019a 6900      		.string	"i"
 1035 019c 01        		.byte	0x1
 1036 019d 1F        		.byte	0x1f
 1037 019e 4200 0000 		.long	0x42
 1038 01a2 0000 0000 		.long	.LLST5
 1039 01a6 0F        		.uleb128 0xf
 1040 01a7 0000 0000 		.long	.LBB13
 1041 01ab 0000 0000 		.long	.LBE13
 1042 01af 10        		.uleb128 0x10
 1043 01b0 6A00      		.string	"j"
 1044 01b2 01        		.byte	0x1
 1045 01b3 20        		.byte	0x20
 1046 01b4 4200 0000 		.long	0x42
 1047 01b8 11        		.uleb128 0x11
 1048 01b9 0000 0000 		.long	.LVL11
 1049 01bd 1A06 0000 		.long	0x61a
 1050 01c1 E701 0000 		.long	0x1e7
 1051 01c5 0B        		.uleb128 0xb
 1052 01c6 06        		.byte	0x6
 1053 01c7 68        		.byte	0x68
 1054 01c8 93        		.byte	0x93
 1055 01c9 01        		.uleb128 0x1
 1056 01ca 69        		.byte	0x69
 1057 01cb 93        		.byte	0x93
 1058 01cc 01        		.uleb128 0x1
 1059 01cd 02        		.byte	0x2
 1060 01ce 7E        		.byte	0x7e
 1061 01cf 00        		.sleb128 0
 1062 01d0 0B        		.uleb128 0xb
 1063 01d1 06        		.byte	0x6
 1064 01d2 64        		.byte	0x64
 1065 01d3 93        		.byte	0x93
 1066 01d4 01        		.uleb128 0x1
 1067 01d5 65        		.byte	0x65
 1068 01d6 93        		.byte	0x93
 1069 01d7 01        		.uleb128 0x1
 1070 01d8 02        		.byte	0x2
 1071 01d9 8C        		.byte	0x8c
 1072 01da 00        		.sleb128 0
 1073 01db 0B        		.uleb128 0xb
 1074 01dc 06        		.byte	0x6
 1075 01dd 60        		.byte	0x60
 1076 01de 93        		.byte	0x93
 1077 01df 01        		.uleb128 0x1
 1078 01e0 61        		.byte	0x61
 1079 01e1 93        		.byte	0x93
 1080 01e2 01        		.uleb128 0x1
GAS LISTING C:\Users\Rando\AppData\Local\Temp\ccaGBvwp.s 			page 27


 1081 01e3 02        		.byte	0x2
 1082 01e4 80        		.byte	0x80
 1083 01e5 00        		.sleb128 0
 1084 01e6 00        		.byte	0
 1085 01e7 0A        		.uleb128 0xa
 1086 01e8 0000 0000 		.long	.LVL12
 1087 01ec 2706 0000 		.long	0x627
 1088 01f0 0B        		.uleb128 0xb
 1089 01f1 06        		.byte	0x6
 1090 01f2 68        		.byte	0x68
 1091 01f3 93        		.byte	0x93
 1092 01f4 01        		.uleb128 0x1
 1093 01f5 69        		.byte	0x69
 1094 01f6 93        		.byte	0x93
 1095 01f7 01        		.uleb128 0x1
 1096 01f8 02        		.byte	0x2
 1097 01f9 7E        		.byte	0x7e
 1098 01fa 00        		.sleb128 0
 1099 01fb 0B        		.uleb128 0xb
 1100 01fc 06        		.byte	0x6
 1101 01fd 64        		.byte	0x64
 1102 01fe 93        		.byte	0x93
 1103 01ff 01        		.uleb128 0x1
 1104 0200 65        		.byte	0x65
 1105 0201 93        		.byte	0x93
 1106 0202 01        		.uleb128 0x1
 1107 0203 02        		.byte	0x2
 1108 0204 8C        		.byte	0x8c
 1109 0205 00        		.sleb128 0
 1110 0206 0B        		.uleb128 0xb
 1111 0207 06        		.byte	0x6
 1112 0208 60        		.byte	0x60
 1113 0209 93        		.byte	0x93
 1114 020a 01        		.uleb128 0x1
 1115 020b 61        		.byte	0x61
 1116 020c 93        		.byte	0x93
 1117 020d 01        		.uleb128 0x1
 1118 020e 02        		.byte	0x2
 1119 020f 80        		.byte	0x80
 1120 0210 00        		.sleb128 0
 1121 0211 00        		.byte	0
 1122 0212 00        		.byte	0
 1123 0213 00        		.byte	0
 1124 0214 00        		.byte	0
 1125 0215 12        		.uleb128 0x12
 1126 0216 02        		.byte	0x2
 1127 0217 3000 0000 		.long	0x30
 1128 021b 13        		.uleb128 0x13
 1129 021c 01        		.byte	0x1
 1130 021d 0000 0000 		.long	.LASF41
 1131 0221 01        		.byte	0x1
 1132 0222 28        		.byte	0x28
 1133 0223 01        		.byte	0x1
 1134 0224 0000 0000 		.long	.LFB8
 1135 0228 0000 0000 		.long	.LFE8
 1136 022c 0000 0000 		.long	.LLST6
 1137 0230 01        		.byte	0x1
GAS LISTING C:\Users\Rando\AppData\Local\Temp\ccaGBvwp.s 			page 28


 1138 0231 14        		.uleb128 0x14
 1139 0232 01        		.byte	0x1
 1140 0233 0000 0000 		.long	.LASF15
 1141 0237 01        		.byte	0x1
 1142 0238 44        		.byte	0x44
 1143 0239 4200 0000 		.long	0x42
 1144 023d 0000 0000 		.long	.LFB9
 1145 0241 0000 0000 		.long	.LFE9
 1146 0245 0000 0000 		.long	.LLST7
 1147 0249 01        		.byte	0x1
 1148 024a 7005 0000 		.long	0x570
 1149 024e 0D        		.uleb128 0xd
 1150 024f 0000 0000 		.long	.LBB14
 1151 0253 0000 0000 		.long	.LBE14
 1152 0257 3905 0000 		.long	0x539
 1153 025b 15        		.uleb128 0x15
 1154 025c 0000 0000 		.long	.LASF16
 1155 0260 01        		.byte	0x1
 1156 0261 5F        		.byte	0x5f
 1157 0262 7005 0000 		.long	0x570
 1158 0266 02        		.byte	0x2
 1159 0267 7E        		.byte	0x7e
 1160 0268 00        		.sleb128 0
 1161 0269 15        		.uleb128 0x15
 1162 026a 0000 0000 		.long	.LASF17
 1163 026e 01        		.byte	0x1
 1164 026f 6B        		.byte	0x6b
 1165 0270 8F05 0000 		.long	0x58f
 1166 0274 02        		.byte	0x2
 1167 0275 8C        		.byte	0x8c
 1168 0276 01        		.sleb128 1
 1169 0277 16        		.uleb128 0x16
 1170 0278 8200 0000 		.long	0x82
 1171 027c 0000 0000 		.long	.LBB15
 1172 0280 0000 0000 		.long	.LBE15
 1173 0284 01        		.byte	0x1
 1174 0285 68        		.byte	0x68
 1175 0286 B002 0000 		.long	0x2b0
 1176 028a 17        		.uleb128 0x17
 1177 028b 8F00 0000 		.long	0x8f
 1178 028f 0000 0000 		.long	.LLST9
 1179 0293 0F        		.uleb128 0xf
 1180 0294 0000 0000 		.long	.LBB16
 1181 0298 0000 0000 		.long	.LBE16
 1182 029c 18        		.uleb128 0x18
 1183 029d 9A00 0000 		.long	0x9a
 1184 02a1 0000 0000 		.long	.LLST10
 1185 02a5 18        		.uleb128 0x18
 1186 02a6 A500 0000 		.long	0xa5
 1187 02aa 0000 0000 		.long	.LLST11
 1188 02ae 00        		.byte	0
 1189 02af 00        		.byte	0
 1190 02b0 0D        		.uleb128 0xd
 1191 02b1 0000 0000 		.long	.LBB17
 1192 02b5 0000 0000 		.long	.LBE17
 1193 02b9 CB02 0000 		.long	0x2cb
 1194 02bd 0E        		.uleb128 0xe
GAS LISTING C:\Users\Rando\AppData\Local\Temp\ccaGBvwp.s 			page 29


 1195 02be 6900      		.string	"i"
 1196 02c0 01        		.byte	0x1
 1197 02c1 6C        		.byte	0x6c
 1198 02c2 4200 0000 		.long	0x42
 1199 02c6 0000 0000 		.long	.LLST12
 1200 02ca 00        		.byte	0
 1201 02cb 0D        		.uleb128 0xd
 1202 02cc 0000 0000 		.long	.LBB18
 1203 02d0 0000 0000 		.long	.LBE18
 1204 02d4 3203 0000 		.long	0x332
 1205 02d8 0E        		.uleb128 0xe
 1206 02d9 7800      		.string	"x"
 1207 02db 01        		.byte	0x1
 1208 02dc 82        		.byte	0x82
 1209 02dd 3000 0000 		.long	0x30
 1210 02e1 0000 0000 		.long	.LLST13
 1211 02e5 0F        		.uleb128 0xf
 1212 02e6 0000 0000 		.long	.LBB19
 1213 02ea 0000 0000 		.long	.LBE19
 1214 02ee 0E        		.uleb128 0xe
 1215 02ef 7900      		.string	"y"
 1216 02f1 01        		.byte	0x1
 1217 02f2 83        		.byte	0x83
 1218 02f3 3000 0000 		.long	0x30
 1219 02f7 0000 0000 		.long	.LLST14
 1220 02fb 0A        		.uleb128 0xa
 1221 02fc 0000 0000 		.long	.LVL43
 1222 0300 0D06 0000 		.long	0x60d
 1223 0304 0B        		.uleb128 0xb
 1224 0305 06        		.byte	0x6
 1225 0306 68        		.byte	0x68
 1226 0307 93        		.byte	0x93
 1227 0308 01        		.uleb128 0x1
 1228 0309 69        		.byte	0x69
 1229 030a 93        		.byte	0x93
 1230 030b 01        		.uleb128 0x1
 1231 030c 02        		.byte	0x2
 1232 030d 7E        		.byte	0x7e
 1233 030e 00        		.sleb128 0
 1234 030f 0B        		.uleb128 0xb
 1235 0310 06        		.byte	0x6
 1236 0311 66        		.byte	0x66
 1237 0312 93        		.byte	0x93
 1238 0313 01        		.uleb128 0x1
 1239 0314 67        		.byte	0x67
 1240 0315 93        		.byte	0x93
 1241 0316 01        		.uleb128 0x1
 1242 0317 02        		.byte	0x2
 1243 0318 7C        		.byte	0x7c
 1244 0319 00        		.sleb128 0
 1245 031a 0B        		.uleb128 0xb
 1246 031b 06        		.byte	0x6
 1247 031c 64        		.byte	0x64
 1248 031d 93        		.byte	0x93
 1249 031e 01        		.uleb128 0x1
 1250 031f 65        		.byte	0x65
 1251 0320 93        		.byte	0x93
GAS LISTING C:\Users\Rando\AppData\Local\Temp\ccaGBvwp.s 			page 30


 1252 0321 01        		.uleb128 0x1
 1253 0322 02        		.byte	0x2
 1254 0323 80        		.byte	0x80
 1255 0324 00        		.sleb128 0
 1256 0325 0B        		.uleb128 0xb
 1257 0326 06        		.byte	0x6
 1258 0327 62        		.byte	0x62
 1259 0328 93        		.byte	0x93
 1260 0329 01        		.uleb128 0x1
 1261 032a 63        		.byte	0x63
 1262 032b 93        		.byte	0x93
 1263 032c 01        		.uleb128 0x1
 1264 032d 01        		.byte	0x1
 1265 032e 30        		.byte	0x30
 1266 032f 00        		.byte	0
 1267 0330 00        		.byte	0
 1268 0331 00        		.byte	0
 1269 0332 0D        		.uleb128 0xd
 1270 0333 0000 0000 		.long	.LBB20
 1271 0337 0000 0000 		.long	.LBE20
 1272 033b 9903 0000 		.long	0x399
 1273 033f 0E        		.uleb128 0xe
 1274 0340 7800      		.string	"x"
 1275 0342 01        		.byte	0x1
 1276 0343 7A        		.byte	0x7a
 1277 0344 3000 0000 		.long	0x30
 1278 0348 0000 0000 		.long	.LLST15
 1279 034c 0F        		.uleb128 0xf
 1280 034d 0000 0000 		.long	.LBB21
 1281 0351 0000 0000 		.long	.LBE21
 1282 0355 0E        		.uleb128 0xe
 1283 0356 7900      		.string	"y"
 1284 0358 01        		.byte	0x1
 1285 0359 7B        		.byte	0x7b
 1286 035a 3000 0000 		.long	0x30
 1287 035e 0000 0000 		.long	.LLST16
 1288 0362 0A        		.uleb128 0xa
 1289 0363 0000 0000 		.long	.LVL53
 1290 0367 0D06 0000 		.long	0x60d
 1291 036b 0B        		.uleb128 0xb
 1292 036c 06        		.byte	0x6
 1293 036d 68        		.byte	0x68
 1294 036e 93        		.byte	0x93
 1295 036f 01        		.uleb128 0x1
 1296 0370 69        		.byte	0x69
 1297 0371 93        		.byte	0x93
 1298 0372 01        		.uleb128 0x1
 1299 0373 02        		.byte	0x2
 1300 0374 7E        		.byte	0x7e
 1301 0375 00        		.sleb128 0
 1302 0376 0B        		.uleb128 0xb
 1303 0377 06        		.byte	0x6
 1304 0378 66        		.byte	0x66
 1305 0379 93        		.byte	0x93
 1306 037a 01        		.uleb128 0x1
 1307 037b 67        		.byte	0x67
 1308 037c 93        		.byte	0x93
GAS LISTING C:\Users\Rando\AppData\Local\Temp\ccaGBvwp.s 			page 31


 1309 037d 01        		.uleb128 0x1
 1310 037e 02        		.byte	0x2
 1311 037f 7C        		.byte	0x7c
 1312 0380 00        		.sleb128 0
 1313 0381 0B        		.uleb128 0xb
 1314 0382 06        		.byte	0x6
 1315 0383 64        		.byte	0x64
 1316 0384 93        		.byte	0x93
 1317 0385 01        		.uleb128 0x1
 1318 0386 65        		.byte	0x65
 1319 0387 93        		.byte	0x93
 1320 0388 01        		.uleb128 0x1
 1321 0389 02        		.byte	0x2
 1322 038a 80        		.byte	0x80
 1323 038b 00        		.sleb128 0
 1324 038c 0B        		.uleb128 0xb
 1325 038d 06        		.byte	0x6
 1326 038e 62        		.byte	0x62
 1327 038f 93        		.byte	0x93
 1328 0390 01        		.uleb128 0x1
 1329 0391 63        		.byte	0x63
 1330 0392 93        		.byte	0x93
 1331 0393 01        		.uleb128 0x1
 1332 0394 01        		.byte	0x1
 1333 0395 30        		.byte	0x30
 1334 0396 00        		.byte	0
 1335 0397 00        		.byte	0
 1336 0398 00        		.byte	0
 1337 0399 19        		.uleb128 0x19
 1338 039a 0000 0000 		.long	.LVL19
 1339 039e 3406 0000 		.long	0x634
 1340 03a2 19        		.uleb128 0x19
 1341 03a3 0000 0000 		.long	.LVL20
 1342 03a7 4106 0000 		.long	0x641
 1343 03ab 19        		.uleb128 0x19
 1344 03ac 0000 0000 		.long	.LVL21
 1345 03b0 4E06 0000 		.long	0x64e
 1346 03b4 11        		.uleb128 0x11
 1347 03b5 0000 0000 		.long	.LVL25
 1348 03b9 0001 0000 		.long	0x100
 1349 03bd CD03 0000 		.long	0x3cd
 1350 03c1 0B        		.uleb128 0xb
 1351 03c2 06        		.byte	0x6
 1352 03c3 68        		.byte	0x68
 1353 03c4 93        		.byte	0x93
 1354 03c5 01        		.uleb128 0x1
 1355 03c6 69        		.byte	0x69
 1356 03c7 93        		.byte	0x93
 1357 03c8 01        		.uleb128 0x1
 1358 03c9 02        		.byte	0x2
 1359 03ca 7E        		.byte	0x7e
 1360 03cb 00        		.sleb128 0
 1361 03cc 00        		.byte	0
 1362 03cd 19        		.uleb128 0x19
 1363 03ce 0000 0000 		.long	.LVL26
 1364 03d2 4E06 0000 		.long	0x64e
 1365 03d6 11        		.uleb128 0x11
GAS LISTING C:\Users\Rando\AppData\Local\Temp\ccaGBvwp.s 			page 32


 1366 03d7 0000 0000 		.long	.LVL27
 1367 03db 5B06 0000 		.long	0x65b
 1368 03df E903 0000 		.long	0x3e9
 1369 03e3 0B        		.uleb128 0xb
 1370 03e4 01        		.byte	0x1
 1371 03e5 68        		.byte	0x68
 1372 03e6 01        		.byte	0x1
 1373 03e7 42        		.byte	0x42
 1374 03e8 00        		.byte	0
 1375 03e9 19        		.uleb128 0x19
 1376 03ea 0000 0000 		.long	.LVL28
 1377 03ee 4E06 0000 		.long	0x64e
 1378 03f2 11        		.uleb128 0x11
 1379 03f3 0000 0000 		.long	.LVL35
 1380 03f7 6806 0000 		.long	0x668
 1381 03fb 2104 0000 		.long	0x421
 1382 03ff 0B        		.uleb128 0xb
 1383 0400 01        		.byte	0x1
 1384 0401 68        		.byte	0x68
 1385 0402 01        		.byte	0x1
 1386 0403 35        		.byte	0x35
 1387 0404 0B        		.uleb128 0xb
 1388 0405 06        		.byte	0x6
 1389 0406 66        		.byte	0x66
 1390 0407 93        		.byte	0x93
 1391 0408 01        		.uleb128 0x1
 1392 0409 67        		.byte	0x67
 1393 040a 93        		.byte	0x93
 1394 040b 01        		.uleb128 0x1
 1395 040c 02        		.byte	0x2
 1396 040d 8C        		.byte	0x8c
 1397 040e 01        		.sleb128 1
 1398 040f 0B        		.uleb128 0xb
 1399 0410 01        		.byte	0x1
 1400 0411 64        		.byte	0x64
 1401 0412 02        		.byte	0x2
 1402 0413 08        		.byte	0x8
 1403 0414 6E        		.byte	0x6e
 1404 0415 0B        		.uleb128 0xb
 1405 0416 01        		.byte	0x1
 1406 0417 62        		.byte	0x62
 1407 0418 01        		.byte	0x1
 1408 0419 3A        		.byte	0x3a
 1409 041a 0B        		.uleb128 0xb
 1410 041b 01        		.byte	0x1
 1411 041c 60        		.byte	0x60
 1412 041d 02        		.byte	0x2
 1413 041e 80        		.byte	0x80
 1414 041f 00        		.sleb128 0
 1415 0420 00        		.byte	0
 1416 0421 11        		.uleb128 0x11
 1417 0422 0000 0000 		.long	.LVL36
 1418 0426 0006 0000 		.long	0x600
 1419 042a 4804 0000 		.long	0x448
 1420 042e 0B        		.uleb128 0xb
 1421 042f 01        		.byte	0x1
 1422 0430 68        		.byte	0x68
GAS LISTING C:\Users\Rando\AppData\Local\Temp\ccaGBvwp.s 			page 33


 1423 0431 02        		.byte	0x2
 1424 0432 08        		.byte	0x8
 1425 0433 61        		.byte	0x61
 1426 0434 0B        		.uleb128 0xb
 1427 0435 06        		.byte	0x6
 1428 0436 66        		.byte	0x66
 1429 0437 93        		.byte	0x93
 1430 0438 01        		.uleb128 0x1
 1431 0439 67        		.byte	0x67
 1432 043a 93        		.byte	0x93
 1433 043b 01        		.uleb128 0x1
 1434 043c 05        		.byte	0x5
 1435 043d 03        		.byte	0x3
 1436 043e 0000 0000 		.long	data
 1437 0442 0B        		.uleb128 0xb
 1438 0443 01        		.byte	0x1
 1439 0444 64        		.byte	0x64
 1440 0445 01        		.byte	0x1
 1441 0446 3A        		.byte	0x3a
 1442 0447 00        		.byte	0
 1443 0448 19        		.uleb128 0x19
 1444 0449 0000 0000 		.long	.LVL37
 1445 044d 7506 0000 		.long	0x675
 1446 0451 19        		.uleb128 0x19
 1447 0452 0000 0000 		.long	.LVL38
 1448 0456 7506 0000 		.long	0x675
 1449 045a 11        		.uleb128 0x11
 1450 045b 0000 0000 		.long	.LVL39
 1451 045f 1A06 0000 		.long	0x61a
 1452 0463 7E04 0000 		.long	0x47e
 1453 0467 0B        		.uleb128 0xb
 1454 0468 06        		.byte	0x6
 1455 0469 68        		.byte	0x68
 1456 046a 93        		.byte	0x93
 1457 046b 01        		.uleb128 0x1
 1458 046c 69        		.byte	0x69
 1459 046d 93        		.byte	0x93
 1460 046e 01        		.uleb128 0x1
 1461 046f 02        		.byte	0x2
 1462 0470 7E        		.byte	0x7e
 1463 0471 00        		.sleb128 0
 1464 0472 0B        		.uleb128 0xb
 1465 0473 06        		.byte	0x6
 1466 0474 60        		.byte	0x60
 1467 0475 93        		.byte	0x93
 1468 0476 01        		.uleb128 0x1
 1469 0477 61        		.byte	0x61
 1470 0478 93        		.byte	0x93
 1471 0479 01        		.uleb128 0x1
 1472 047a 02        		.byte	0x2
 1473 047b 80        		.byte	0x80
 1474 047c 00        		.sleb128 0
 1475 047d 00        		.byte	0
 1476 047e 19        		.uleb128 0x19
 1477 047f 0000 0000 		.long	.LVL40
 1478 0483 4E06 0000 		.long	0x64e
 1479 0487 11        		.uleb128 0x11
GAS LISTING C:\Users\Rando\AppData\Local\Temp\ccaGBvwp.s 			page 34


 1480 0488 0000 0000 		.long	.LVL47
 1481 048c 0D06 0000 		.long	0x60d
 1482 0490 AA04 0000 		.long	0x4aa
 1483 0494 0B        		.uleb128 0xb
 1484 0495 06        		.byte	0x6
 1485 0496 68        		.byte	0x68
 1486 0497 93        		.byte	0x93
 1487 0498 01        		.uleb128 0x1
 1488 0499 69        		.byte	0x69
 1489 049a 93        		.byte	0x93
 1490 049b 01        		.uleb128 0x1
 1491 049c 02        		.byte	0x2
 1492 049d 7E        		.byte	0x7e
 1493 049e 00        		.sleb128 0
 1494 049f 0B        		.uleb128 0xb
 1495 04a0 06        		.byte	0x6
 1496 04a1 62        		.byte	0x62
 1497 04a2 93        		.byte	0x93
 1498 04a3 01        		.uleb128 0x1
 1499 04a4 63        		.byte	0x63
 1500 04a5 93        		.byte	0x93
 1501 04a6 01        		.uleb128 0x1
 1502 04a7 01        		.byte	0x1
 1503 04a8 31        		.byte	0x31
 1504 04a9 00        		.byte	0
 1505 04aa 11        		.uleb128 0x11
 1506 04ab 0000 0000 		.long	.LVL48
 1507 04af 0D06 0000 		.long	0x60d
 1508 04b3 CD04 0000 		.long	0x4cd
 1509 04b7 0B        		.uleb128 0xb
 1510 04b8 06        		.byte	0x6
 1511 04b9 68        		.byte	0x68
 1512 04ba 93        		.byte	0x93
 1513 04bb 01        		.uleb128 0x1
 1514 04bc 69        		.byte	0x69
 1515 04bd 93        		.byte	0x93
 1516 04be 01        		.uleb128 0x1
 1517 04bf 02        		.byte	0x2
 1518 04c0 7E        		.byte	0x7e
 1519 04c1 00        		.sleb128 0
 1520 04c2 0B        		.uleb128 0xb
 1521 04c3 06        		.byte	0x6
 1522 04c4 62        		.byte	0x62
 1523 04c5 93        		.byte	0x93
 1524 04c6 01        		.uleb128 0x1
 1525 04c7 63        		.byte	0x63
 1526 04c8 93        		.byte	0x93
 1527 04c9 01        		.uleb128 0x1
 1528 04ca 01        		.byte	0x1
 1529 04cb 30        		.byte	0x30
 1530 04cc 00        		.byte	0
 1531 04cd 11        		.uleb128 0x11
 1532 04ce 0000 0000 		.long	.LVL49
 1533 04d2 2706 0000 		.long	0x627
 1534 04d6 F104 0000 		.long	0x4f1
 1535 04da 0B        		.uleb128 0xb
 1536 04db 06        		.byte	0x6
GAS LISTING C:\Users\Rando\AppData\Local\Temp\ccaGBvwp.s 			page 35


 1537 04dc 68        		.byte	0x68
 1538 04dd 93        		.byte	0x93
 1539 04de 01        		.uleb128 0x1
 1540 04df 69        		.byte	0x69
 1541 04e0 93        		.byte	0x93
 1542 04e1 01        		.uleb128 0x1
 1543 04e2 02        		.byte	0x2
 1544 04e3 7E        		.byte	0x7e
 1545 04e4 00        		.sleb128 0
 1546 04e5 0B        		.uleb128 0xb
 1547 04e6 06        		.byte	0x6
 1548 04e7 60        		.byte	0x60
 1549 04e8 93        		.byte	0x93
 1550 04e9 01        		.uleb128 0x1
 1551 04ea 61        		.byte	0x61
 1552 04eb 93        		.byte	0x93
 1553 04ec 01        		.uleb128 0x1
 1554 04ed 02        		.byte	0x2
 1555 04ee 80        		.byte	0x80
 1556 04ef 00        		.sleb128 0
 1557 04f0 00        		.byte	0
 1558 04f1 19        		.uleb128 0x19
 1559 04f2 0000 0000 		.long	.LVL50
 1560 04f6 4E06 0000 		.long	0x64e
 1561 04fa 11        		.uleb128 0x11
 1562 04fb 0000 0000 		.long	.LVL57
 1563 04ff 5B06 0000 		.long	0x65b
 1564 0503 0D05 0000 		.long	0x50d
 1565 0507 0B        		.uleb128 0xb
 1566 0508 01        		.byte	0x1
 1567 0509 68        		.byte	0x68
 1568 050a 01        		.byte	0x1
 1569 050b 42        		.byte	0x42
 1570 050c 00        		.byte	0
 1571 050d 19        		.uleb128 0x19
 1572 050e 0000 0000 		.long	.LVL58
 1573 0512 4E06 0000 		.long	0x64e
 1574 0516 11        		.uleb128 0x11
 1575 0517 0000 0000 		.long	.LVL59
 1576 051b 0001 0000 		.long	0x100
 1577 051f 2F05 0000 		.long	0x52f
 1578 0523 0B        		.uleb128 0xb
 1579 0524 06        		.byte	0x6
 1580 0525 68        		.byte	0x68
 1581 0526 93        		.byte	0x93
 1582 0527 01        		.uleb128 0x1
 1583 0528 69        		.byte	0x69
 1584 0529 93        		.byte	0x93
 1585 052a 01        		.uleb128 0x1
 1586 052b 02        		.byte	0x2
 1587 052c 7E        		.byte	0x7e
 1588 052d 00        		.sleb128 0
 1589 052e 00        		.byte	0
 1590 052f 19        		.uleb128 0x19
 1591 0530 0000 0000 		.long	.LVL60
 1592 0534 4E06 0000 		.long	0x64e
 1593 0538 00        		.byte	0
GAS LISTING C:\Users\Rando\AppData\Local\Temp\ccaGBvwp.s 			page 36


 1594 0539 1A        		.uleb128 0x1a
 1595 053a 01        		.byte	0x1
 1596 053b 8A05 0000 		.long	0x58a
 1597 053f 0000 0000 		.long	.LLST8
 1598 0543 19        		.uleb128 0x19
 1599 0544 0000 0000 		.long	.LVL16
 1600 0548 8206 0000 		.long	0x682
 1601 054c 11        		.uleb128 0x11
 1602 054d 0000 0000 		.long	.LVL17
 1603 0551 8F06 0000 		.long	0x68f
 1604 0555 6605 0000 		.long	0x566
 1605 0559 0B        		.uleb128 0xb
 1606 055a 06        		.byte	0x6
 1607 055b 68        		.byte	0x68
 1608 055c 93        		.byte	0x93
 1609 055d 01        		.uleb128 0x1
 1610 055e 69        		.byte	0x69
 1611 055f 93        		.byte	0x93
 1612 0560 01        		.uleb128 0x1
 1613 0561 03        		.byte	0x3
 1614 0562 0A        		.byte	0xa
 1615 0563 BC02      		.word	0x2bc
 1616 0565 00        		.byte	0
 1617 0566 19        		.uleb128 0x19
 1618 0567 0000 0000 		.long	.LVL18
 1619 056b 9C06 0000 		.long	0x69c
 1620 056f 00        		.byte	0
 1621 0570 1B        		.uleb128 0x1b
 1622 0571 3000 0000 		.long	0x30
 1623 0575 8305 0000 		.long	0x583
 1624 0579 1C        		.uleb128 0x1c
 1625 057a 8305 0000 		.long	0x583
 1626 057e 3905 0000 		.long	0x539
 1627 0582 00        		.byte	0
 1628 0583 02        		.uleb128 0x2
 1629 0584 02        		.byte	0x2
 1630 0585 07        		.byte	0x7
 1631 0586 0000 0000 		.long	.LASF18
 1632 058a 1D        		.uleb128 0x1d
 1633 058b 8305 0000 		.long	0x583
 1634 058f 1B        		.uleb128 0x1b
 1635 0590 3000 0000 		.long	0x30
 1636 0594 9F05 0000 		.long	0x59f
 1637 0598 1E        		.uleb128 0x1e
 1638 0599 8305 0000 		.long	0x583
 1639 059d 04        		.byte	0x4
 1640 059e 00        		.byte	0
 1641 059f 1F        		.uleb128 0x1f
 1642 05a0 0000 0000 		.long	.LASF19
 1643 05a4 04        		.byte	0x4
 1644 05a5 34        		.byte	0x34
 1645 05a6 3000 0000 		.long	0x30
 1646 05aa 01        		.byte	0x1
 1647 05ab 05        		.byte	0x5
 1648 05ac 03        		.byte	0x3
 1649 05ad 0000 0000 		.long	epdwidth
 1650 05b1 1B        		.uleb128 0x1b
GAS LISTING C:\Users\Rando\AppData\Local\Temp\ccaGBvwp.s 			page 37


 1651 05b2 C105 0000 		.long	0x5c1
 1652 05b6 C105 0000 		.long	0x5c1
 1653 05ba 1E        		.uleb128 0x1e
 1654 05bb 8305 0000 		.long	0x583
 1655 05bf 09        		.byte	0x9
 1656 05c0 00        		.byte	0
 1657 05c1 20        		.uleb128 0x20
 1658 05c2 3000 0000 		.long	0x30
 1659 05c6 1F        		.uleb128 0x1f
 1660 05c7 0000 0000 		.long	.LASF20
 1661 05cb 01        		.byte	0x1
 1662 05cc 0D        		.byte	0xd
 1663 05cd D805 0000 		.long	0x5d8
 1664 05d1 01        		.byte	0x1
 1665 05d2 05        		.byte	0x5
 1666 05d3 03        		.byte	0x3
 1667 05d4 0000 0000 		.long	data
 1668 05d8 20        		.uleb128 0x20
 1669 05d9 B105 0000 		.long	0x5b1
 1670 05dd 1F        		.uleb128 0x1f
 1671 05de 0000 0000 		.long	.LASF21
 1672 05e2 01        		.byte	0x1
 1673 05e3 0E        		.byte	0xe
 1674 05e4 C105 0000 		.long	0x5c1
 1675 05e8 01        		.byte	0x1
 1676 05e9 05        		.byte	0x5
 1677 05ea 03        		.byte	0x3
 1678 05eb 0000 0000 		.long	data_available
 1679 05ef 21        		.uleb128 0x21
 1680 05f0 7463 00   		.string	"tc"
 1681 05f3 01        		.byte	0x1
 1682 05f4 0F        		.byte	0xf
 1683 05f5 4900 0000 		.long	0x49
 1684 05f9 01        		.byte	0x1
 1685 05fa 05        		.byte	0x5
 1686 05fb 03        		.byte	0x3
 1687 05fc 0000 0000 		.long	tc
 1688 0600 22        		.uleb128 0x22
 1689 0601 01        		.byte	0x1
 1690 0602 01        		.byte	0x1
 1691 0603 0000 0000 		.long	.LASF22
 1692 0607 0000 0000 		.long	.LASF22
 1693 060b 05        		.byte	0x5
 1694 060c 7C        		.byte	0x7c
 1695 060d 22        		.uleb128 0x22
 1696 060e 01        		.byte	0x1
 1697 060f 01        		.byte	0x1
 1698 0610 0000 0000 		.long	.LASF23
 1699 0614 0000 0000 		.long	.LASF23
 1700 0618 04        		.byte	0x4
 1701 0619 3E        		.byte	0x3e
 1702 061a 22        		.uleb128 0x22
 1703 061b 01        		.byte	0x1
 1704 061c 01        		.byte	0x1
 1705 061d 0000 0000 		.long	.LASF24
 1706 0621 0000 0000 		.long	.LASF24
 1707 0625 04        		.byte	0x4
GAS LISTING C:\Users\Rando\AppData\Local\Temp\ccaGBvwp.s 			page 38


 1708 0626 40        		.byte	0x40
 1709 0627 22        		.uleb128 0x22
 1710 0628 01        		.byte	0x1
 1711 0629 01        		.byte	0x1
 1712 062a 0000 0000 		.long	.LASF25
 1713 062e 0000 0000 		.long	.LASF25
 1714 0632 04        		.byte	0x4
 1715 0633 3F        		.byte	0x3f
 1716 0634 22        		.uleb128 0x22
 1717 0635 01        		.byte	0x1
 1718 0636 01        		.byte	0x1
 1719 0637 0000 0000 		.long	.LASF26
 1720 063b 0000 0000 		.long	.LASF26
 1721 063f 06        		.byte	0x6
 1722 0640 08        		.byte	0x8
 1723 0641 22        		.uleb128 0x22
 1724 0642 01        		.byte	0x1
 1725 0643 01        		.byte	0x1
 1726 0644 0000 0000 		.long	.LASF27
 1727 0648 0000 0000 		.long	.LASF27
 1728 064c 04        		.byte	0x4
 1729 064d 36        		.byte	0x36
 1730 064e 22        		.uleb128 0x22
 1731 064f 01        		.byte	0x1
 1732 0650 01        		.byte	0x1
 1733 0651 0000 0000 		.long	.LASF28
 1734 0655 0000 0000 		.long	.LASF28
 1735 0659 04        		.byte	0x4
 1736 065a 41        		.byte	0x41
 1737 065b 22        		.uleb128 0x22
 1738 065c 01        		.byte	0x1
 1739 065d 01        		.byte	0x1
 1740 065e 0000 0000 		.long	.LASF29
 1741 0662 0000 0000 		.long	.LASF29
 1742 0666 04        		.byte	0x4
 1743 0667 3A        		.byte	0x3a
 1744 0668 22        		.uleb128 0x22
 1745 0669 01        		.byte	0x1
 1746 066a 01        		.byte	0x1
 1747 066b 0000 0000 		.long	.LASF30
 1748 066f 0000 0000 		.long	.LASF30
 1749 0673 05        		.byte	0x5
 1750 0674 7A        		.byte	0x7a
 1751 0675 22        		.uleb128 0x22
 1752 0676 01        		.byte	0x1
 1753 0677 01        		.byte	0x1
 1754 0678 0000 0000 		.long	.LASF31
 1755 067c 0000 0000 		.long	.LASF31
 1756 0680 05        		.byte	0x5
 1757 0681 7D        		.byte	0x7d
 1758 0682 22        		.uleb128 0x22
 1759 0683 01        		.byte	0x1
 1760 0684 01        		.byte	0x1
 1761 0685 0000 0000 		.long	.LASF32
 1762 0689 0000 0000 		.long	.LASF32
 1763 068d 07        		.byte	0x7
 1764 068e 0C        		.byte	0xc
GAS LISTING C:\Users\Rando\AppData\Local\Temp\ccaGBvwp.s 			page 39


 1765 068f 22        		.uleb128 0x22
 1766 0690 01        		.byte	0x1
 1767 0691 01        		.byte	0x1
 1768 0692 0000 0000 		.long	.LASF33
 1769 0696 0000 0000 		.long	.LASF33
 1770 069a 07        		.byte	0x7
 1771 069b 0D        		.byte	0xd
 1772 069c 22        		.uleb128 0x22
 1773 069d 01        		.byte	0x1
 1774 069e 01        		.byte	0x1
 1775 069f 0000 0000 		.long	.LASF34
 1776 06a3 0000 0000 		.long	.LASF34
 1777 06a7 07        		.byte	0x7
 1778 06a8 0E        		.byte	0xe
 1779 06a9 00        		.byte	0
 1780               		.section	.debug_abbrev,"",@progbits
 1781               	.Ldebug_abbrev0:
 1782 0000 01        		.uleb128 0x1
 1783 0001 11        		.uleb128 0x11
 1784 0002 01        		.byte	0x1
 1785 0003 25        		.uleb128 0x25
 1786 0004 0E        		.uleb128 0xe
 1787 0005 13        		.uleb128 0x13
 1788 0006 0B        		.uleb128 0xb
 1789 0007 03        		.uleb128 0x3
 1790 0008 0E        		.uleb128 0xe
 1791 0009 1B        		.uleb128 0x1b
 1792 000a 0E        		.uleb128 0xe
 1793 000b 55        		.uleb128 0x55
 1794 000c 06        		.uleb128 0x6
 1795 000d 11        		.uleb128 0x11
 1796 000e 01        		.uleb128 0x1
 1797 000f 52        		.uleb128 0x52
 1798 0010 01        		.uleb128 0x1
 1799 0011 10        		.uleb128 0x10
 1800 0012 06        		.uleb128 0x6
 1801 0013 00        		.byte	0
 1802 0014 00        		.byte	0
 1803 0015 02        		.uleb128 0x2
 1804 0016 24        		.uleb128 0x24
 1805 0017 00        		.byte	0
 1806 0018 0B        		.uleb128 0xb
 1807 0019 0B        		.uleb128 0xb
 1808 001a 3E        		.uleb128 0x3e
 1809 001b 0B        		.uleb128 0xb
 1810 001c 03        		.uleb128 0x3
 1811 001d 0E        		.uleb128 0xe
 1812 001e 00        		.byte	0
 1813 001f 00        		.byte	0
 1814 0020 03        		.uleb128 0x3
 1815 0021 16        		.uleb128 0x16
 1816 0022 00        		.byte	0
 1817 0023 03        		.uleb128 0x3
 1818 0024 0E        		.uleb128 0xe
 1819 0025 3A        		.uleb128 0x3a
 1820 0026 0B        		.uleb128 0xb
 1821 0027 3B        		.uleb128 0x3b
GAS LISTING C:\Users\Rando\AppData\Local\Temp\ccaGBvwp.s 			page 40


 1822 0028 0B        		.uleb128 0xb
 1823 0029 49        		.uleb128 0x49
 1824 002a 13        		.uleb128 0x13
 1825 002b 00        		.byte	0
 1826 002c 00        		.byte	0
 1827 002d 04        		.uleb128 0x4
 1828 002e 24        		.uleb128 0x24
 1829 002f 00        		.byte	0
 1830 0030 0B        		.uleb128 0xb
 1831 0031 0B        		.uleb128 0xb
 1832 0032 3E        		.uleb128 0x3e
 1833 0033 0B        		.uleb128 0xb
 1834 0034 03        		.uleb128 0x3
 1835 0035 08        		.uleb128 0x8
 1836 0036 00        		.byte	0
 1837 0037 00        		.byte	0
 1838 0038 05        		.uleb128 0x5
 1839 0039 2E        		.uleb128 0x2e
 1840 003a 01        		.byte	0x1
 1841 003b 03        		.uleb128 0x3
 1842 003c 0E        		.uleb128 0xe
 1843 003d 3A        		.uleb128 0x3a
 1844 003e 0B        		.uleb128 0xb
 1845 003f 3B        		.uleb128 0x3b
 1846 0040 0B        		.uleb128 0xb
 1847 0041 27        		.uleb128 0x27
 1848 0042 0C        		.uleb128 0xc
 1849 0043 20        		.uleb128 0x20
 1850 0044 0B        		.uleb128 0xb
 1851 0045 01        		.uleb128 0x1
 1852 0046 13        		.uleb128 0x13
 1853 0047 00        		.byte	0
 1854 0048 00        		.byte	0
 1855 0049 06        		.uleb128 0x6
 1856 004a 05        		.uleb128 0x5
 1857 004b 00        		.byte	0
 1858 004c 03        		.uleb128 0x3
 1859 004d 0E        		.uleb128 0xe
 1860 004e 3A        		.uleb128 0x3a
 1861 004f 0B        		.uleb128 0xb
 1862 0050 3B        		.uleb128 0x3b
 1863 0051 0B        		.uleb128 0xb
 1864 0052 49        		.uleb128 0x49
 1865 0053 13        		.uleb128 0x13
 1866 0054 00        		.byte	0
 1867 0055 00        		.byte	0
 1868 0056 07        		.uleb128 0x7
 1869 0057 34        		.uleb128 0x34
 1870 0058 00        		.byte	0
 1871 0059 03        		.uleb128 0x3
 1872 005a 0E        		.uleb128 0xe
 1873 005b 3A        		.uleb128 0x3a
 1874 005c 0B        		.uleb128 0xb
 1875 005d 3B        		.uleb128 0x3b
 1876 005e 0B        		.uleb128 0xb
 1877 005f 49        		.uleb128 0x49
 1878 0060 13        		.uleb128 0x13
GAS LISTING C:\Users\Rando\AppData\Local\Temp\ccaGBvwp.s 			page 41


 1879 0061 00        		.byte	0
 1880 0062 00        		.byte	0
 1881 0063 08        		.uleb128 0x8
 1882 0064 2E        		.uleb128 0x2e
 1883 0065 00        		.byte	0
 1884 0066 3F        		.uleb128 0x3f
 1885 0067 0C        		.uleb128 0xc
 1886 0068 03        		.uleb128 0x3
 1887 0069 0E        		.uleb128 0xe
 1888 006a 3A        		.uleb128 0x3a
 1889 006b 0B        		.uleb128 0xb
 1890 006c 3B        		.uleb128 0x3b
 1891 006d 0B        		.uleb128 0xb
 1892 006e 27        		.uleb128 0x27
 1893 006f 0C        		.uleb128 0xc
 1894 0070 20        		.uleb128 0x20
 1895 0071 0B        		.uleb128 0xb
 1896 0072 00        		.byte	0
 1897 0073 00        		.byte	0
 1898 0074 09        		.uleb128 0x9
 1899 0075 2E        		.uleb128 0x2e
 1900 0076 01        		.byte	0x1
 1901 0077 3F        		.uleb128 0x3f
 1902 0078 0C        		.uleb128 0xc
 1903 0079 03        		.uleb128 0x3
 1904 007a 0E        		.uleb128 0xe
 1905 007b 3A        		.uleb128 0x3a
 1906 007c 0B        		.uleb128 0xb
 1907 007d 3B        		.uleb128 0x3b
 1908 007e 0B        		.uleb128 0xb
 1909 007f 27        		.uleb128 0x27
 1910 0080 0C        		.uleb128 0xc
 1911 0081 11        		.uleb128 0x11
 1912 0082 01        		.uleb128 0x1
 1913 0083 12        		.uleb128 0x12
 1914 0084 01        		.uleb128 0x1
 1915 0085 40        		.uleb128 0x40
 1916 0086 06        		.uleb128 0x6
 1917 0087 9742      		.uleb128 0x2117
 1918 0089 0C        		.uleb128 0xc
 1919 008a 01        		.uleb128 0x1
 1920 008b 13        		.uleb128 0x13
 1921 008c 00        		.byte	0
 1922 008d 00        		.byte	0
 1923 008e 0A        		.uleb128 0xa
 1924 008f 8982 01   		.uleb128 0x4109
 1925 0092 01        		.byte	0x1
 1926 0093 11        		.uleb128 0x11
 1927 0094 01        		.uleb128 0x1
 1928 0095 31        		.uleb128 0x31
 1929 0096 13        		.uleb128 0x13
 1930 0097 00        		.byte	0
 1931 0098 00        		.byte	0
 1932 0099 0B        		.uleb128 0xb
 1933 009a 8A82 01   		.uleb128 0x410a
 1934 009d 00        		.byte	0
 1935 009e 02        		.uleb128 0x2
GAS LISTING C:\Users\Rando\AppData\Local\Temp\ccaGBvwp.s 			page 42


 1936 009f 0A        		.uleb128 0xa
 1937 00a0 9142      		.uleb128 0x2111
 1938 00a2 0A        		.uleb128 0xa
 1939 00a3 00        		.byte	0
 1940 00a4 00        		.byte	0
 1941 00a5 0C        		.uleb128 0xc
 1942 00a6 05        		.uleb128 0x5
 1943 00a7 00        		.byte	0
 1944 00a8 03        		.uleb128 0x3
 1945 00a9 0E        		.uleb128 0xe
 1946 00aa 3A        		.uleb128 0x3a
 1947 00ab 0B        		.uleb128 0xb
 1948 00ac 3B        		.uleb128 0x3b
 1949 00ad 0B        		.uleb128 0xb
 1950 00ae 49        		.uleb128 0x49
 1951 00af 13        		.uleb128 0x13
 1952 00b0 02        		.uleb128 0x2
 1953 00b1 06        		.uleb128 0x6
 1954 00b2 00        		.byte	0
 1955 00b3 00        		.byte	0
 1956 00b4 0D        		.uleb128 0xd
 1957 00b5 0B        		.uleb128 0xb
 1958 00b6 01        		.byte	0x1
 1959 00b7 11        		.uleb128 0x11
 1960 00b8 01        		.uleb128 0x1
 1961 00b9 12        		.uleb128 0x12
 1962 00ba 01        		.uleb128 0x1
 1963 00bb 01        		.uleb128 0x1
 1964 00bc 13        		.uleb128 0x13
 1965 00bd 00        		.byte	0
 1966 00be 00        		.byte	0
 1967 00bf 0E        		.uleb128 0xe
 1968 00c0 34        		.uleb128 0x34
 1969 00c1 00        		.byte	0
 1970 00c2 03        		.uleb128 0x3
 1971 00c3 08        		.uleb128 0x8
 1972 00c4 3A        		.uleb128 0x3a
 1973 00c5 0B        		.uleb128 0xb
 1974 00c6 3B        		.uleb128 0x3b
 1975 00c7 0B        		.uleb128 0xb
 1976 00c8 49        		.uleb128 0x49
 1977 00c9 13        		.uleb128 0x13
 1978 00ca 02        		.uleb128 0x2
 1979 00cb 06        		.uleb128 0x6
 1980 00cc 00        		.byte	0
 1981 00cd 00        		.byte	0
 1982 00ce 0F        		.uleb128 0xf
 1983 00cf 0B        		.uleb128 0xb
 1984 00d0 01        		.byte	0x1
 1985 00d1 11        		.uleb128 0x11
 1986 00d2 01        		.uleb128 0x1
 1987 00d3 12        		.uleb128 0x12
 1988 00d4 01        		.uleb128 0x1
 1989 00d5 00        		.byte	0
 1990 00d6 00        		.byte	0
 1991 00d7 10        		.uleb128 0x10
 1992 00d8 34        		.uleb128 0x34
GAS LISTING C:\Users\Rando\AppData\Local\Temp\ccaGBvwp.s 			page 43


 1993 00d9 00        		.byte	0
 1994 00da 03        		.uleb128 0x3
 1995 00db 08        		.uleb128 0x8
 1996 00dc 3A        		.uleb128 0x3a
 1997 00dd 0B        		.uleb128 0xb
 1998 00de 3B        		.uleb128 0x3b
 1999 00df 0B        		.uleb128 0xb
 2000 00e0 49        		.uleb128 0x49
 2001 00e1 13        		.uleb128 0x13
 2002 00e2 00        		.byte	0
 2003 00e3 00        		.byte	0
 2004 00e4 11        		.uleb128 0x11
 2005 00e5 8982 01   		.uleb128 0x4109
 2006 00e8 01        		.byte	0x1
 2007 00e9 11        		.uleb128 0x11
 2008 00ea 01        		.uleb128 0x1
 2009 00eb 31        		.uleb128 0x31
 2010 00ec 13        		.uleb128 0x13
 2011 00ed 01        		.uleb128 0x1
 2012 00ee 13        		.uleb128 0x13
 2013 00ef 00        		.byte	0
 2014 00f0 00        		.byte	0
 2015 00f1 12        		.uleb128 0x12
 2016 00f2 0F        		.uleb128 0xf
 2017 00f3 00        		.byte	0
 2018 00f4 0B        		.uleb128 0xb
 2019 00f5 0B        		.uleb128 0xb
 2020 00f6 49        		.uleb128 0x49
 2021 00f7 13        		.uleb128 0x13
 2022 00f8 00        		.byte	0
 2023 00f9 00        		.byte	0
 2024 00fa 13        		.uleb128 0x13
 2025 00fb 2E        		.uleb128 0x2e
 2026 00fc 00        		.byte	0
 2027 00fd 3F        		.uleb128 0x3f
 2028 00fe 0C        		.uleb128 0xc
 2029 00ff 03        		.uleb128 0x3
 2030 0100 0E        		.uleb128 0xe
 2031 0101 3A        		.uleb128 0x3a
 2032 0102 0B        		.uleb128 0xb
 2033 0103 3B        		.uleb128 0x3b
 2034 0104 0B        		.uleb128 0xb
 2035 0105 27        		.uleb128 0x27
 2036 0106 0C        		.uleb128 0xc
 2037 0107 11        		.uleb128 0x11
 2038 0108 01        		.uleb128 0x1
 2039 0109 12        		.uleb128 0x12
 2040 010a 01        		.uleb128 0x1
 2041 010b 40        		.uleb128 0x40
 2042 010c 06        		.uleb128 0x6
 2043 010d 9742      		.uleb128 0x2117
 2044 010f 0C        		.uleb128 0xc
 2045 0110 00        		.byte	0
 2046 0111 00        		.byte	0
 2047 0112 14        		.uleb128 0x14
 2048 0113 2E        		.uleb128 0x2e
 2049 0114 01        		.byte	0x1
GAS LISTING C:\Users\Rando\AppData\Local\Temp\ccaGBvwp.s 			page 44


 2050 0115 3F        		.uleb128 0x3f
 2051 0116 0C        		.uleb128 0xc
 2052 0117 03        		.uleb128 0x3
 2053 0118 0E        		.uleb128 0xe
 2054 0119 3A        		.uleb128 0x3a
 2055 011a 0B        		.uleb128 0xb
 2056 011b 3B        		.uleb128 0x3b
 2057 011c 0B        		.uleb128 0xb
 2058 011d 49        		.uleb128 0x49
 2059 011e 13        		.uleb128 0x13
 2060 011f 11        		.uleb128 0x11
 2061 0120 01        		.uleb128 0x1
 2062 0121 12        		.uleb128 0x12
 2063 0122 01        		.uleb128 0x1
 2064 0123 40        		.uleb128 0x40
 2065 0124 06        		.uleb128 0x6
 2066 0125 9742      		.uleb128 0x2117
 2067 0127 0C        		.uleb128 0xc
 2068 0128 01        		.uleb128 0x1
 2069 0129 13        		.uleb128 0x13
 2070 012a 00        		.byte	0
 2071 012b 00        		.byte	0
 2072 012c 15        		.uleb128 0x15
 2073 012d 34        		.uleb128 0x34
 2074 012e 00        		.byte	0
 2075 012f 03        		.uleb128 0x3
 2076 0130 0E        		.uleb128 0xe
 2077 0131 3A        		.uleb128 0x3a
 2078 0132 0B        		.uleb128 0xb
 2079 0133 3B        		.uleb128 0x3b
 2080 0134 0B        		.uleb128 0xb
 2081 0135 49        		.uleb128 0x49
 2082 0136 13        		.uleb128 0x13
 2083 0137 02        		.uleb128 0x2
 2084 0138 0A        		.uleb128 0xa
 2085 0139 00        		.byte	0
 2086 013a 00        		.byte	0
 2087 013b 16        		.uleb128 0x16
 2088 013c 1D        		.uleb128 0x1d
 2089 013d 01        		.byte	0x1
 2090 013e 31        		.uleb128 0x31
 2091 013f 13        		.uleb128 0x13
 2092 0140 11        		.uleb128 0x11
 2093 0141 01        		.uleb128 0x1
 2094 0142 12        		.uleb128 0x12
 2095 0143 01        		.uleb128 0x1
 2096 0144 58        		.uleb128 0x58
 2097 0145 0B        		.uleb128 0xb
 2098 0146 59        		.uleb128 0x59
 2099 0147 0B        		.uleb128 0xb
 2100 0148 01        		.uleb128 0x1
 2101 0149 13        		.uleb128 0x13
 2102 014a 00        		.byte	0
 2103 014b 00        		.byte	0
 2104 014c 17        		.uleb128 0x17
 2105 014d 05        		.uleb128 0x5
 2106 014e 00        		.byte	0
GAS LISTING C:\Users\Rando\AppData\Local\Temp\ccaGBvwp.s 			page 45


 2107 014f 31        		.uleb128 0x31
 2108 0150 13        		.uleb128 0x13
 2109 0151 02        		.uleb128 0x2
 2110 0152 06        		.uleb128 0x6
 2111 0153 00        		.byte	0
 2112 0154 00        		.byte	0
 2113 0155 18        		.uleb128 0x18
 2114 0156 34        		.uleb128 0x34
 2115 0157 00        		.byte	0
 2116 0158 31        		.uleb128 0x31
 2117 0159 13        		.uleb128 0x13
 2118 015a 02        		.uleb128 0x2
 2119 015b 06        		.uleb128 0x6
 2120 015c 00        		.byte	0
 2121 015d 00        		.byte	0
 2122 015e 19        		.uleb128 0x19
 2123 015f 8982 01   		.uleb128 0x4109
 2124 0162 00        		.byte	0
 2125 0163 11        		.uleb128 0x11
 2126 0164 01        		.uleb128 0x1
 2127 0165 31        		.uleb128 0x31
 2128 0166 13        		.uleb128 0x13
 2129 0167 00        		.byte	0
 2130 0168 00        		.byte	0
 2131 0169 1A        		.uleb128 0x1a
 2132 016a 34        		.uleb128 0x34
 2133 016b 00        		.byte	0
 2134 016c 34        		.uleb128 0x34
 2135 016d 0C        		.uleb128 0xc
 2136 016e 49        		.uleb128 0x49
 2137 016f 13        		.uleb128 0x13
 2138 0170 02        		.uleb128 0x2
 2139 0171 06        		.uleb128 0x6
 2140 0172 00        		.byte	0
 2141 0173 00        		.byte	0
 2142 0174 1B        		.uleb128 0x1b
 2143 0175 01        		.uleb128 0x1
 2144 0176 01        		.byte	0x1
 2145 0177 49        		.uleb128 0x49
 2146 0178 13        		.uleb128 0x13
 2147 0179 01        		.uleb128 0x1
 2148 017a 13        		.uleb128 0x13
 2149 017b 00        		.byte	0
 2150 017c 00        		.byte	0
 2151 017d 1C        		.uleb128 0x1c
 2152 017e 21        		.uleb128 0x21
 2153 017f 00        		.byte	0
 2154 0180 49        		.uleb128 0x49
 2155 0181 13        		.uleb128 0x13
 2156 0182 2F        		.uleb128 0x2f
 2157 0183 13        		.uleb128 0x13
 2158 0184 00        		.byte	0
 2159 0185 00        		.byte	0
 2160 0186 1D        		.uleb128 0x1d
 2161 0187 26        		.uleb128 0x26
 2162 0188 00        		.byte	0
 2163 0189 49        		.uleb128 0x49
GAS LISTING C:\Users\Rando\AppData\Local\Temp\ccaGBvwp.s 			page 46


 2164 018a 13        		.uleb128 0x13
 2165 018b 00        		.byte	0
 2166 018c 00        		.byte	0
 2167 018d 1E        		.uleb128 0x1e
 2168 018e 21        		.uleb128 0x21
 2169 018f 00        		.byte	0
 2170 0190 49        		.uleb128 0x49
 2171 0191 13        		.uleb128 0x13
 2172 0192 2F        		.uleb128 0x2f
 2173 0193 0B        		.uleb128 0xb
 2174 0194 00        		.byte	0
 2175 0195 00        		.byte	0
 2176 0196 1F        		.uleb128 0x1f
 2177 0197 34        		.uleb128 0x34
 2178 0198 00        		.byte	0
 2179 0199 03        		.uleb128 0x3
 2180 019a 0E        		.uleb128 0xe
 2181 019b 3A        		.uleb128 0x3a
 2182 019c 0B        		.uleb128 0xb
 2183 019d 3B        		.uleb128 0x3b
 2184 019e 0B        		.uleb128 0xb
 2185 019f 49        		.uleb128 0x49
 2186 01a0 13        		.uleb128 0x13
 2187 01a1 3F        		.uleb128 0x3f
 2188 01a2 0C        		.uleb128 0xc
 2189 01a3 02        		.uleb128 0x2
 2190 01a4 0A        		.uleb128 0xa
 2191 01a5 00        		.byte	0
 2192 01a6 00        		.byte	0
 2193 01a7 20        		.uleb128 0x20
 2194 01a8 35        		.uleb128 0x35
 2195 01a9 00        		.byte	0
 2196 01aa 49        		.uleb128 0x49
 2197 01ab 13        		.uleb128 0x13
 2198 01ac 00        		.byte	0
 2199 01ad 00        		.byte	0
 2200 01ae 21        		.uleb128 0x21
 2201 01af 34        		.uleb128 0x34
 2202 01b0 00        		.byte	0
 2203 01b1 03        		.uleb128 0x3
 2204 01b2 08        		.uleb128 0x8
 2205 01b3 3A        		.uleb128 0x3a
 2206 01b4 0B        		.uleb128 0xb
 2207 01b5 3B        		.uleb128 0x3b
 2208 01b6 0B        		.uleb128 0xb
 2209 01b7 49        		.uleb128 0x49
 2210 01b8 13        		.uleb128 0x13
 2211 01b9 3F        		.uleb128 0x3f
 2212 01ba 0C        		.uleb128 0xc
 2213 01bb 02        		.uleb128 0x2
 2214 01bc 0A        		.uleb128 0xa
 2215 01bd 00        		.byte	0
 2216 01be 00        		.byte	0
 2217 01bf 22        		.uleb128 0x22
 2218 01c0 2E        		.uleb128 0x2e
 2219 01c1 00        		.byte	0
 2220 01c2 3F        		.uleb128 0x3f
GAS LISTING C:\Users\Rando\AppData\Local\Temp\ccaGBvwp.s 			page 47


 2221 01c3 0C        		.uleb128 0xc
 2222 01c4 3C        		.uleb128 0x3c
 2223 01c5 0C        		.uleb128 0xc
 2224 01c6 8740      		.uleb128 0x2007
 2225 01c8 0E        		.uleb128 0xe
 2226 01c9 03        		.uleb128 0x3
 2227 01ca 0E        		.uleb128 0xe
 2228 01cb 3A        		.uleb128 0x3a
 2229 01cc 0B        		.uleb128 0xb
 2230 01cd 3B        		.uleb128 0x3b
 2231 01ce 0B        		.uleb128 0xb
 2232 01cf 00        		.byte	0
 2233 01d0 00        		.byte	0
 2234 01d1 00        		.byte	0
 2235               		.section	.debug_loc,"",@progbits
 2236               	.Ldebug_loc0:
 2237               	.LLST0:
 2238 0000 0000 0000 		.long	.LFB6
 2239 0004 0000 0000 		.long	.LCFI0
 2240 0008 0300      		.word	0x3
 2241 000a 92        		.byte	0x92
 2242 000b 20        		.uleb128 0x20
 2243 000c 02        		.sleb128 2
 2244 000d 0000 0000 		.long	.LCFI0
 2245 0011 0000 0000 		.long	.LCFI1
 2246 0015 0300      		.word	0x3
 2247 0017 92        		.byte	0x92
 2248 0018 20        		.uleb128 0x20
 2249 0019 03        		.sleb128 3
 2250 001a 0000 0000 		.long	.LCFI1
 2251 001e 0000 0000 		.long	.LCFI2
 2252 0022 0300      		.word	0x3
 2253 0024 92        		.byte	0x92
 2254 0025 20        		.uleb128 0x20
 2255 0026 04        		.sleb128 4
 2256 0027 0000 0000 		.long	.LCFI2
 2257 002b 0000 0000 		.long	.LCFI3
 2258 002f 0300      		.word	0x3
 2259 0031 92        		.byte	0x92
 2260 0032 20        		.uleb128 0x20
 2261 0033 05        		.sleb128 5
 2262 0034 0000 0000 		.long	.LCFI3
 2263 0038 0000 0000 		.long	.LCFI4
 2264 003c 0300      		.word	0x3
 2265 003e 92        		.byte	0x92
 2266 003f 20        		.uleb128 0x20
 2267 0040 06        		.sleb128 6
 2268 0041 0000 0000 		.long	.LCFI4
 2269 0045 0000 0000 		.long	.LCFI5
 2270 0049 0300      		.word	0x3
 2271 004b 92        		.byte	0x92
 2272 004c 20        		.uleb128 0x20
 2273 004d 07        		.sleb128 7
 2274 004e 0000 0000 		.long	.LCFI5
 2275 0052 0000 0000 		.long	.LCFI6
 2276 0056 0300      		.word	0x3
 2277 0058 92        		.byte	0x92
GAS LISTING C:\Users\Rando\AppData\Local\Temp\ccaGBvwp.s 			page 48


 2278 0059 20        		.uleb128 0x20
 2279 005a 08        		.sleb128 8
 2280 005b 0000 0000 		.long	.LCFI6
 2281 005f 0000 0000 		.long	.LCFI7
 2282 0063 0300      		.word	0x3
 2283 0065 92        		.byte	0x92
 2284 0066 20        		.uleb128 0x20
 2285 0067 09        		.sleb128 9
 2286 0068 0000 0000 		.long	.LCFI7
 2287 006c 0000 0000 		.long	.LCFI8
 2288 0070 0300      		.word	0x3
 2289 0072 92        		.byte	0x92
 2290 0073 20        		.uleb128 0x20
 2291 0074 0A        		.sleb128 10
 2292 0075 0000 0000 		.long	.LCFI8
 2293 0079 0000 0000 		.long	.LCFI9
 2294 007d 0300      		.word	0x3
 2295 007f 92        		.byte	0x92
 2296 0080 20        		.uleb128 0x20
 2297 0081 0B        		.sleb128 11
 2298 0082 0000 0000 		.long	.LCFI9
 2299 0086 0000 0000 		.long	.LCFI10
 2300 008a 0300      		.word	0x3
 2301 008c 92        		.byte	0x92
 2302 008d 20        		.uleb128 0x20
 2303 008e 0C        		.sleb128 12
 2304 008f 0000 0000 		.long	.LCFI10
 2305 0093 0000 0000 		.long	.LCFI11
 2306 0097 0300      		.word	0x3
 2307 0099 92        		.byte	0x92
 2308 009a 20        		.uleb128 0x20
 2309 009b 0D        		.sleb128 13
 2310 009c 0000 0000 		.long	.LCFI11
 2311 00a0 0000 0000 		.long	.LCFI12
 2312 00a4 0300      		.word	0x3
 2313 00a6 92        		.byte	0x92
 2314 00a7 20        		.uleb128 0x20
 2315 00a8 0E        		.sleb128 14
 2316 00a9 0000 0000 		.long	.LCFI12
 2317 00ad 0000 0000 		.long	.LCFI13
 2318 00b1 0300      		.word	0x3
 2319 00b3 92        		.byte	0x92
 2320 00b4 20        		.uleb128 0x20
 2321 00b5 0F        		.sleb128 15
 2322 00b6 0000 0000 		.long	.LCFI13
 2323 00ba 0000 0000 		.long	.LFE6
 2324 00be 0300      		.word	0x3
 2325 00c0 92        		.byte	0x92
 2326 00c1 20        		.uleb128 0x20
 2327 00c2 10        		.sleb128 16
 2328 00c3 0000 0000 		.long	0
 2329 00c7 0000 0000 		.long	0
 2330               	.LLST1:
 2331 00cb 0000 0000 		.long	.LFB7
 2332 00cf 0000 0000 		.long	.LCFI14
 2333 00d3 0300      		.word	0x3
 2334 00d5 92        		.byte	0x92
GAS LISTING C:\Users\Rando\AppData\Local\Temp\ccaGBvwp.s 			page 49


 2335 00d6 20        		.uleb128 0x20
 2336 00d7 02        		.sleb128 2
 2337 00d8 0000 0000 		.long	.LCFI14
 2338 00dc 0000 0000 		.long	.LCFI15
 2339 00e0 0300      		.word	0x3
 2340 00e2 92        		.byte	0x92
 2341 00e3 20        		.uleb128 0x20
 2342 00e4 03        		.sleb128 3
 2343 00e5 0000 0000 		.long	.LCFI15
 2344 00e9 0000 0000 		.long	.LCFI16
 2345 00ed 0300      		.word	0x3
 2346 00ef 92        		.byte	0x92
 2347 00f0 20        		.uleb128 0x20
 2348 00f1 04        		.sleb128 4
 2349 00f2 0000 0000 		.long	.LCFI16
 2350 00f6 0000 0000 		.long	.LCFI17
 2351 00fa 0300      		.word	0x3
 2352 00fc 92        		.byte	0x92
 2353 00fd 20        		.uleb128 0x20
 2354 00fe 05        		.sleb128 5
 2355 00ff 0000 0000 		.long	.LCFI17
 2356 0103 0000 0000 		.long	.LCFI18
 2357 0107 0300      		.word	0x3
 2358 0109 92        		.byte	0x92
 2359 010a 20        		.uleb128 0x20
 2360 010b 06        		.sleb128 6
 2361 010c 0000 0000 		.long	.LCFI18
 2362 0110 0000 0000 		.long	.LCFI19
 2363 0114 0300      		.word	0x3
 2364 0116 92        		.byte	0x92
 2365 0117 20        		.uleb128 0x20
 2366 0118 07        		.sleb128 7
 2367 0119 0000 0000 		.long	.LCFI19
 2368 011d 0000 0000 		.long	.LCFI20
 2369 0121 0300      		.word	0x3
 2370 0123 92        		.byte	0x92
 2371 0124 20        		.uleb128 0x20
 2372 0125 08        		.sleb128 8
 2373 0126 0000 0000 		.long	.LCFI20
 2374 012a 0000 0000 		.long	.LCFI21
 2375 012e 0300      		.word	0x3
 2376 0130 92        		.byte	0x92
 2377 0131 20        		.uleb128 0x20
 2378 0132 09        		.sleb128 9
 2379 0133 0000 0000 		.long	.LCFI21
 2380 0137 0000 0000 		.long	.LCFI22
 2381 013b 0300      		.word	0x3
 2382 013d 92        		.byte	0x92
 2383 013e 20        		.uleb128 0x20
 2384 013f 0A        		.sleb128 10
 2385 0140 0000 0000 		.long	.LCFI22
 2386 0144 0000 0000 		.long	.LCFI23
 2387 0148 0300      		.word	0x3
 2388 014a 92        		.byte	0x92
 2389 014b 20        		.uleb128 0x20
 2390 014c 0B        		.sleb128 11
 2391 014d 0000 0000 		.long	.LCFI23
GAS LISTING C:\Users\Rando\AppData\Local\Temp\ccaGBvwp.s 			page 50


 2392 0151 0000 0000 		.long	.LFE7
 2393 0155 0300      		.word	0x3
 2394 0157 92        		.byte	0x92
 2395 0158 20        		.uleb128 0x20
 2396 0159 0C        		.sleb128 12
 2397 015a 0000 0000 		.long	0
 2398 015e 0000 0000 		.long	0
 2399               	.LLST2:
 2400 0162 0000 0000 		.long	.LVL1
 2401 0166 0000 0000 		.long	.LVL3
 2402 016a 0600      		.word	0x6
 2403 016c 68        		.byte	0x68
 2404 016d 93        		.byte	0x93
 2405 016e 01        		.uleb128 0x1
 2406 016f 69        		.byte	0x69
 2407 0170 93        		.byte	0x93
 2408 0171 01        		.uleb128 0x1
 2409 0172 0000 0000 		.long	.LVL3
 2410 0176 0000 0000 		.long	.LVL15
 2411 017a 0600      		.word	0x6
 2412 017c 5E        		.byte	0x5e
 2413 017d 93        		.byte	0x93
 2414 017e 01        		.uleb128 0x1
 2415 017f 5F        		.byte	0x5f
 2416 0180 93        		.byte	0x93
 2417 0181 01        		.uleb128 0x1
 2418 0182 0000 0000 		.long	.LVL15
 2419 0186 0000 0000 		.long	.LFE7
 2420 018a 0400      		.word	0x4
 2421 018c F3        		.byte	0xf3
 2422 018d 01        		.uleb128 0x1
 2423 018e 68        		.byte	0x68
 2424 018f 9F        		.byte	0x9f
 2425 0190 0000 0000 		.long	0
 2426 0194 0000 0000 		.long	0
 2427               	.LLST3:
 2428 0198 0000 0000 		.long	.LVL2
 2429 019c 0000 0000 		.long	.LVL3
 2430 01a0 0200      		.word	0x2
 2431 01a2 30        		.byte	0x30
 2432 01a3 9F        		.byte	0x9f
 2433 01a4 0000 0000 		.long	.LVL3
 2434 01a8 0000 0000 		.long	.LVL8
 2435 01ac 0100      		.word	0x1
 2436 01ae 5D        		.byte	0x5d
 2437 01af 0000 0000 		.long	0
 2438 01b3 0000 0000 		.long	0
 2439               	.LLST4:
 2440 01b7 0000 0000 		.long	.LVL4
 2441 01bb 0000 0000 		.long	.LVL5
 2442 01bf 0100      		.word	0x1
 2443 01c1 6C        		.byte	0x6c
 2444 01c2 0000 0000 		.long	.LVL5
 2445 01c6 0000 0000 		.long	.LVL6
 2446 01ca 0300      		.word	0x3
 2447 01cc 8C        		.byte	0x8c
 2448 01cd 01        		.sleb128 1
GAS LISTING C:\Users\Rando\AppData\Local\Temp\ccaGBvwp.s 			page 51


 2449 01ce 9F        		.byte	0x9f
 2450 01cf 0000 0000 		.long	.LVL6
 2451 01d3 0000 0000 		.long	.LVL8
 2452 01d7 0100      		.word	0x1
 2453 01d9 6C        		.byte	0x6c
 2454 01da 0000 0000 		.long	0
 2455 01de 0000 0000 		.long	0
 2456               	.LLST5:
 2457 01e2 0000 0000 		.long	.LVL8
 2458 01e6 0000 0000 		.long	.LVL9
 2459 01ea 0200      		.word	0x2
 2460 01ec 30        		.byte	0x30
 2461 01ed 9F        		.byte	0x9f
 2462 01ee 0000 0000 		.long	.LVL9
 2463 01f2 0000 0000 		.long	.LVL14
 2464 01f6 0600      		.word	0x6
 2465 01f8 5C        		.byte	0x5c
 2466 01f9 93        		.byte	0x93
 2467 01fa 01        		.uleb128 0x1
 2468 01fb 5D        		.byte	0x5d
 2469 01fc 93        		.byte	0x93
 2470 01fd 01        		.uleb128 0x1
 2471 01fe 0000 0000 		.long	0
 2472 0202 0000 0000 		.long	0
 2473               	.LLST6:
 2474 0206 0000 0000 		.long	.LFB8
 2475 020a 0000 0000 		.long	.LCFI24
 2476 020e 0300      		.word	0x3
 2477 0210 92        		.byte	0x92
 2478 0211 20        		.uleb128 0x20
 2479 0212 02        		.sleb128 2
 2480 0213 0000 0000 		.long	.LCFI24
 2481 0217 0000 0000 		.long	.LCFI25
 2482 021b 0300      		.word	0x3
 2483 021d 92        		.byte	0x92
 2484 021e 20        		.uleb128 0x20
 2485 021f 03        		.sleb128 3
 2486 0220 0000 0000 		.long	.LCFI25
 2487 0224 0000 0000 		.long	.LCFI26
 2488 0228 0300      		.word	0x3
 2489 022a 92        		.byte	0x92
 2490 022b 20        		.uleb128 0x20
 2491 022c 04        		.sleb128 4
 2492 022d 0000 0000 		.long	.LCFI26
 2493 0231 0000 0000 		.long	.LCFI27
 2494 0235 0300      		.word	0x3
 2495 0237 92        		.byte	0x92
 2496 0238 20        		.uleb128 0x20
 2497 0239 05        		.sleb128 5
 2498 023a 0000 0000 		.long	.LCFI27
 2499 023e 0000 0000 		.long	.LFE8
 2500 0242 0300      		.word	0x3
 2501 0244 92        		.byte	0x92
 2502 0245 20        		.uleb128 0x20
 2503 0246 06        		.sleb128 6
 2504 0247 0000 0000 		.long	0
 2505 024b 0000 0000 		.long	0
GAS LISTING C:\Users\Rando\AppData\Local\Temp\ccaGBvwp.s 			page 52


 2506               	.LLST7:
 2507 024f 0000 0000 		.long	.LFB9
 2508 0253 0000 0000 		.long	.LCFI28
 2509 0257 0300      		.word	0x3
 2510 0259 92        		.byte	0x92
 2511 025a 20        		.uleb128 0x20
 2512 025b 02        		.sleb128 2
 2513 025c 0000 0000 		.long	.LCFI28
 2514 0260 0000 0000 		.long	.LCFI29
 2515 0264 0300      		.word	0x3
 2516 0266 92        		.byte	0x92
 2517 0267 20        		.uleb128 0x20
 2518 0268 03        		.sleb128 3
 2519 0269 0000 0000 		.long	.LCFI29
 2520 026d 0000 0000 		.long	.LCFI30
 2521 0271 0300      		.word	0x3
 2522 0273 92        		.byte	0x92
 2523 0274 20        		.uleb128 0x20
 2524 0275 04        		.sleb128 4
 2525 0276 0000 0000 		.long	.LCFI30
 2526 027a 0000 0000 		.long	.LCFI31
 2527 027e 0300      		.word	0x3
 2528 0280 92        		.byte	0x92
 2529 0281 20        		.uleb128 0x20
 2530 0282 05        		.sleb128 5
 2531 0283 0000 0000 		.long	.LCFI31
 2532 0287 0000 0000 		.long	.LCFI32
 2533 028b 0300      		.word	0x3
 2534 028d 92        		.byte	0x92
 2535 028e 20        		.uleb128 0x20
 2536 028f 06        		.sleb128 6
 2537 0290 0000 0000 		.long	.LCFI32
 2538 0294 0000 0000 		.long	.LCFI33
 2539 0298 0300      		.word	0x3
 2540 029a 92        		.byte	0x92
 2541 029b 20        		.uleb128 0x20
 2542 029c 07        		.sleb128 7
 2543 029d 0000 0000 		.long	.LCFI33
 2544 02a1 0000 0000 		.long	.LCFI34
 2545 02a5 0300      		.word	0x3
 2546 02a7 92        		.byte	0x92
 2547 02a8 20        		.uleb128 0x20
 2548 02a9 08        		.sleb128 8
 2549 02aa 0000 0000 		.long	.LCFI34
 2550 02ae 0000 0000 		.long	.LCFI35
 2551 02b2 0300      		.word	0x3
 2552 02b4 92        		.byte	0x92
 2553 02b5 20        		.uleb128 0x20
 2554 02b6 09        		.sleb128 9
 2555 02b7 0000 0000 		.long	.LCFI35
 2556 02bb 0000 0000 		.long	.LCFI36
 2557 02bf 0300      		.word	0x3
 2558 02c1 92        		.byte	0x92
 2559 02c2 20        		.uleb128 0x20
 2560 02c3 0A        		.sleb128 10
 2561 02c4 0000 0000 		.long	.LCFI36
 2562 02c8 0000 0000 		.long	.LCFI37
GAS LISTING C:\Users\Rando\AppData\Local\Temp\ccaGBvwp.s 			page 53


 2563 02cc 0300      		.word	0x3
 2564 02ce 92        		.byte	0x92
 2565 02cf 20        		.uleb128 0x20
 2566 02d0 0B        		.sleb128 11
 2567 02d1 0000 0000 		.long	.LCFI37
 2568 02d5 0000 0000 		.long	.LCFI38
 2569 02d9 0300      		.word	0x3
 2570 02db 92        		.byte	0x92
 2571 02dc 20        		.uleb128 0x20
 2572 02dd 10        		.sleb128 16
 2573 02de 0000 0000 		.long	.LCFI38
 2574 02e2 0000 0000 		.long	.LFE9
 2575 02e6 0200      		.word	0x2
 2576 02e8 8C        		.byte	0x8c
 2577 02e9 10        		.sleb128 16
 2578 02ea 0000 0000 		.long	0
 2579 02ee 0000 0000 		.long	0
 2580               	.LLST9:
 2581 02f2 0000 0000 		.long	.LVL28
 2582 02f6 0000 0000 		.long	.LVL29
 2583 02fa 0600      		.word	0x6
 2584 02fc 9E        		.byte	0x9e
 2585 02fd 04        		.uleb128 0x4
 2586 02fe 0060 6A46 		.long	0x466a6000
 2587 0302 0000 0000 		.long	0
 2588 0306 0000 0000 		.long	0
 2589               	.LLST10:
 2590 030a 0000 0000 		.long	.LVL28
 2591 030e 0000 0000 		.long	.LVL29
 2592 0312 0600      		.word	0x6
 2593 0314 9E        		.byte	0x9e
 2594 0315 04        		.uleb128 0x4
 2595 0316 C0E1 644D 		.long	0x4d64e1c0
 2596 031a 0000 0000 		.long	0
 2597 031e 0000 0000 		.long	0
 2598               	.LLST11:
 2599 0322 0000 0000 		.long	.LVL28
 2600 0326 0000 0000 		.long	.LVL29
 2601 032a 0600      		.word	0x6
 2602 032c 0C        		.byte	0xc
 2603 032d 001C 4E0E 		.long	0xe4e1c00
 2604 0331 9F        		.byte	0x9f
 2605 0332 0000 0000 		.long	0
 2606 0336 0000 0000 		.long	0
 2607               	.LLST12:
 2608 033a 0000 0000 		.long	.LVL29
 2609 033e 0000 0000 		.long	.LVL30
 2610 0342 0200      		.word	0x2
 2611 0344 30        		.byte	0x30
 2612 0345 9F        		.byte	0x9f
 2613 0346 0000 0000 		.long	.LVL30
 2614 034a 0000 0000 		.long	.LVL31
 2615 034e 0200      		.word	0x2
 2616 0350 31        		.byte	0x31
 2617 0351 9F        		.byte	0x9f
 2618 0352 0000 0000 		.long	.LVL31
 2619 0356 0000 0000 		.long	.LVL32
GAS LISTING C:\Users\Rando\AppData\Local\Temp\ccaGBvwp.s 			page 54


 2620 035a 0200      		.word	0x2
 2621 035c 32        		.byte	0x32
 2622 035d 9F        		.byte	0x9f
 2623 035e 0000 0000 		.long	.LVL32
 2624 0362 0000 0000 		.long	.LVL33
 2625 0366 0200      		.word	0x2
 2626 0368 33        		.byte	0x33
 2627 0369 9F        		.byte	0x9f
 2628 036a 0000 0000 		.long	.LVL33
 2629 036e 0000 0000 		.long	.LVL34
 2630 0372 0200      		.word	0x2
 2631 0374 34        		.byte	0x34
 2632 0375 9F        		.byte	0x9f
 2633 0376 0000 0000 		.long	.LVL34
 2634 037a 0000 0000 		.long	.LFE9
 2635 037e 0200      		.word	0x2
 2636 0380 35        		.byte	0x35
 2637 0381 9F        		.byte	0x9f
 2638 0382 0000 0000 		.long	0
 2639 0386 0000 0000 		.long	0
 2640               	.LLST13:
 2641 038a 0000 0000 		.long	.LVL40
 2642 038e 0000 0000 		.long	.LVL41
 2643 0392 0200      		.word	0x2
 2644 0394 30        		.byte	0x30
 2645 0395 9F        		.byte	0x9f
 2646 0396 0000 0000 		.long	.LVL41
 2647 039a 0000 0000 		.long	.LVL46
 2648 039e 0100      		.word	0x1
 2649 03a0 5B        		.byte	0x5b
 2650 03a1 0000 0000 		.long	0
 2651 03a5 0000 0000 		.long	0
 2652               	.LLST14:
 2653 03a9 0000 0000 		.long	.LVL42
 2654 03ad 0000 0000 		.long	.LVL43
 2655 03b1 0100      		.word	0x1
 2656 03b3 60        		.byte	0x60
 2657 03b4 0000 0000 		.long	.LVL43
 2658 03b8 0000 0000 		.long	.LVL44
 2659 03bc 0300      		.word	0x3
 2660 03be 80        		.byte	0x80
 2661 03bf 01        		.sleb128 1
 2662 03c0 9F        		.byte	0x9f
 2663 03c1 0000 0000 		.long	.LVL44
 2664 03c5 0000 0000 		.long	.LVL46
 2665 03c9 0100      		.word	0x1
 2666 03cb 60        		.byte	0x60
 2667 03cc 0000 0000 		.long	0
 2668 03d0 0000 0000 		.long	0
 2669               	.LLST15:
 2670 03d4 0000 0000 		.long	.LVL50
 2671 03d8 0000 0000 		.long	.LVL51
 2672 03dc 0200      		.word	0x2
 2673 03de 30        		.byte	0x30
 2674 03df 9F        		.byte	0x9f
 2675 03e0 0000 0000 		.long	.LVL51
 2676 03e4 0000 0000 		.long	.LVL56
GAS LISTING C:\Users\Rando\AppData\Local\Temp\ccaGBvwp.s 			page 55


 2677 03e8 0100      		.word	0x1
 2678 03ea 5B        		.byte	0x5b
 2679 03eb 0000 0000 		.long	0
 2680 03ef 0000 0000 		.long	0
 2681               	.LLST16:
 2682 03f3 0000 0000 		.long	.LVL52
 2683 03f7 0000 0000 		.long	.LVL53
 2684 03fb 0100      		.word	0x1
 2685 03fd 60        		.byte	0x60
 2686 03fe 0000 0000 		.long	.LVL53
 2687 0402 0000 0000 		.long	.LVL54
 2688 0406 0300      		.word	0x3
 2689 0408 80        		.byte	0x80
 2690 0409 01        		.sleb128 1
 2691 040a 9F        		.byte	0x9f
 2692 040b 0000 0000 		.long	.LVL54
 2693 040f 0000 0000 		.long	.LVL56
 2694 0413 0100      		.word	0x1
 2695 0415 60        		.byte	0x60
 2696 0416 0000 0000 		.long	0
 2697 041a 0000 0000 		.long	0
 2698               	.LLST8:
 2699 041e 0000 0000 		.long	.LVL22
 2700 0422 0000 0000 		.long	.LVL24
 2701 0426 0B00      		.word	0xb
 2702 0428 88        		.byte	0x88
 2703 0429 00        		.sleb128 0
 2704 042a 08        		.byte	0x8
 2705 042b FF        		.byte	0xff
 2706 042c 1A        		.byte	0x1a
 2707 042d 08        		.byte	0x8
 2708 042e 28        		.byte	0x28
 2709 042f 1E        		.byte	0x1e
 2710 0430 31        		.byte	0x31
 2711 0431 1C        		.byte	0x1c
 2712 0432 9F        		.byte	0x9f
 2713 0433 0000 0000 		.long	.LVL24
 2714 0437 0000 0000 		.long	.LVL25-1
 2715 043b 1200      		.word	0x12
 2716 043d 03        		.byte	0x3
 2717 043e 0000 0000 		.long	epdwidth
 2718 0442 94        		.byte	0x94
 2719 0443 01        		.byte	0x1
 2720 0444 33        		.byte	0x33
 2721 0445 25        		.byte	0x25
 2722 0446 08        		.byte	0x8
 2723 0447 FF        		.byte	0xff
 2724 0448 1A        		.byte	0x1a
 2725 0449 08        		.byte	0x8
 2726 044a 28        		.byte	0x28
 2727 044b 1E        		.byte	0x1e
 2728 044c 31        		.byte	0x31
 2729 044d 1C        		.byte	0x1c
 2730 044e 9F        		.byte	0x9f
 2731 044f 0000 0000 		.long	0
 2732 0453 0000 0000 		.long	0
 2733               		.section	.debug_aranges,"",@progbits
GAS LISTING C:\Users\Rando\AppData\Local\Temp\ccaGBvwp.s 			page 56


 2734 0000 2400 0000 		.long	0x24
 2735 0004 0200      		.word	0x2
 2736 0006 0000 0000 		.long	.Ldebug_info0
 2737 000a 04        		.byte	0x4
 2738 000b 00        		.byte	0
 2739 000c 0000      		.word	0
 2740 000e 0000      		.word	0
 2741 0010 0000 0000 		.long	.Ltext0
 2742 0014 6801 0000 		.long	.Letext0-.Ltext0
 2743 0018 0000 0000 		.long	.LFB9
 2744 001c 7802 0000 		.long	.LFE9-.LFB9
 2745 0020 0000 0000 		.long	0
 2746 0024 0000 0000 		.long	0
 2747               		.section	.debug_ranges,"",@progbits
 2748               	.Ldebug_ranges0:
 2749 0000 0000 0000 		.long	.Ltext0
 2750 0004 0000 0000 		.long	.Letext0
 2751 0008 0000 0000 		.long	.LFB9
 2752 000c 0000 0000 		.long	.LFE9
 2753 0010 0000 0000 		.long	0
 2754 0014 0000 0000 		.long	0
 2755               		.section	.debug_line,"",@progbits
 2756               	.Ldebug_line0:
 2757 0000 4E03 0000 		.section	.debug_str,"MS",@progbits,1
 2757      0200 AB00 
 2757      0000 0201 
 2757      FB0E 0A00 
 2757      0101 0101 
 2758               	.LASF32:
 2759 0000 6261 746D 		.string	"batmon_init"
 2759      6F6E 5F69 
 2759      6E69 7400 
 2760               	.LASF23:
 2761 000c 4549 4E4B 		.string	"EINK_draw_absolute_pixel"
 2761      5F64 7261 
 2761      775F 6162 
 2761      736F 6C75 
 2761      7465 5F70 
 2762               	.LASF34:
 2763 0025 6261 746D 		.string	"batmon_soc"
 2763      6F6E 5F73 
 2763      6F63 00
 2764               	.LASF40:
 2765 0030 5F5F 6275 		.string	"__builtin_avr_delay_cycles"
 2765      696C 7469 
 2765      6E5F 6176 
 2765      725F 6465 
 2765      6C61 795F 
 2766               	.LASF27:
 2767 004b 4549 4E4B 		.string	"EINK_init"
 2767      5F69 6E69 
 2767      7400 
 2768               	.LASF28:
 2769 0055 4549 4E4B 		.string	"EINK_wait"
 2769      5F77 6169 
 2769      7400 
 2770               	.LASF20:
GAS LISTING C:\Users\Rando\AppData\Local\Temp\ccaGBvwp.s 			page 57


 2771 005f 6461 7461 		.string	"data"
 2771      00
 2772               	.LASF41:
 2773 0064 5F5F 7665 		.string	"__vector_17"
 2773      6374 6F72 
 2773      5F31 3700 
 2774               	.LASF1:
 2775 0070 756E 7369 		.string	"unsigned char"
 2775      676E 6564 
 2775      2063 6861 
 2775      7200 
 2776               	.LASF29:
 2777 007e 4549 4E4B 		.string	"EINK_send_command"
 2777      5F73 656E 
 2777      645F 636F 
 2777      6D6D 616E 
 2777      6400 
 2778               	.LASF31:
 2779 0090 6E72 6632 		.string	"nrf24l01_reset_interrupts"
 2779      346C 3031 
 2779      5F72 6573 
 2779      6574 5F69 
 2779      6E74 6572 
 2780               	.LASF25:
 2781 00aa 4549 4E4B 		.string	"EINK_set_partial_black"
 2781      5F73 6574 
 2781      5F70 6172 
 2781      7469 616C 
 2781      5F62 6C61 
 2782               	.LASF7:
 2783 00c1 6C6F 6E67 		.string	"long unsigned int"
 2783      2075 6E73 
 2783      6967 6E65 
 2783      6420 696E 
 2783      7400 
 2784               	.LASF38:
 2785 00d3 5F64 656C 		.string	"_delay_ms"
 2785      6179 5F6D 
 2785      7300 
 2786               	.LASF6:
 2787 00dd 7569 6E74 		.string	"uint32_t"
 2787      3332 5F74 
 2787      00
 2788               	.LASF21:
 2789 00e6 6461 7461 		.string	"data_available"
 2789      5F61 7661 
 2789      696C 6162 
 2789      6C65 00
 2790               	.LASF13:
 2791 00f5 5F5F 7665 		.string	"__vector_7"
 2791      6374 6F72 
 2791      5F37 00
 2792               	.LASF12:
 2793 0100 646F 7562 		.string	"double"
 2793      6C65 00
 2794               	.LASF10:
 2795 0107 5F5F 746D 		.string	"__tmp"
GAS LISTING C:\Users\Rando\AppData\Local\Temp\ccaGBvwp.s 			page 58


 2795      7000 
 2796               	.LASF15:
 2797 010d 6D61 696E 		.string	"main"
 2797      00
 2798               	.LASF22:
 2799 0112 6E72 6632 		.string	"nrf24l01_read_register"
 2799      346C 3031 
 2799      5F72 6561 
 2799      645F 7265 
 2799      6769 7374 
 2800               	.LASF4:
 2801 0129 756E 7369 		.string	"unsigned int"
 2801      676E 6564 
 2801      2069 6E74 
 2801      00
 2802               	.LASF24:
 2803 0136 4549 4E4B 		.string	"EINK_set_partial_red"
 2803      5F73 6574 
 2803      5F70 6172 
 2803      7469 616C 
 2803      5F72 6564 
 2804               	.LASF17:
 2805 014b 6164 6472 		.string	"address"
 2805      6573 7300 
 2806               	.LASF9:
 2807 0153 6C6F 6E67 		.string	"long long unsigned int"
 2807      206C 6F6E 
 2807      6720 756E 
 2807      7369 676E 
 2807      6564 2069 
 2808               	.LASF2:
 2809 016a 7569 6E74 		.string	"uint8_t"
 2809      385F 7400 
 2810               	.LASF14:
 2811 0172 636C 6561 		.string	"clean_buffer"
 2811      6E5F 6275 
 2811      6666 6572 
 2811      00
 2812               	.LASF35:
 2813 017f 474E 5520 		.string	"GNU C11 5.4.0 -mn-flash=1 -mno-skip-bug -mmcu=avr5 -g -O2 -funsigned-char -funsigned-bitf
 2813      4331 3120 
 2813      352E 342E 
 2813      3020 2D6D 
 2813      6E2D 666C 
 2814               	.LASF18:
 2815 01fa 7369 7A65 		.string	"sizetype"
 2815      7479 7065 
 2815      00
 2816               	.LASF8:
 2817 0203 6C6F 6E67 		.string	"long long int"
 2817      206C 6F6E 
 2817      6720 696E 
 2817      7400 
 2818               	.LASF36:
 2819 0211 7372 632F 		.string	"src/main.c"
 2819      6D61 696E 
 2819      2E63 00
GAS LISTING C:\Users\Rando\AppData\Local\Temp\ccaGBvwp.s 			page 59


 2820               	.LASF11:
 2821 021c 5F5F 7469 		.string	"__ticks_dc"
 2821      636B 735F 
 2821      6463 00
 2822               	.LASF26:
 2823 0227 5350 495F 		.string	"SPI_init"
 2823      696E 6974 
 2823      00
 2824               	.LASF16:
 2825 0230 6275 6666 		.string	"buffer"
 2825      6572 00
 2826               	.LASF3:
 2827 0237 7569 6E74 		.string	"uint16_t"
 2827      3136 5F74 
 2827      00
 2828               	.LASF37:
 2829 0240 633A 5C75 		.string	"c:\\users\\rando\\documents\\rvp\\firmware\\wep-reciever"
 2829      7365 7273 
 2829      5C72 616E 
 2829      646F 5C64 
 2829      6F63 756D 
 2830               	.LASF5:
 2831 0273 6C6F 6E67 		.string	"long int"
 2831      2069 6E74 
 2831      00
 2832               	.LASF19:
 2833 027c 6570 6477 		.string	"epdwidth"
 2833      6964 7468 
 2833      00
 2834               	.LASF0:
 2835 0285 7369 676E 		.string	"signed char"
 2835      6564 2063 
 2835      6861 7200 
 2836               	.LASF30:
 2837 0291 6E72 6632 		.string	"nrf24l01_init"
 2837      346C 3031 
 2837      5F69 6E69 
 2837      7400 
 2838               	.LASF39:
 2839 029f 5F5F 6D73 		.string	"__ms"
 2839      00
 2840               	.LASF33:
 2841 02a4 6261 746D 		.string	"batmon_config"
 2841      6F6E 5F63 
 2841      6F6E 6669 
 2841      6700 
 2842               		.ident	"GCC: (AVR_8_bit_GNU_Toolchain_3.6.2_1778) 5.4.0"
 2843               	.global __do_clear_bss
GAS LISTING C:\Users\Rando\AppData\Local\Temp\ccaGBvwp.s 			page 60


DEFINED SYMBOLS
                            *ABS*:00000000 main.c
C:\Users\Rando\AppData\Local\Temp\ccaGBvwp.s:2      *ABS*:0000003e __SP_H__
C:\Users\Rando\AppData\Local\Temp\ccaGBvwp.s:3      *ABS*:0000003d __SP_L__
C:\Users\Rando\AppData\Local\Temp\ccaGBvwp.s:4      *ABS*:0000003f __SREG__
C:\Users\Rando\AppData\Local\Temp\ccaGBvwp.s:5      *ABS*:00000000 __tmp_reg__
C:\Users\Rando\AppData\Local\Temp\ccaGBvwp.s:6      *ABS*:00000001 __zero_reg__
C:\Users\Rando\AppData\Local\Temp\ccaGBvwp.s:12     .text:00000000 __vector_7
C:\Users\Rando\AppData\Local\Temp\ccaGBvwp.s:800    .bss:00000002 data_available
                            *COM*:0000000a data
C:\Users\Rando\AppData\Local\Temp\ccaGBvwp.s:119    .text:0000005e clean_buffer
                            *COM*:00000001 epdwidth
C:\Users\Rando\AppData\Local\Temp\ccaGBvwp.s:305    .text:0000013a __vector_17
C:\Users\Rando\AppData\Local\Temp\ccaGBvwp.s:795    .bss:00000000 tc
C:\Users\Rando\AppData\Local\Temp\ccaGBvwp.s:353    .text.startup:00000000 main

UNDEFINED SYMBOLS
nrf24l01_read_register
EINK_draw_absolute_pixel
__divmodhi4
EINK_set_partial_red
EINK_set_partial_black
batmon_init
batmon_config
batmon_soc
SPI_init
EINK_init
EINK_wait
EINK_send_command
nrf24l01_init
nrf24l01_reset_interrupts
__do_clear_bss
