GAS LISTING C:\Users\Rando\AppData\Local\Temp\ccxyP7rG.s 			page 1


   1               		.file	"main.c"
   2               	__SP_H__ = 0x3e
   3               	__SP_L__ = 0x3d
   4               	__SREG__ = 0x3f
   5               	__tmp_reg__ = 0
   6               	__zero_reg__ = 1
   7               		.text
   8               	.Ltext0:
   9               		.cfi_sections	.debug_frame
  10               	.global	__vector_7
  11               		.type	__vector_7, @function
  12               	__vector_7:
  13               	.LFB6:
  14               		.file 1 "src/main.c"
   1:src/main.c    **** #include <avr/io.h>
   2:src/main.c    **** #include <include/spi.h>
   3:src/main.c    **** #define F_CPU 16000000UL
   4:src/main.c    **** #include <util/delay.h>
   5:src/main.c    **** #include <include/nrf24l01.h>
   6:src/main.c    **** #include <avr/interrupt.h>
   7:src/main.c    **** #include <include/eink.h>
   8:src/main.c    **** #include <include/batmon.h>
   9:src/main.c    **** 
  10:src/main.c    **** volatile uint8_t data[10];
  11:src/main.c    **** volatile uint8_t data_available = 0;
  12:src/main.c    **** 
  13:src/main.c    **** ISR(INT6_vect) {
  15               		.loc 1 13 0
  16               		.cfi_startproc
  17 0000 1F92      		push r1
  18               	.LCFI0:
  19               		.cfi_def_cfa_offset 3
  20               		.cfi_offset 1, -2
  21 0002 0F92      		push r0
  22               	.LCFI1:
  23               		.cfi_def_cfa_offset 4
  24               		.cfi_offset 0, -3
  25 0004 0FB6      		in r0,__SREG__
  26 0006 0F92      		push r0
  27 0008 1124      		clr __zero_reg__
  28 000a 2F93      		push r18
  29               	.LCFI2:
  30               		.cfi_def_cfa_offset 5
  31               		.cfi_offset 18, -4
  32 000c 3F93      		push r19
  33               	.LCFI3:
  34               		.cfi_def_cfa_offset 6
  35               		.cfi_offset 19, -5
  36 000e 4F93      		push r20
  37               	.LCFI4:
  38               		.cfi_def_cfa_offset 7
  39               		.cfi_offset 20, -6
  40 0010 5F93      		push r21
  41               	.LCFI5:
  42               		.cfi_def_cfa_offset 8
  43               		.cfi_offset 21, -7
  44 0012 6F93      		push r22
GAS LISTING C:\Users\Rando\AppData\Local\Temp\ccxyP7rG.s 			page 2


  45               	.LCFI6:
  46               		.cfi_def_cfa_offset 9
  47               		.cfi_offset 22, -8
  48 0014 7F93      		push r23
  49               	.LCFI7:
  50               		.cfi_def_cfa_offset 10
  51               		.cfi_offset 23, -9
  52 0016 8F93      		push r24
  53               	.LCFI8:
  54               		.cfi_def_cfa_offset 11
  55               		.cfi_offset 24, -10
  56 0018 9F93      		push r25
  57               	.LCFI9:
  58               		.cfi_def_cfa_offset 12
  59               		.cfi_offset 25, -11
  60 001a AF93      		push r26
  61               	.LCFI10:
  62               		.cfi_def_cfa_offset 13
  63               		.cfi_offset 26, -12
  64 001c BF93      		push r27
  65               	.LCFI11:
  66               		.cfi_def_cfa_offset 14
  67               		.cfi_offset 27, -13
  68 001e EF93      		push r30
  69               	.LCFI12:
  70               		.cfi_def_cfa_offset 15
  71               		.cfi_offset 30, -14
  72 0020 FF93      		push r31
  73               	.LCFI13:
  74               		.cfi_def_cfa_offset 16
  75               		.cfi_offset 31, -15
  76               	/* prologue: Signal */
  77               	/* frame size = 0 */
  78               	/* stack size = 15 */
  79               	.L__stack_usage = 15
  14:src/main.c    **** 	if(data_available == 0) {
  80               		.loc 1 14 0
  81 0022 8091 0000 		lds r24,data_available
  82 0026 8111      		cpse r24,__zero_reg__
  83 0028 00C0      		rjmp .L1
  15:src/main.c    **** 		nrf24l01_read_register(R_RX_PAYLOAD,data,10);
  84               		.loc 1 15 0
  85 002a 4AE0      		ldi r20,lo8(10)
  86 002c 60E0      		ldi r22,lo8(data)
  87 002e 70E0      		ldi r23,hi8(data)
  88 0030 81E6      		ldi r24,lo8(97)
  89 0032 0E94 0000 		call nrf24l01_read_register
  90               	.LVL0:
  16:src/main.c    **** 		data_available = 1;
  91               		.loc 1 16 0
  92 0036 81E0      		ldi r24,lo8(1)
  93 0038 8093 0000 		sts data_available,r24
  94               	.L1:
  95               	/* epilogue start */
  17:src/main.c    **** 	}
  18:src/main.c    **** }
  96               		.loc 1 18 0
GAS LISTING C:\Users\Rando\AppData\Local\Temp\ccxyP7rG.s 			page 3


  97 003c FF91      		pop r31
  98 003e EF91      		pop r30
  99 0040 BF91      		pop r27
 100 0042 AF91      		pop r26
 101 0044 9F91      		pop r25
 102 0046 8F91      		pop r24
 103 0048 7F91      		pop r23
 104 004a 6F91      		pop r22
 105 004c 5F91      		pop r21
 106 004e 4F91      		pop r20
 107 0050 3F91      		pop r19
 108 0052 2F91      		pop r18
 109 0054 0F90      		pop r0
 110 0056 0FBE      		out __SREG__,r0
 111 0058 0F90      		pop r0
 112 005a 1F90      		pop r1
 113 005c 1895      		reti
 114               		.cfi_endproc
 115               	.LFE6:
 116               		.size	__vector_7, .-__vector_7
 117               	.global	clean_buffer
 118               		.type	clean_buffer, @function
 119               	clean_buffer:
 120               	.LFB7:
  19:src/main.c    **** 
  20:src/main.c    **** void clean_buffer(uint8_t* buffer) {
 121               		.loc 1 20 0
 122               		.cfi_startproc
 123               	.LVL1:
 124 005e AF92      		push r10
 125               	.LCFI14:
 126               		.cfi_def_cfa_offset 3
 127               		.cfi_offset 10, -2
 128 0060 BF92      		push r11
 129               	.LCFI15:
 130               		.cfi_def_cfa_offset 4
 131               		.cfi_offset 11, -3
 132 0062 CF92      		push r12
 133               	.LCFI16:
 134               		.cfi_def_cfa_offset 5
 135               		.cfi_offset 12, -4
 136 0064 DF92      		push r13
 137               	.LCFI17:
 138               		.cfi_def_cfa_offset 6
 139               		.cfi_offset 13, -5
 140 0066 EF92      		push r14
 141               	.LCFI18:
 142               		.cfi_def_cfa_offset 7
 143               		.cfi_offset 14, -6
 144 0068 FF92      		push r15
 145               	.LCFI19:
 146               		.cfi_def_cfa_offset 8
 147               		.cfi_offset 15, -7
 148 006a 0F93      		push r16
 149               	.LCFI20:
 150               		.cfi_def_cfa_offset 9
 151               		.cfi_offset 16, -8
GAS LISTING C:\Users\Rando\AppData\Local\Temp\ccxyP7rG.s 			page 4


 152 006c 1F93      		push r17
 153               	.LCFI21:
 154               		.cfi_def_cfa_offset 10
 155               		.cfi_offset 17, -9
 156 006e CF93      		push r28
 157               	.LCFI22:
 158               		.cfi_def_cfa_offset 11
 159               		.cfi_offset 28, -10
 160 0070 DF93      		push r29
 161               	.LCFI23:
 162               		.cfi_def_cfa_offset 12
 163               		.cfi_offset 29, -11
 164               	/* prologue: function */
 165               	/* frame size = 0 */
 166               	/* stack size = 10 */
 167               	.L__stack_usage = 10
 168 0072 7C01      		movw r14,r24
 169               	.LVL2:
 170               	.LBB9:
  21:src/main.c    **** 	for(uint8_t x = 0; x < epdwidth; x++) {
 171               		.loc 1 21 0
 172 0074 2091 0000 		lds r18,epdwidth
 173 0078 2223      		tst r18
 174 007a 01F0      		breq .L5
 175               		.loc 1 21 0 is_stmt 0 discriminator 3
 176 007c D12C      		mov r13,__zero_reg__
 177               	.LVL3:
 178               	.L7:
 179 007e 0D2D      		mov r16,r13
 180 0080 10E0      		ldi r17,0
 181 0082 C0E0      		ldi r28,0
 182 0084 D0E0      		ldi r29,0
 183               	.L6:
 184               	.LVL4:
 185               	.LBB10:
  22:src/main.c    **** 		for (uint8_t y = 0; y < HEIGHT; y++) {
  23:src/main.c    **** 			EINK_draw_absolute_pixel(buffer,x,y,0);
 186               		.loc 1 23 0 is_stmt 1 discriminator 3
 187 0086 20E0      		ldi r18,0
 188 0088 30E0      		ldi r19,0
 189 008a AE01      		movw r20,r28
 190 008c B801      		movw r22,r16
 191 008e C701      		movw r24,r14
 192 0090 0E94 0000 		call EINK_draw_absolute_pixel
 193               	.LVL5:
 194 0094 2196      		adiw r28,1
 195               	.LVL6:
  22:src/main.c    **** 		for (uint8_t y = 0; y < HEIGHT; y++) {
 196               		.loc 1 22 0 discriminator 3
 197 0096 C832      		cpi r28,40
 198 0098 D105      		cpc r29,__zero_reg__
 199 009a 01F4      		brne .L6
 200               	.LBE10:
  21:src/main.c    **** 	for(uint8_t x = 0; x < epdwidth; x++) {
 201               		.loc 1 21 0 discriminator 2
 202 009c D394      		inc r13
 203               	.LVL7:
GAS LISTING C:\Users\Rando\AppData\Local\Temp\ccxyP7rG.s 			page 5


 204 009e 2091 0000 		lds r18,epdwidth
 205 00a2 D216      		cp r13,r18
 206 00a4 00F0      		brlo .L7
 207               	.LVL8:
 208               	.L5:
 209               	.LBE9:
 210               	.LBB11:
  24:src/main.c    **** 		}
  25:src/main.c    **** 	}
  26:src/main.c    **** 	for(int i = 0; i < 122/epdwidth; i++) {
 211               		.loc 1 26 0 discriminator 1
 212 00a6 30E0      		ldi r19,0
 213 00a8 8AE7      		ldi r24,lo8(122)
 214 00aa 90E0      		ldi r25,0
 215 00ac B901      		movw r22,r18
 216 00ae 0E94 0000 		call __divmodhi4
 217 00b2 672B      		or r22,r23
 218 00b4 01F0      		breq .L4
 219               		.loc 1 26 0 is_stmt 0 discriminator 3
 220 00b6 C12C      		mov r12,__zero_reg__
 221 00b8 D12C      		mov r13,__zero_reg__
 222 00ba 8AE7      		ldi r24,lo8(122)
 223 00bc A82E      		mov r10,r24
 224 00be B12C      		mov r11,__zero_reg__
 225               	.LVL9:
 226               	.L11:
 227 00c0 C0E0      		ldi r28,0
 228 00c2 D0E0      		ldi r29,0
 229 00c4 00C0      		rjmp .L10
 230               	.LVL10:
 231               	.L19:
 232 00c6 2091 0000 		lds r18,epdwidth
 233 00ca 30E0      		ldi r19,0
 234               	.L10:
 235               	.LBB12:
  27:src/main.c    **** 		for(int j = 0; j < 250/HEIGHT; j++) {
  28:src/main.c    **** 			EINK_set_partial_red(buffer, i*epdwidth,j*HEIGHT, epdwidth,HEIGHT);
 236               		.loc 1 28 0 is_stmt 1 discriminator 3
 237 00cc 2C9D      		mul r18,r12
 238 00ce B001      		movw r22,r0
 239 00d0 2D9D      		mul r18,r13
 240 00d2 700D      		add r23,r0
 241 00d4 3C9D      		mul r19,r12
 242 00d6 700D      		add r23,r0
 243 00d8 1124      		clr r1
 244 00da 08E2      		ldi r16,lo8(40)
 245 00dc 10E0      		ldi r17,0
 246 00de AE01      		movw r20,r28
 247 00e0 C701      		movw r24,r14
 248 00e2 0E94 0000 		call EINK_set_partial_red
 249               	.LVL11:
  29:src/main.c    **** 			EINK_set_partial_black(buffer, i*epdwidth,j*HEIGHT, epdwidth,HEIGHT);
 250               		.loc 1 29 0 discriminator 3
 251 00e6 2091 0000 		lds r18,epdwidth
 252 00ea 30E0      		ldi r19,0
 253 00ec 2C9D      		mul r18,r12
 254 00ee B001      		movw r22,r0
GAS LISTING C:\Users\Rando\AppData\Local\Temp\ccxyP7rG.s 			page 6


 255 00f0 2D9D      		mul r18,r13
 256 00f2 700D      		add r23,r0
 257 00f4 3C9D      		mul r19,r12
 258 00f6 700D      		add r23,r0
 259 00f8 1124      		clr r1
 260 00fa AE01      		movw r20,r28
 261 00fc C701      		movw r24,r14
 262 00fe 0E94 0000 		call EINK_set_partial_black
 263               	.LVL12:
 264 0102 A896      		adiw r28,40
  27:src/main.c    **** 		for(int j = 0; j < 250/HEIGHT; j++) {
 265               		.loc 1 27 0 discriminator 3
 266 0104 C03F      		cpi r28,-16
 267 0106 D105      		cpc r29,__zero_reg__
 268 0108 01F4      		brne .L19
 269               	.LBE12:
  26:src/main.c    **** 		for(int j = 0; j < 250/HEIGHT; j++) {
 270               		.loc 1 26 0 discriminator 2
 271 010a 8FEF      		ldi r24,-1
 272 010c C81A      		sub r12,r24
 273 010e D80A      		sbc r13,r24
 274               	.LVL13:
 275 0110 2091 0000 		lds r18,epdwidth
 276 0114 30E0      		ldi r19,0
 277 0116 C501      		movw r24,r10
 278 0118 B901      		movw r22,r18
 279 011a 0E94 0000 		call __divmodhi4
 280 011e C616      		cp r12,r22
 281 0120 D706      		cpc r13,r23
 282 0122 04F0      		brlt .L11
 283               	.LVL14:
 284               	.L4:
 285               	/* epilogue start */
 286               	.LBE11:
  30:src/main.c    **** 		}
  31:src/main.c    **** 	}
  32:src/main.c    **** }
 287               		.loc 1 32 0
 288 0124 DF91      		pop r29
 289 0126 CF91      		pop r28
 290 0128 1F91      		pop r17
 291 012a 0F91      		pop r16
 292 012c FF90      		pop r15
 293 012e EF90      		pop r14
 294               	.LVL15:
 295 0130 DF90      		pop r13
 296 0132 CF90      		pop r12
 297 0134 BF90      		pop r11
 298 0136 AF90      		pop r10
 299 0138 0895      		ret
 300               		.cfi_endproc
 301               	.LFE7:
 302               		.size	clean_buffer, .-clean_buffer
 303               		.section	.text.startup,"ax",@progbits
 304               	.global	main
 305               		.type	main, @function
 306               	main:
GAS LISTING C:\Users\Rando\AppData\Local\Temp\ccxyP7rG.s 			page 7


 307               	.LFB8:
  33:src/main.c    **** 
  34:src/main.c    **** int main() {
 308               		.loc 1 34 0
 309               		.cfi_startproc
 310 0000 CF93      		push r28
 311               	.LCFI24:
 312               		.cfi_def_cfa_offset 3
 313               		.cfi_offset 28, -2
 314 0002 DF93      		push r29
 315               	.LCFI25:
 316               		.cfi_def_cfa_offset 4
 317               		.cfi_offset 29, -3
 318 0004 00D0      		rcall .
 319 0006 00D0      		rcall .
 320 0008 1F92      		push __zero_reg__
 321               	.LCFI26:
 322               		.cfi_def_cfa_offset 9
 323 000a CDB7      		in r28,__SP_L__
 324 000c DEB7      		in r29,__SP_H__
 325               	.LCFI27:
 326               		.cfi_def_cfa_register 28
 327               	/* prologue: function */
 328               	/* frame size = 5 */
 329               	/* stack size = 7 */
 330               	.L__stack_usage = 7
  35:src/main.c    **** 
  36:src/main.c    **** 	//DEBUG led
  37:src/main.c    **** 	DDRF = (1 << DDF0);
 331               		.loc 1 37 0
 332 000e 11E0      		ldi r17,lo8(1)
 333 0010 10BB      		out 0x10,r17
  38:src/main.c    **** 	
  39:src/main.c    **** 	if(batmon_init()) {
 334               		.loc 1 39 0
 335 0012 0E94 0000 		call batmon_init
 336               	.LVL16:
 337 0016 8111      		cpse r24,__zero_reg__
 338 0018 00C0      		rjmp .L47
 339               	.L22:
  40:src/main.c    ****         batmon_config(700);
  41:src/main.c    ****         if(batmon_soc() > 96) {
  42:src/main.c    ****         		PORTF = (1 << PF0);
  43:src/main.c    **** 
  44:src/main.c    ****         }
  45:src/main.c    **** 	}
  46:src/main.c    **** 	
  47:src/main.c    **** 	//IRQ
  48:src/main.c    **** 	DDRE &= ~(1 << DDE6);
 340               		.loc 1 48 0
 341 001a 6E98      		cbi 0xd,6
  49:src/main.c    ****     EICRB |= (1<<ISC60)|(0<<ISC61);   //INT6 falling edge
 342               		.loc 1 49 0
 343 001c 8091 6A00 		lds r24,106
 344 0020 8061      		ori r24,lo8(16)
 345 0022 8093 6A00 		sts 106,r24
  50:src/main.c    ****     EIMSK |= (1<<INT6);
GAS LISTING C:\Users\Rando\AppData\Local\Temp\ccxyP7rG.s 			page 8


 346               		.loc 1 50 0
 347 0026 EE9A      		sbi 0x1d,6
  51:src/main.c    **** 	sei();
 348               		.loc 1 51 0
 349               	/* #APP */
 350               	 ;  51 "src/main.c" 1
 351 0028 7894      		sei
 352               	 ;  0 "" 2
  52:src/main.c    **** 	DDRD &= ~(1 << DDD3);
 353               		.loc 1 52 0
 354               	/* #NOAPP */
 355 002a 5398      		cbi 0xa,3
  53:src/main.c    **** 
  54:src/main.c    **** 	SPI_init();
 356               		.loc 1 54 0
 357 002c 0E94 0000 		call SPI_init
 358               	.LVL17:
  55:src/main.c    **** 	
  56:src/main.c    **** 	EINK_init();
 359               		.loc 1 56 0
 360 0030 0E94 0000 		call EINK_init
 361               	.LVL18:
  57:src/main.c    **** 	while(PIND & !(1<<PD3));
 362               		.loc 1 57 0
 363 0034 89B1      		in r24,0x9
  58:src/main.c    **** 
  59:src/main.c    **** 	unsigned char buffer[(epdwidth / 8) * HEIGHT];
 364               		.loc 1 59 0
 365 0036 8091 0000 		lds r24,epdwidth
 366 003a 8695      		lsr r24
 367 003c 8695      		lsr r24
 368 003e 8695      		lsr r24
 369               	.LVL19:
 370 0040 2DB7      		in r18,__SP_L__
 371 0042 3EB7      		in r19,__SP_H__
 372 0044 98E2      		ldi r25,lo8(40)
 373 0046 899F      		mul r24,r25
 374 0048 2019      		sub r18,r0
 375 004a 3109      		sbc r19,r1
 376 004c 1124      		clr __zero_reg__
 377 004e 0FB6      		in __tmp_reg__,__SREG__
 378 0050 F894      		cli
 379 0052 3EBF      		out __SP_H__,r19
 380 0054 0FBE      		out __SREG__,__tmp_reg__
 381 0056 2DBF      		out __SP_L__,r18
 382 0058 2F5F      		subi r18,-1
 383 005a 3F4F      		sbci r19,-1
 384 005c 7901      		movw r14,r18
 385               	.LVL20:
  60:src/main.c    **** 
  61:src/main.c    **** 	clean_buffer(&buffer);
 386               		.loc 1 61 0
 387 005e C901      		movw r24,r18
 388               	.LVL21:
 389 0060 0E94 0000 		call clean_buffer
 390               	.LVL22:
  62:src/main.c    **** 	while(PIND & !(1<<PD3));
GAS LISTING C:\Users\Rando\AppData\Local\Temp\ccxyP7rG.s 			page 9


 391               		.loc 1 62 0
 392 0064 89B1      		in r24,0x9
  63:src/main.c    **** 	EINK_send_command(DISPLAY_REFRESH);
 393               		.loc 1 63 0
 394 0066 82E1      		ldi r24,lo8(18)
 395 0068 0E94 0000 		call EINK_send_command
 396               	.LVL23:
  64:src/main.c    **** 	while(PIND & !(1<<PD3));
 397               		.loc 1 64 0
 398 006c 89B1      		in r24,0x9
 399               	.LVL24:
 400               	.LBB13:
 401               	.LBB14:
 402               		.file 2 "c:\\avr toolchain\\avr\\include\\util\\delay.h"
   1:c:\avr toolchain\avr\include\util\delay.h **** /* Copyright (c) 2002, Marek Michalkiewicz
   2:c:\avr toolchain\avr\include\util\delay.h ****    Copyright (c) 2004,2005,2007 Joerg Wunsch
   3:c:\avr toolchain\avr\include\util\delay.h ****    Copyright (c) 2007  Florin-Viorel Petrov
   4:c:\avr toolchain\avr\include\util\delay.h ****    All rights reserved.
   5:c:\avr toolchain\avr\include\util\delay.h **** 
   6:c:\avr toolchain\avr\include\util\delay.h ****    Redistribution and use in source and binary forms, with or without
   7:c:\avr toolchain\avr\include\util\delay.h ****    modification, are permitted provided that the following conditions are met:
   8:c:\avr toolchain\avr\include\util\delay.h **** 
   9:c:\avr toolchain\avr\include\util\delay.h ****    * Redistributions of source code must retain the above copyright
  10:c:\avr toolchain\avr\include\util\delay.h ****      notice, this list of conditions and the following disclaimer.
  11:c:\avr toolchain\avr\include\util\delay.h **** 
  12:c:\avr toolchain\avr\include\util\delay.h ****    * Redistributions in binary form must reproduce the above copyright
  13:c:\avr toolchain\avr\include\util\delay.h ****      notice, this list of conditions and the following disclaimer in
  14:c:\avr toolchain\avr\include\util\delay.h ****      the documentation and/or other materials provided with the
  15:c:\avr toolchain\avr\include\util\delay.h ****      distribution.
  16:c:\avr toolchain\avr\include\util\delay.h **** 
  17:c:\avr toolchain\avr\include\util\delay.h ****    * Neither the name of the copyright holders nor the names of
  18:c:\avr toolchain\avr\include\util\delay.h ****      contributors may be used to endorse or promote products derived
  19:c:\avr toolchain\avr\include\util\delay.h ****      from this software without specific prior written permission.
  20:c:\avr toolchain\avr\include\util\delay.h **** 
  21:c:\avr toolchain\avr\include\util\delay.h ****   THIS SOFTWARE IS PROVIDED BY THE COPYRIGHT HOLDERS AND CONTRIBUTORS "AS IS"
  22:c:\avr toolchain\avr\include\util\delay.h ****   AND ANY EXPRESS OR IMPLIED WARRANTIES, INCLUDING, BUT NOT LIMITED TO, THE
  23:c:\avr toolchain\avr\include\util\delay.h ****   IMPLIED WARRANTIES OF MERCHANTABILITY AND FITNESS FOR A PARTICULAR PURPOSE
  24:c:\avr toolchain\avr\include\util\delay.h ****   ARE DISCLAIMED. IN NO EVENT SHALL THE COPYRIGHT OWNER OR CONTRIBUTORS BE
  25:c:\avr toolchain\avr\include\util\delay.h ****   LIABLE FOR ANY DIRECT, INDIRECT, INCIDENTAL, SPECIAL, EXEMPLARY, OR
  26:c:\avr toolchain\avr\include\util\delay.h ****   CONSEQUENTIAL DAMAGES (INCLUDING, BUT NOT LIMITED TO, PROCUREMENT OF
  27:c:\avr toolchain\avr\include\util\delay.h ****   SUBSTITUTE GOODS OR SERVICES; LOSS OF USE, DATA, OR PROFITS; OR BUSINESS
  28:c:\avr toolchain\avr\include\util\delay.h ****   INTERRUPTION) HOWEVER CAUSED AND ON ANY THEORY OF LIABILITY, WHETHER IN
  29:c:\avr toolchain\avr\include\util\delay.h ****   CONTRACT, STRICT LIABILITY, OR TORT (INCLUDING NEGLIGENCE OR OTHERWISE)
  30:c:\avr toolchain\avr\include\util\delay.h ****   ARISING IN ANY WAY OUT OF THE USE OF THIS SOFTWARE, EVEN IF ADVISED OF THE
  31:c:\avr toolchain\avr\include\util\delay.h ****   POSSIBILITY OF SUCH DAMAGE. */
  32:c:\avr toolchain\avr\include\util\delay.h **** 
  33:c:\avr toolchain\avr\include\util\delay.h **** /* $Id$ */
  34:c:\avr toolchain\avr\include\util\delay.h **** 
  35:c:\avr toolchain\avr\include\util\delay.h **** #ifndef _UTIL_DELAY_H_
  36:c:\avr toolchain\avr\include\util\delay.h **** #define _UTIL_DELAY_H_ 1
  37:c:\avr toolchain\avr\include\util\delay.h **** 
  38:c:\avr toolchain\avr\include\util\delay.h **** #ifndef __DOXYGEN__
  39:c:\avr toolchain\avr\include\util\delay.h **** #  ifndef __HAS_DELAY_CYCLES
  40:c:\avr toolchain\avr\include\util\delay.h **** #    define __HAS_DELAY_CYCLES 1
  41:c:\avr toolchain\avr\include\util\delay.h **** #  endif
  42:c:\avr toolchain\avr\include\util\delay.h **** #endif  /* __DOXYGEN__ */
  43:c:\avr toolchain\avr\include\util\delay.h **** 
GAS LISTING C:\Users\Rando\AppData\Local\Temp\ccxyP7rG.s 			page 10


  44:c:\avr toolchain\avr\include\util\delay.h **** #include <inttypes.h>
  45:c:\avr toolchain\avr\include\util\delay.h **** #include <util/delay_basic.h>
  46:c:\avr toolchain\avr\include\util\delay.h **** #include <math.h>
  47:c:\avr toolchain\avr\include\util\delay.h **** 
  48:c:\avr toolchain\avr\include\util\delay.h **** /** \file */
  49:c:\avr toolchain\avr\include\util\delay.h **** /** \defgroup util_delay <util/delay.h>: Convenience functions for busy-wait delay loops
  50:c:\avr toolchain\avr\include\util\delay.h ****     \code
  51:c:\avr toolchain\avr\include\util\delay.h ****     #define F_CPU 1000000UL  // 1 MHz
  52:c:\avr toolchain\avr\include\util\delay.h ****     //#define F_CPU 14.7456E6
  53:c:\avr toolchain\avr\include\util\delay.h ****     #include <util/delay.h>
  54:c:\avr toolchain\avr\include\util\delay.h ****     \endcode
  55:c:\avr toolchain\avr\include\util\delay.h **** 
  56:c:\avr toolchain\avr\include\util\delay.h ****     \note As an alternative method, it is possible to pass the
  57:c:\avr toolchain\avr\include\util\delay.h ****     F_CPU macro down to the compiler from the Makefile.
  58:c:\avr toolchain\avr\include\util\delay.h ****     Obviously, in that case, no \c \#define statement should be
  59:c:\avr toolchain\avr\include\util\delay.h ****     used.
  60:c:\avr toolchain\avr\include\util\delay.h **** 
  61:c:\avr toolchain\avr\include\util\delay.h ****     The functions in this header file are wrappers around the basic
  62:c:\avr toolchain\avr\include\util\delay.h ****     busy-wait functions from <util/delay_basic.h>.  They are meant as
  63:c:\avr toolchain\avr\include\util\delay.h ****     convenience functions where actual time values can be specified
  64:c:\avr toolchain\avr\include\util\delay.h ****     rather than a number of cycles to wait for.  The idea behind is
  65:c:\avr toolchain\avr\include\util\delay.h ****     that compile-time constant expressions will be eliminated by
  66:c:\avr toolchain\avr\include\util\delay.h ****     compiler optimization so floating-point expressions can be used
  67:c:\avr toolchain\avr\include\util\delay.h ****     to calculate the number of delay cycles needed based on the CPU
  68:c:\avr toolchain\avr\include\util\delay.h ****     frequency passed by the macro F_CPU.
  69:c:\avr toolchain\avr\include\util\delay.h **** 
  70:c:\avr toolchain\avr\include\util\delay.h ****     \note In order for these functions to work as intended, compiler
  71:c:\avr toolchain\avr\include\util\delay.h ****     optimizations <em>must</em> be enabled, and the delay time
  72:c:\avr toolchain\avr\include\util\delay.h ****     <em>must</em> be an expression that is a known constant at
  73:c:\avr toolchain\avr\include\util\delay.h ****     compile-time.  If these requirements are not met, the resulting
  74:c:\avr toolchain\avr\include\util\delay.h ****     delay will be much longer (and basically unpredictable), and
  75:c:\avr toolchain\avr\include\util\delay.h ****     applications that otherwise do not use floating-point calculations
  76:c:\avr toolchain\avr\include\util\delay.h ****     will experience severe code bloat by the floating-point library
  77:c:\avr toolchain\avr\include\util\delay.h ****     routines linked into the application.
  78:c:\avr toolchain\avr\include\util\delay.h **** 
  79:c:\avr toolchain\avr\include\util\delay.h ****     The functions available allow the specification of microsecond, and
  80:c:\avr toolchain\avr\include\util\delay.h ****     millisecond delays directly, using the application-supplied macro
  81:c:\avr toolchain\avr\include\util\delay.h ****     F_CPU as the CPU clock frequency (in Hertz).
  82:c:\avr toolchain\avr\include\util\delay.h **** 
  83:c:\avr toolchain\avr\include\util\delay.h **** */
  84:c:\avr toolchain\avr\include\util\delay.h **** 
  85:c:\avr toolchain\avr\include\util\delay.h **** #if !defined(__DOXYGEN__)
  86:c:\avr toolchain\avr\include\util\delay.h **** static __inline__ void _delay_us(double __us) __attribute__((__always_inline__));
  87:c:\avr toolchain\avr\include\util\delay.h **** static __inline__ void _delay_ms(double __ms) __attribute__((__always_inline__));
  88:c:\avr toolchain\avr\include\util\delay.h **** #endif
  89:c:\avr toolchain\avr\include\util\delay.h **** 
  90:c:\avr toolchain\avr\include\util\delay.h **** #ifndef F_CPU
  91:c:\avr toolchain\avr\include\util\delay.h **** /* prevent compiler error by supplying a default */
  92:c:\avr toolchain\avr\include\util\delay.h **** # warning "F_CPU not defined for <util/delay.h>"
  93:c:\avr toolchain\avr\include\util\delay.h **** /** \ingroup util_delay
  94:c:\avr toolchain\avr\include\util\delay.h ****     \def F_CPU
  95:c:\avr toolchain\avr\include\util\delay.h ****     \brief CPU frequency in Hz
  96:c:\avr toolchain\avr\include\util\delay.h **** 
  97:c:\avr toolchain\avr\include\util\delay.h ****     The macro F_CPU specifies the CPU frequency to be considered by
  98:c:\avr toolchain\avr\include\util\delay.h ****     the delay macros.  This macro is normally supplied by the
  99:c:\avr toolchain\avr\include\util\delay.h ****     environment (e.g. from within a project header, or the project's
 100:c:\avr toolchain\avr\include\util\delay.h ****     Makefile).  The value 1 MHz here is only provided as a "vanilla"
GAS LISTING C:\Users\Rando\AppData\Local\Temp\ccxyP7rG.s 			page 11


 101:c:\avr toolchain\avr\include\util\delay.h ****     fallback if no such user-provided definition could be found.
 102:c:\avr toolchain\avr\include\util\delay.h **** 
 103:c:\avr toolchain\avr\include\util\delay.h ****     In terms of the delay functions, the CPU frequency can be given as
 104:c:\avr toolchain\avr\include\util\delay.h ****     a floating-point constant (e.g. 3.6864E6 for 3.6864 MHz).
 105:c:\avr toolchain\avr\include\util\delay.h ****     However, the macros in <util/setbaud.h> require it to be an
 106:c:\avr toolchain\avr\include\util\delay.h ****     integer value.
 107:c:\avr toolchain\avr\include\util\delay.h ****  */
 108:c:\avr toolchain\avr\include\util\delay.h **** # define F_CPU 1000000UL
 109:c:\avr toolchain\avr\include\util\delay.h **** #endif
 110:c:\avr toolchain\avr\include\util\delay.h **** 
 111:c:\avr toolchain\avr\include\util\delay.h **** #ifndef __OPTIMIZE__
 112:c:\avr toolchain\avr\include\util\delay.h **** # warning "Compiler optimizations disabled; functions from <util/delay.h> won't work as designed"
 113:c:\avr toolchain\avr\include\util\delay.h **** #endif
 114:c:\avr toolchain\avr\include\util\delay.h **** 
 115:c:\avr toolchain\avr\include\util\delay.h **** #if __HAS_DELAY_CYCLES && defined(__OPTIMIZE__) && \
 116:c:\avr toolchain\avr\include\util\delay.h ****   !defined(__DELAY_BACKWARD_COMPATIBLE__) &&	   \
 117:c:\avr toolchain\avr\include\util\delay.h ****   __STDC_HOSTED__
 118:c:\avr toolchain\avr\include\util\delay.h **** #  include <math.h>
 119:c:\avr toolchain\avr\include\util\delay.h **** #endif
 120:c:\avr toolchain\avr\include\util\delay.h **** 
 121:c:\avr toolchain\avr\include\util\delay.h **** /**
 122:c:\avr toolchain\avr\include\util\delay.h ****    \ingroup util_delay
 123:c:\avr toolchain\avr\include\util\delay.h **** 
 124:c:\avr toolchain\avr\include\util\delay.h ****    Perform a delay of \c __ms milliseconds, using _delay_loop_2().
 125:c:\avr toolchain\avr\include\util\delay.h **** 
 126:c:\avr toolchain\avr\include\util\delay.h ****    The macro F_CPU is supposed to be defined to a
 127:c:\avr toolchain\avr\include\util\delay.h ****    constant defining the CPU clock frequency (in Hertz).
 128:c:\avr toolchain\avr\include\util\delay.h **** 
 129:c:\avr toolchain\avr\include\util\delay.h ****    The maximal possible delay is 262.14 ms / F_CPU in MHz.
 130:c:\avr toolchain\avr\include\util\delay.h **** 
 131:c:\avr toolchain\avr\include\util\delay.h ****    When the user request delay which exceed the maximum possible one,
 132:c:\avr toolchain\avr\include\util\delay.h ****    _delay_ms() provides a decreased resolution functionality. In this
 133:c:\avr toolchain\avr\include\util\delay.h ****    mode _delay_ms() will work with a resolution of 1/10 ms, providing
 134:c:\avr toolchain\avr\include\util\delay.h ****    delays up to 6.5535 seconds (independent from CPU frequency).  The
 135:c:\avr toolchain\avr\include\util\delay.h ****    user will not be informed about decreased resolution.
 136:c:\avr toolchain\avr\include\util\delay.h **** 
 137:c:\avr toolchain\avr\include\util\delay.h ****    If the avr-gcc toolchain has __builtin_avr_delay_cycles()
 138:c:\avr toolchain\avr\include\util\delay.h ****    support, maximal possible delay is 4294967.295 ms/ F_CPU in MHz. For
 139:c:\avr toolchain\avr\include\util\delay.h ****    values greater than the maximal possible delay, overflows results in
 140:c:\avr toolchain\avr\include\util\delay.h ****    no delay i.e., 0ms.
 141:c:\avr toolchain\avr\include\util\delay.h **** 
 142:c:\avr toolchain\avr\include\util\delay.h ****    Conversion of \c __ms into clock cycles may not always result in
 143:c:\avr toolchain\avr\include\util\delay.h ****    integer.  By default, the clock cycles rounded up to next
 144:c:\avr toolchain\avr\include\util\delay.h ****    integer. This ensures that the user gets at least \c __ms
 145:c:\avr toolchain\avr\include\util\delay.h ****    microseconds of delay.
 146:c:\avr toolchain\avr\include\util\delay.h **** 
 147:c:\avr toolchain\avr\include\util\delay.h ****    Alternatively, by defining the macro \c __DELAY_ROUND_DOWN__, or
 148:c:\avr toolchain\avr\include\util\delay.h ****    \c __DELAY_ROUND_CLOSEST__, before including this header file, the
 149:c:\avr toolchain\avr\include\util\delay.h ****    algorithm can be made to round down, or round to closest integer,
 150:c:\avr toolchain\avr\include\util\delay.h ****    respectively.
 151:c:\avr toolchain\avr\include\util\delay.h **** 
 152:c:\avr toolchain\avr\include\util\delay.h ****    \note
 153:c:\avr toolchain\avr\include\util\delay.h **** 
 154:c:\avr toolchain\avr\include\util\delay.h ****    The implementation of _delay_ms() based on
 155:c:\avr toolchain\avr\include\util\delay.h ****    __builtin_avr_delay_cycles() is not backward compatible with older
 156:c:\avr toolchain\avr\include\util\delay.h ****    implementations.  In order to get functionality backward compatible
 157:c:\avr toolchain\avr\include\util\delay.h ****    with previous versions, the macro \c "__DELAY_BACKWARD_COMPATIBLE__"
GAS LISTING C:\Users\Rando\AppData\Local\Temp\ccxyP7rG.s 			page 12


 158:c:\avr toolchain\avr\include\util\delay.h ****    must be defined before including this header file. Also, the
 159:c:\avr toolchain\avr\include\util\delay.h ****    backward compatible algorithm will be chosen if the code is
 160:c:\avr toolchain\avr\include\util\delay.h ****    compiled in a <em>freestanding environment</em> (GCC option
 161:c:\avr toolchain\avr\include\util\delay.h ****    \c -ffreestanding), as the math functions required for rounding are
 162:c:\avr toolchain\avr\include\util\delay.h ****    not available to the compiler then.
 163:c:\avr toolchain\avr\include\util\delay.h **** 
 164:c:\avr toolchain\avr\include\util\delay.h ****  */
 165:c:\avr toolchain\avr\include\util\delay.h **** void
 166:c:\avr toolchain\avr\include\util\delay.h **** _delay_ms(double __ms)
 167:c:\avr toolchain\avr\include\util\delay.h **** {
 168:c:\avr toolchain\avr\include\util\delay.h **** 	double __tmp ;
 169:c:\avr toolchain\avr\include\util\delay.h **** #if __HAS_DELAY_CYCLES && defined(__OPTIMIZE__) && \
 170:c:\avr toolchain\avr\include\util\delay.h ****   !defined(__DELAY_BACKWARD_COMPATIBLE__) &&	   \
 171:c:\avr toolchain\avr\include\util\delay.h ****   __STDC_HOSTED__
 172:c:\avr toolchain\avr\include\util\delay.h **** 	uint32_t __ticks_dc;
 173:c:\avr toolchain\avr\include\util\delay.h **** 	extern void __builtin_avr_delay_cycles(unsigned long);
 174:c:\avr toolchain\avr\include\util\delay.h **** 	__tmp = ((F_CPU) / 1e3) * __ms;
 175:c:\avr toolchain\avr\include\util\delay.h **** 
 176:c:\avr toolchain\avr\include\util\delay.h **** 	#if defined(__DELAY_ROUND_DOWN__)
 177:c:\avr toolchain\avr\include\util\delay.h **** 		__ticks_dc = (uint32_t)fabs(__tmp);
 178:c:\avr toolchain\avr\include\util\delay.h **** 
 179:c:\avr toolchain\avr\include\util\delay.h **** 	#elif defined(__DELAY_ROUND_CLOSEST__)
 180:c:\avr toolchain\avr\include\util\delay.h **** 		__ticks_dc = (uint32_t)(fabs(__tmp)+0.5);
 181:c:\avr toolchain\avr\include\util\delay.h **** 
 182:c:\avr toolchain\avr\include\util\delay.h **** 	#else
 183:c:\avr toolchain\avr\include\util\delay.h **** 		//round up by default
 184:c:\avr toolchain\avr\include\util\delay.h **** 		__ticks_dc = (uint32_t)(ceil(fabs(__tmp)));
 185:c:\avr toolchain\avr\include\util\delay.h **** 	#endif
 186:c:\avr toolchain\avr\include\util\delay.h **** 
 187:c:\avr toolchain\avr\include\util\delay.h **** 	__builtin_avr_delay_cycles(__ticks_dc);
 403               		.loc 2 187 0
 404 006e 3FEF      		ldi r19,lo8(39999999)
 405 0070 89E5      		ldi r24,hi8(39999999)
 406 0072 92E6      		ldi r25,hlo8(39999999)
 407 0074 22E0      		ldi r18,hhi8(39999999)
 408 0076 3150      	1:	subi r19,1
 409 0078 8040      		sbci r24,0
 410 007a 9040      		sbci r25,0
 411 007c 2040      		sbci r18,0
 412 007e 01F4      		brne 1b
 413 0080 00C0      		rjmp .
 414 0082 0000      		nop
 415               	.LVL25:
 416               	.LBE14:
 417               	.LBE13:
 418               	.LBB15:
  65:src/main.c    **** 	// Delay piisavalt, et esimese refreshi jõuaks enne ära teha
  66:src/main.c    **** 	_delay_ms(15000);
  67:src/main.c    **** 
  68:src/main.c    **** 
  69:src/main.c    **** 	//Suvaline aadress
  70:src/main.c    **** 	uint8_t address[5];
  71:src/main.c    **** 	for(int i = 0; i < 5; i++) {
  72:src/main.c    **** 		address[i] = 0x12+i;
 419               		.loc 1 72 0
 420 0084 82E1      		ldi r24,lo8(18)
 421 0086 8983      		std Y+1,r24
GAS LISTING C:\Users\Rando\AppData\Local\Temp\ccxyP7rG.s 			page 13


 422               	.LVL26:
 423 0088 83E1      		ldi r24,lo8(19)
 424 008a 8A83      		std Y+2,r24
 425               	.LVL27:
 426 008c 84E1      		ldi r24,lo8(20)
 427 008e 8B83      		std Y+3,r24
 428               	.LVL28:
 429 0090 85E1      		ldi r24,lo8(21)
 430 0092 8C83      		std Y+4,r24
 431               	.LVL29:
 432 0094 86E1      		ldi r24,lo8(22)
 433 0096 8D83      		std Y+5,r24
 434               	.LVL30:
 435               	.LBE15:
  73:src/main.c    ****     }
  74:src/main.c    **** 	
  75:src/main.c    **** 	nrf24l01_init(5, address, 110, 10 ,MODE_RECIEVE);
 436               		.loc 1 75 0
 437 0098 01E0      		ldi r16,lo8(1)
 438 009a 2AE0      		ldi r18,lo8(10)
 439 009c 4EE6      		ldi r20,lo8(110)
 440 009e BE01      		movw r22,r28
 441 00a0 6F5F      		subi r22,-1
 442 00a2 7F4F      		sbci r23,-1
 443 00a4 85E0      		ldi r24,lo8(5)
 444 00a6 0E94 0000 		call nrf24l01_init
 445               	.LVL31:
  76:src/main.c    **** 	
  77:src/main.c    **** 	nrf24l01_read_register(R_RX_PAYLOAD,data,10); // Esimesel korral peame puhvritühjendust ise tegema
 446               		.loc 1 77 0
 447 00aa 4AE0      		ldi r20,lo8(10)
 448 00ac 60E0      		ldi r22,lo8(data)
 449 00ae 70E0      		ldi r23,hi8(data)
 450 00b0 81E6      		ldi r24,lo8(97)
 451 00b2 0E94 0000 		call nrf24l01_read_register
 452               	.LVL32:
  78:src/main.c    **** 	nrf24l01_reset_interrupts();    
 453               		.loc 1 78 0
 454 00b6 0E94 0000 		call nrf24l01_reset_interrupts
 455               	.LVL33:
 456               	.L24:
  79:src/main.c    **** 
  80:src/main.c    **** 	while(1) {
  81:src/main.c    **** 		if(data_available) {
 457               		.loc 1 81 0
 458 00ba 8091 0000 		lds r24,data_available
 459 00be 8823      		tst r24
 460 00c0 01F0      		breq .L24
  82:src/main.c    **** 
  83:src/main.c    **** 			if(data[0] == 'D') {
 461               		.loc 1 83 0
 462 00c2 8091 0000 		lds r24,data
 463 00c6 8434      		cpi r24,lo8(68)
 464 00c8 01F0      		breq .L48
  84:src/main.c    **** 				if(data[1] == 'B') {
  85:src/main.c    **** 					EINK_set_partial_black(buffer, (uint8_t)data[2], (uint8_t)data[3], epdwidth,HEIGHT);
  86:src/main.c    **** 					while(PIND & !(1<<PD3));
GAS LISTING C:\Users\Rando\AppData\Local\Temp\ccxyP7rG.s 			page 14


  87:src/main.c    ****                     for(uint8_t x = 0; x < epdwidth; x++) {
  88:src/main.c    ****                         for (uint8_t y = 0; y < HEIGHT; y++) {
  89:src/main.c    ****                             EINK_draw_absolute_pixel(buffer,x,y,0);
  90:src/main.c    ****                         }
  91:src/main.c    ****                     }
  92:src/main.c    **** 				} else if (data[1] == 'R') {
  93:src/main.c    **** 					EINK_set_partial_red(buffer, (uint8_t)data[2], (uint8_t)data[3], epdwidth,HEIGHT);
  94:src/main.c    **** 					while(PIND & !(1<<PD3));
  95:src/main.c    ****                     for(uint8_t x = 0; x < epdwidth; x++) {
  96:src/main.c    ****                         for (uint8_t y = 0; y < HEIGHT; y++) {
  97:src/main.c    ****                             EINK_draw_absolute_pixel(buffer,x,y,0);
  98:src/main.c    ****                         }
  99:src/main.c    ****                     }
 100:src/main.c    **** 				}
 101:src/main.c    **** 			} else {
 102:src/main.c    **** 
 103:src/main.c    **** 				if(data[0] == 'S') {
 465               		.loc 1 103 0
 466 00ca 8091 0000 		lds r24,data
 467 00ce 8335      		cpi r24,lo8(83)
 468 00d0 01F4      		brne .+2
 469 00d2 00C0      		rjmp .L49
 104:src/main.c    **** 					EINK_draw_absolute_pixel(buffer,(uint8_t)data[1],(uint8_t)data[2],1);
 105:src/main.c    **** 				} else if(data[0] == 'C') {
 470               		.loc 1 105 0
 471 00d4 8091 0000 		lds r24,data
 472 00d8 8334      		cpi r24,lo8(67)
 473 00da 01F4      		brne .+2
 474 00dc 00C0      		rjmp .L50
 106:src/main.c    **** 					EINK_draw_absolute_pixel(buffer,data[1],data[2],0);
 107:src/main.c    **** 				} else if(data[0] == 'R') {
 475               		.loc 1 107 0
 476 00de 8091 0000 		lds r24,data
 477 00e2 8235      		cpi r24,lo8(82)
 478 00e4 01F4      		brne .+2
 479 00e6 00C0      		rjmp .L51
 108:src/main.c    **** 					EINK_send_command(DISPLAY_REFRESH);
 109:src/main.c    **** 					while(PIND & !(1<<PD3));
 110:src/main.c    **** 				} else if(data[0] == 'W') {
 480               		.loc 1 110 0
 481 00e8 8091 0000 		lds r24,data
 482 00ec 8735      		cpi r24,lo8(87)
 483 00ee 01F4      		brne .+2
 484 00f0 00C0      		rjmp .L52
 485               	.L28:
 111:src/main.c    **** 					clean_buffer(&buffer);
 112:src/main.c    ****                     while(PIND & !(1<<PD3));
 113:src/main.c    ****                     
 114:src/main.c    ****                 }
 115:src/main.c    ****             }
 116:src/main.c    **** 			
 117:src/main.c    **** 			nrf24l01_reset_interrupts();
 486               		.loc 1 117 0
 487 00f2 0E94 0000 		call nrf24l01_reset_interrupts
 488               	.LVL34:
 118:src/main.c    **** 			data_available = 0;
 489               		.loc 1 118 0
GAS LISTING C:\Users\Rando\AppData\Local\Temp\ccxyP7rG.s 			page 15


 490 00f6 1092 0000 		sts data_available,__zero_reg__
 491 00fa 00C0      		rjmp .L24
 492               	.L48:
  84:src/main.c    **** 					EINK_set_partial_black(buffer, (uint8_t)data[2], (uint8_t)data[3], epdwidth,HEIGHT);
 493               		.loc 1 84 0
 494 00fc 8091 0000 		lds r24,data+1
 495 0100 8234      		cpi r24,lo8(66)
 496 0102 01F4      		brne .+2
 497 0104 00C0      		rjmp .L53
  92:src/main.c    **** 					EINK_set_partial_red(buffer, (uint8_t)data[2], (uint8_t)data[3], epdwidth,HEIGHT);
 498               		.loc 1 92 0
 499 0106 8091 0000 		lds r24,data+1
 500 010a 8235      		cpi r24,lo8(82)
 501 010c 01F4      		brne .L28
  93:src/main.c    **** 					while(PIND & !(1<<PD3));
 502               		.loc 1 93 0
 503 010e 4091 0000 		lds r20,data+3
 504 0112 6091 0000 		lds r22,data+2
 505 0116 2091 0000 		lds r18,epdwidth
 506 011a 30E0      		ldi r19,0
 507 011c 50E0      		ldi r21,0
 508 011e 70E0      		ldi r23,0
 509 0120 08E2      		ldi r16,lo8(40)
 510 0122 10E0      		ldi r17,0
 511 0124 C701      		movw r24,r14
 512 0126 0E94 0000 		call EINK_set_partial_red
 513               	.LVL35:
  94:src/main.c    ****                     for(uint8_t x = 0; x < epdwidth; x++) {
 514               		.loc 1 94 0
 515 012a 89B1      		in r24,0x9
 516               	.LVL36:
 517               	.LBB16:
  95:src/main.c    ****                         for (uint8_t y = 0; y < HEIGHT; y++) {
 518               		.loc 1 95 0
 519 012c 8091 0000 		lds r24,epdwidth
 520 0130 8823      		tst r24
 521 0132 01F0      		breq .L28
  95:src/main.c    ****                         for (uint8_t y = 0; y < HEIGHT; y++) {
 522               		.loc 1 95 0 is_stmt 0 discriminator 3
 523 0134 B12C      		mov r11,__zero_reg__
 524               	.LVL37:
 525               	.L33:
 526 0136 CB2C      		mov r12,r11
 527 0138 D12C      		mov r13,__zero_reg__
 528 013a 00E0      		ldi r16,0
 529 013c 10E0      		ldi r17,0
 530               	.L32:
 531               	.LVL38:
 532               	.LBB17:
  97:src/main.c    ****                         }
 533               		.loc 1 97 0 is_stmt 1 discriminator 3
 534 013e 20E0      		ldi r18,0
 535 0140 30E0      		ldi r19,0
 536 0142 A801      		movw r20,r16
 537 0144 B601      		movw r22,r12
 538 0146 C701      		movw r24,r14
 539 0148 0E94 0000 		call EINK_draw_absolute_pixel
GAS LISTING C:\Users\Rando\AppData\Local\Temp\ccxyP7rG.s 			page 16


 540               	.LVL39:
 541 014c 0F5F      		subi r16,-1
 542 014e 1F4F      		sbci r17,-1
 543               	.LVL40:
  96:src/main.c    ****                             EINK_draw_absolute_pixel(buffer,x,y,0);
 544               		.loc 1 96 0 discriminator 3
 545 0150 0832      		cpi r16,40
 546 0152 1105      		cpc r17,__zero_reg__
 547 0154 01F4      		brne .L32
 548               	.LBE17:
  95:src/main.c    ****                         for (uint8_t y = 0; y < HEIGHT; y++) {
 549               		.loc 1 95 0 discriminator 2
 550 0156 B394      		inc r11
 551               	.LVL41:
 552 0158 8091 0000 		lds r24,epdwidth
 553 015c B816      		cp r11,r24
 554 015e 00F0      		brlo .L33
 555 0160 00C0      		rjmp .L28
 556               	.LVL42:
 557               	.L49:
 558               	.LBE16:
 104:src/main.c    **** 				} else if(data[0] == 'C') {
 559               		.loc 1 104 0
 560 0162 4091 0000 		lds r20,data+2
 561 0166 6091 0000 		lds r22,data+1
 562 016a 50E0      		ldi r21,0
 563 016c 70E0      		ldi r23,0
 564 016e 21E0      		ldi r18,lo8(1)
 565 0170 30E0      		ldi r19,0
 566 0172 C701      		movw r24,r14
 567 0174 0E94 0000 		call EINK_draw_absolute_pixel
 568               	.LVL43:
 569 0178 00C0      		rjmp .L28
 570               	.L50:
 106:src/main.c    **** 				} else if(data[0] == 'R') {
 571               		.loc 1 106 0
 572 017a 4091 0000 		lds r20,data+2
 573 017e 6091 0000 		lds r22,data+1
 574 0182 50E0      		ldi r21,0
 575 0184 70E0      		ldi r23,0
 576 0186 20E0      		ldi r18,0
 577 0188 30E0      		ldi r19,0
 578 018a C701      		movw r24,r14
 579 018c 0E94 0000 		call EINK_draw_absolute_pixel
 580               	.LVL44:
 581 0190 00C0      		rjmp .L28
 582               	.L53:
  85:src/main.c    **** 					while(PIND & !(1<<PD3));
 583               		.loc 1 85 0
 584 0192 4091 0000 		lds r20,data+3
 585 0196 6091 0000 		lds r22,data+2
 586 019a 2091 0000 		lds r18,epdwidth
 587 019e 30E0      		ldi r19,0
 588 01a0 50E0      		ldi r21,0
 589 01a2 70E0      		ldi r23,0
 590 01a4 08E2      		ldi r16,lo8(40)
 591 01a6 10E0      		ldi r17,0
GAS LISTING C:\Users\Rando\AppData\Local\Temp\ccxyP7rG.s 			page 17


 592 01a8 C701      		movw r24,r14
 593 01aa 0E94 0000 		call EINK_set_partial_black
 594               	.LVL45:
  86:src/main.c    ****                     for(uint8_t x = 0; x < epdwidth; x++) {
 595               		.loc 1 86 0
 596 01ae 89B1      		in r24,0x9
 597               	.LVL46:
 598               	.LBB18:
  87:src/main.c    ****                         for (uint8_t y = 0; y < HEIGHT; y++) {
 599               		.loc 1 87 0
 600 01b0 8091 0000 		lds r24,epdwidth
 601 01b4 8823      		tst r24
 602 01b6 01F4      		brne .+2
 603 01b8 00C0      		rjmp .L28
  87:src/main.c    ****                         for (uint8_t y = 0; y < HEIGHT; y++) {
 604               		.loc 1 87 0 is_stmt 0 discriminator 3
 605 01ba B12C      		mov r11,__zero_reg__
 606               	.LVL47:
 607               	.L30:
 608 01bc CB2C      		mov r12,r11
 609 01be D12C      		mov r13,__zero_reg__
 610 01c0 00E0      		ldi r16,0
 611 01c2 10E0      		ldi r17,0
 612               	.L29:
 613               	.LVL48:
 614               	.LBB19:
  89:src/main.c    ****                         }
 615               		.loc 1 89 0 is_stmt 1 discriminator 3
 616 01c4 20E0      		ldi r18,0
 617 01c6 30E0      		ldi r19,0
 618 01c8 A801      		movw r20,r16
 619 01ca B601      		movw r22,r12
 620 01cc C701      		movw r24,r14
 621 01ce 0E94 0000 		call EINK_draw_absolute_pixel
 622               	.LVL49:
 623 01d2 0F5F      		subi r16,-1
 624 01d4 1F4F      		sbci r17,-1
 625               	.LVL50:
  88:src/main.c    ****                             EINK_draw_absolute_pixel(buffer,x,y,0);
 626               		.loc 1 88 0 discriminator 3
 627 01d6 0832      		cpi r16,40
 628 01d8 1105      		cpc r17,__zero_reg__
 629 01da 01F4      		brne .L29
 630               	.LBE19:
  87:src/main.c    ****                         for (uint8_t y = 0; y < HEIGHT; y++) {
 631               		.loc 1 87 0 discriminator 2
 632 01dc B394      		inc r11
 633               	.LVL51:
 634 01de 8091 0000 		lds r24,epdwidth
 635 01e2 B816      		cp r11,r24
 636 01e4 00F0      		brlo .L30
 637 01e6 00C0      		rjmp .L28
 638               	.LVL52:
 639               	.L51:
 640               	.LBE18:
 108:src/main.c    **** 					while(PIND & !(1<<PD3));
 641               		.loc 1 108 0
GAS LISTING C:\Users\Rando\AppData\Local\Temp\ccxyP7rG.s 			page 18


 642 01e8 82E1      		ldi r24,lo8(18)
 643 01ea 0E94 0000 		call EINK_send_command
 644               	.LVL53:
 109:src/main.c    **** 				} else if(data[0] == 'W') {
 645               		.loc 1 109 0
 646 01ee 89B1      		in r24,0x9
 647 01f0 00C0      		rjmp .L28
 648               	.L52:
 111:src/main.c    ****                     while(PIND & !(1<<PD3));
 649               		.loc 1 111 0
 650 01f2 C701      		movw r24,r14
 651 01f4 0E94 0000 		call clean_buffer
 652               	.LVL54:
 112:src/main.c    ****                     
 653               		.loc 1 112 0
 654 01f8 89B1      		in r24,0x9
 655 01fa 00C0      		rjmp .L28
 656               	.LVL55:
 657               	.L47:
  40:src/main.c    ****         if(batmon_soc() > 96) {
 658               		.loc 1 40 0
 659 01fc 8CEB      		ldi r24,lo8(-68)
 660 01fe 92E0      		ldi r25,lo8(2)
 661 0200 0E94 0000 		call batmon_config
 662               	.LVL56:
  41:src/main.c    ****         		PORTF = (1 << PF0);
 663               		.loc 1 41 0
 664 0204 0E94 0000 		call batmon_soc
 665               	.LVL57:
 666 0208 8136      		cpi r24,lo8(97)
 667 020a 00F4      		brsh .+2
 668 020c 00C0      		rjmp .L22
  42:src/main.c    **** 
 669               		.loc 1 42 0
 670 020e 11BB      		out 0x11,r17
 671 0210 00C0      		rjmp .L22
 672               		.cfi_endproc
 673               	.LFE8:
 674               		.size	main, .-main
 675               	.global	data_available
 676               		.section .bss
 677               		.type	data_available, @object
 678               		.size	data_available, 1
 679               	data_available:
 680 0000 00        		.zero	1
 681               		.comm	data,10,1
 682               		.comm	epdwidth,1,1
 683               		.text
 684               	.Letext0:
 685               		.file 3 "c:\\avr toolchain\\avr\\include\\stdint.h"
 686               		.file 4 "./include/eink.h"
 687               		.file 5 "./include/nrf24l01.h"
 688               		.file 6 "./include/batmon.h"
 689               		.file 7 "./include/spi.h"
 690               		.section	.debug_info,"",@progbits
 691               	.Ldebug_info0:
 692 0000 1C06 0000 		.long	0x61c
GAS LISTING C:\Users\Rando\AppData\Local\Temp\ccxyP7rG.s 			page 19


 693 0004 0200      		.word	0x2
 694 0006 0000 0000 		.long	.Ldebug_abbrev0
 695 000a 04        		.byte	0x4
 696 000b 01        		.uleb128 0x1
 697 000c 0000 0000 		.long	.LASF32
 698 0010 0C        		.byte	0xc
 699 0011 0000 0000 		.long	.LASF33
 700 0015 0000 0000 		.long	.LASF34
 701 0019 0000 0000 		.long	.Ldebug_ranges0+0
 702 001d 0000 0000 		.long	0
 703 0021 0000 0000 		.long	0
 704 0025 0000 0000 		.long	.Ldebug_line0
 705 0029 02        		.uleb128 0x2
 706 002a 01        		.byte	0x1
 707 002b 06        		.byte	0x6
 708 002c 0000 0000 		.long	.LASF0
 709 0030 03        		.uleb128 0x3
 710 0031 0000 0000 		.long	.LASF4
 711 0035 03        		.byte	0x3
 712 0036 7E        		.byte	0x7e
 713 0037 3B00 0000 		.long	0x3b
 714 003b 02        		.uleb128 0x2
 715 003c 01        		.byte	0x1
 716 003d 08        		.byte	0x8
 717 003e 0000 0000 		.long	.LASF1
 718 0042 04        		.uleb128 0x4
 719 0043 02        		.byte	0x2
 720 0044 05        		.byte	0x5
 721 0045 696E 7400 		.string	"int"
 722 0049 02        		.uleb128 0x2
 723 004a 02        		.byte	0x2
 724 004b 07        		.byte	0x7
 725 004c 0000 0000 		.long	.LASF2
 726 0050 02        		.uleb128 0x2
 727 0051 04        		.byte	0x4
 728 0052 05        		.byte	0x5
 729 0053 0000 0000 		.long	.LASF3
 730 0057 03        		.uleb128 0x3
 731 0058 0000 0000 		.long	.LASF5
 732 005c 03        		.byte	0x3
 733 005d 82        		.byte	0x82
 734 005e 6200 0000 		.long	0x62
 735 0062 02        		.uleb128 0x2
 736 0063 04        		.byte	0x4
 737 0064 07        		.byte	0x7
 738 0065 0000 0000 		.long	.LASF6
 739 0069 02        		.uleb128 0x2
 740 006a 08        		.byte	0x8
 741 006b 05        		.byte	0x5
 742 006c 0000 0000 		.long	.LASF7
 743 0070 02        		.uleb128 0x2
 744 0071 08        		.byte	0x8
 745 0072 07        		.byte	0x7
 746 0073 0000 0000 		.long	.LASF8
 747 0077 05        		.uleb128 0x5
 748 0078 0000 0000 		.long	.LASF35
 749 007c 02        		.byte	0x2
GAS LISTING C:\Users\Rando\AppData\Local\Temp\ccxyP7rG.s 			page 20


 750 007d A6        		.byte	0xa6
 751 007e 01        		.byte	0x1
 752 007f 03        		.byte	0x3
 753 0080 B000 0000 		.long	0xb0
 754 0084 06        		.uleb128 0x6
 755 0085 0000 0000 		.long	.LASF36
 756 0089 02        		.byte	0x2
 757 008a A6        		.byte	0xa6
 758 008b B000 0000 		.long	0xb0
 759 008f 07        		.uleb128 0x7
 760 0090 0000 0000 		.long	.LASF9
 761 0094 02        		.byte	0x2
 762 0095 A8        		.byte	0xa8
 763 0096 B000 0000 		.long	0xb0
 764 009a 07        		.uleb128 0x7
 765 009b 0000 0000 		.long	.LASF10
 766 009f 02        		.byte	0x2
 767 00a0 AC        		.byte	0xac
 768 00a1 5700 0000 		.long	0x57
 769 00a5 08        		.uleb128 0x8
 770 00a6 01        		.byte	0x1
 771 00a7 0000 0000 		.long	.LASF37
 772 00ab 02        		.byte	0x2
 773 00ac AD        		.byte	0xad
 774 00ad 01        		.byte	0x1
 775 00ae 00        		.byte	0
 776 00af 00        		.byte	0
 777 00b0 02        		.uleb128 0x2
 778 00b1 04        		.byte	0x4
 779 00b2 04        		.byte	0x4
 780 00b3 0000 0000 		.long	.LASF11
 781 00b7 09        		.uleb128 0x9
 782 00b8 01        		.byte	0x1
 783 00b9 0000 0000 		.long	.LASF12
 784 00bd 01        		.byte	0x1
 785 00be 0D        		.byte	0xd
 786 00bf 01        		.byte	0x1
 787 00c0 0000 0000 		.long	.LFB6
 788 00c4 0000 0000 		.long	.LFE6
 789 00c8 0000 0000 		.long	.LLST0
 790 00cc 01        		.byte	0x1
 791 00cd F500 0000 		.long	0xf5
 792 00d1 0A        		.uleb128 0xa
 793 00d2 0000 0000 		.long	.LVL0
 794 00d6 8305 0000 		.long	0x583
 795 00da 0B        		.uleb128 0xb
 796 00db 01        		.byte	0x1
 797 00dc 68        		.byte	0x68
 798 00dd 02        		.byte	0x2
 799 00de 08        		.byte	0x8
 800 00df 61        		.byte	0x61
 801 00e0 0B        		.uleb128 0xb
 802 00e1 06        		.byte	0x6
 803 00e2 66        		.byte	0x66
 804 00e3 93        		.byte	0x93
 805 00e4 01        		.uleb128 0x1
 806 00e5 67        		.byte	0x67
GAS LISTING C:\Users\Rando\AppData\Local\Temp\ccxyP7rG.s 			page 21


 807 00e6 93        		.byte	0x93
 808 00e7 01        		.uleb128 0x1
 809 00e8 05        		.byte	0x5
 810 00e9 03        		.byte	0x3
 811 00ea 0000 0000 		.long	data
 812 00ee 0B        		.uleb128 0xb
 813 00ef 01        		.byte	0x1
 814 00f0 64        		.byte	0x64
 815 00f1 01        		.byte	0x1
 816 00f2 3A        		.byte	0x3a
 817 00f3 00        		.byte	0
 818 00f4 00        		.byte	0
 819 00f5 09        		.uleb128 0x9
 820 00f6 01        		.byte	0x1
 821 00f7 0000 0000 		.long	.LASF13
 822 00fb 01        		.byte	0x1
 823 00fc 14        		.byte	0x14
 824 00fd 01        		.byte	0x1
 825 00fe 0000 0000 		.long	.LFB7
 826 0102 0000 0000 		.long	.LFE7
 827 0106 0000 0000 		.long	.LLST1
 828 010a 01        		.byte	0x1
 829 010b 0A02 0000 		.long	0x20a
 830 010f 0C        		.uleb128 0xc
 831 0110 0000 0000 		.long	.LASF14
 832 0114 01        		.byte	0x1
 833 0115 14        		.byte	0x14
 834 0116 0A02 0000 		.long	0x20a
 835 011a 0000 0000 		.long	.LLST2
 836 011e 0D        		.uleb128 0xd
 837 011f 0000 0000 		.long	.LBB9
 838 0123 0000 0000 		.long	.LBE9
 839 0127 8501 0000 		.long	0x185
 840 012b 0E        		.uleb128 0xe
 841 012c 7800      		.string	"x"
 842 012e 01        		.byte	0x1
 843 012f 15        		.byte	0x15
 844 0130 3000 0000 		.long	0x30
 845 0134 0000 0000 		.long	.LLST3
 846 0138 0F        		.uleb128 0xf
 847 0139 0000 0000 		.long	.LBB10
 848 013d 0000 0000 		.long	.LBE10
 849 0141 0E        		.uleb128 0xe
 850 0142 7900      		.string	"y"
 851 0144 01        		.byte	0x1
 852 0145 16        		.byte	0x16
 853 0146 3000 0000 		.long	0x30
 854 014a 0000 0000 		.long	.LLST4
 855 014e 0A        		.uleb128 0xa
 856 014f 0000 0000 		.long	.LVL5
 857 0153 9005 0000 		.long	0x590
 858 0157 0B        		.uleb128 0xb
 859 0158 06        		.byte	0x6
 860 0159 68        		.byte	0x68
 861 015a 93        		.byte	0x93
 862 015b 01        		.uleb128 0x1
 863 015c 69        		.byte	0x69
GAS LISTING C:\Users\Rando\AppData\Local\Temp\ccxyP7rG.s 			page 22


 864 015d 93        		.byte	0x93
 865 015e 01        		.uleb128 0x1
 866 015f 02        		.byte	0x2
 867 0160 7E        		.byte	0x7e
 868 0161 00        		.sleb128 0
 869 0162 0B        		.uleb128 0xb
 870 0163 06        		.byte	0x6
 871 0164 66        		.byte	0x66
 872 0165 93        		.byte	0x93
 873 0166 01        		.uleb128 0x1
 874 0167 67        		.byte	0x67
 875 0168 93        		.byte	0x93
 876 0169 01        		.uleb128 0x1
 877 016a 02        		.byte	0x2
 878 016b 80        		.byte	0x80
 879 016c 00        		.sleb128 0
 880 016d 0B        		.uleb128 0xb
 881 016e 06        		.byte	0x6
 882 016f 64        		.byte	0x64
 883 0170 93        		.byte	0x93
 884 0171 01        		.uleb128 0x1
 885 0172 65        		.byte	0x65
 886 0173 93        		.byte	0x93
 887 0174 01        		.uleb128 0x1
 888 0175 02        		.byte	0x2
 889 0176 8C        		.byte	0x8c
 890 0177 00        		.sleb128 0
 891 0178 0B        		.uleb128 0xb
 892 0179 06        		.byte	0x6
 893 017a 62        		.byte	0x62
 894 017b 93        		.byte	0x93
 895 017c 01        		.uleb128 0x1
 896 017d 63        		.byte	0x63
 897 017e 93        		.byte	0x93
 898 017f 01        		.uleb128 0x1
 899 0180 01        		.byte	0x1
 900 0181 30        		.byte	0x30
 901 0182 00        		.byte	0
 902 0183 00        		.byte	0
 903 0184 00        		.byte	0
 904 0185 0F        		.uleb128 0xf
 905 0186 0000 0000 		.long	.LBB11
 906 018a 0000 0000 		.long	.LBE11
 907 018e 0E        		.uleb128 0xe
 908 018f 6900      		.string	"i"
 909 0191 01        		.byte	0x1
 910 0192 1A        		.byte	0x1a
 911 0193 4200 0000 		.long	0x42
 912 0197 0000 0000 		.long	.LLST5
 913 019b 0F        		.uleb128 0xf
 914 019c 0000 0000 		.long	.LBB12
 915 01a0 0000 0000 		.long	.LBE12
 916 01a4 10        		.uleb128 0x10
 917 01a5 6A00      		.string	"j"
 918 01a7 01        		.byte	0x1
 919 01a8 1B        		.byte	0x1b
 920 01a9 4200 0000 		.long	0x42
GAS LISTING C:\Users\Rando\AppData\Local\Temp\ccxyP7rG.s 			page 23


 921 01ad 11        		.uleb128 0x11
 922 01ae 0000 0000 		.long	.LVL11
 923 01b2 9D05 0000 		.long	0x59d
 924 01b6 DC01 0000 		.long	0x1dc
 925 01ba 0B        		.uleb128 0xb
 926 01bb 06        		.byte	0x6
 927 01bc 68        		.byte	0x68
 928 01bd 93        		.byte	0x93
 929 01be 01        		.uleb128 0x1
 930 01bf 69        		.byte	0x69
 931 01c0 93        		.byte	0x93
 932 01c1 01        		.uleb128 0x1
 933 01c2 02        		.byte	0x2
 934 01c3 7E        		.byte	0x7e
 935 01c4 00        		.sleb128 0
 936 01c5 0B        		.uleb128 0xb
 937 01c6 06        		.byte	0x6
 938 01c7 64        		.byte	0x64
 939 01c8 93        		.byte	0x93
 940 01c9 01        		.uleb128 0x1
 941 01ca 65        		.byte	0x65
 942 01cb 93        		.byte	0x93
 943 01cc 01        		.uleb128 0x1
 944 01cd 02        		.byte	0x2
 945 01ce 8C        		.byte	0x8c
 946 01cf 00        		.sleb128 0
 947 01d0 0B        		.uleb128 0xb
 948 01d1 06        		.byte	0x6
 949 01d2 60        		.byte	0x60
 950 01d3 93        		.byte	0x93
 951 01d4 01        		.uleb128 0x1
 952 01d5 61        		.byte	0x61
 953 01d6 93        		.byte	0x93
 954 01d7 01        		.uleb128 0x1
 955 01d8 02        		.byte	0x2
 956 01d9 80        		.byte	0x80
 957 01da 00        		.sleb128 0
 958 01db 00        		.byte	0
 959 01dc 0A        		.uleb128 0xa
 960 01dd 0000 0000 		.long	.LVL12
 961 01e1 AA05 0000 		.long	0x5aa
 962 01e5 0B        		.uleb128 0xb
 963 01e6 06        		.byte	0x6
 964 01e7 68        		.byte	0x68
 965 01e8 93        		.byte	0x93
 966 01e9 01        		.uleb128 0x1
 967 01ea 69        		.byte	0x69
 968 01eb 93        		.byte	0x93
 969 01ec 01        		.uleb128 0x1
 970 01ed 02        		.byte	0x2
 971 01ee 7E        		.byte	0x7e
 972 01ef 00        		.sleb128 0
 973 01f0 0B        		.uleb128 0xb
 974 01f1 06        		.byte	0x6
 975 01f2 64        		.byte	0x64
 976 01f3 93        		.byte	0x93
 977 01f4 01        		.uleb128 0x1
GAS LISTING C:\Users\Rando\AppData\Local\Temp\ccxyP7rG.s 			page 24


 978 01f5 65        		.byte	0x65
 979 01f6 93        		.byte	0x93
 980 01f7 01        		.uleb128 0x1
 981 01f8 02        		.byte	0x2
 982 01f9 8C        		.byte	0x8c
 983 01fa 00        		.sleb128 0
 984 01fb 0B        		.uleb128 0xb
 985 01fc 06        		.byte	0x6
 986 01fd 60        		.byte	0x60
 987 01fe 93        		.byte	0x93
 988 01ff 01        		.uleb128 0x1
 989 0200 61        		.byte	0x61
 990 0201 93        		.byte	0x93
 991 0202 01        		.uleb128 0x1
 992 0203 02        		.byte	0x2
 993 0204 80        		.byte	0x80
 994 0205 00        		.sleb128 0
 995 0206 00        		.byte	0
 996 0207 00        		.byte	0
 997 0208 00        		.byte	0
 998 0209 00        		.byte	0
 999 020a 12        		.uleb128 0x12
 1000 020b 02        		.byte	0x2
 1001 020c 3000 0000 		.long	0x30
 1002 0210 13        		.uleb128 0x13
 1003 0211 01        		.byte	0x1
 1004 0212 0000 0000 		.long	.LASF38
 1005 0216 01        		.byte	0x1
 1006 0217 22        		.byte	0x22
 1007 0218 4200 0000 		.long	0x42
 1008 021c 01        		.byte	0x1
 1009 021d 0000 0000 		.long	.LFB8
 1010 0221 0000 0000 		.long	.LFE8
 1011 0225 0000 0000 		.long	.LLST6
 1012 0229 01        		.byte	0x1
 1013 022a 0405 0000 		.long	0x504
 1014 022e 14        		.uleb128 0x14
 1015 022f 01        		.byte	0x1
 1016 0230 1E05 0000 		.long	0x51e
 1017 0234 0000 0000 		.long	.LLST7
 1018 0238 15        		.uleb128 0x15
 1019 0239 0000 0000 		.long	.LASF14
 1020 023d 01        		.byte	0x1
 1021 023e 3B        		.byte	0x3b
 1022 023f 0405 0000 		.long	0x504
 1023 0243 0000 0000 		.long	.LLST8
 1024 0247 16        		.uleb128 0x16
 1025 0248 0000 0000 		.long	.LASF15
 1026 024c 01        		.byte	0x1
 1027 024d 46        		.byte	0x46
 1028 024e 2305 0000 		.long	0x523
 1029 0252 02        		.byte	0x2
 1030 0253 8C        		.byte	0x8c
 1031 0254 01        		.sleb128 1
 1032 0255 17        		.uleb128 0x17
 1033 0256 7700 0000 		.long	0x77
 1034 025a 0000 0000 		.long	.LBB13
GAS LISTING C:\Users\Rando\AppData\Local\Temp\ccxyP7rG.s 			page 25


 1035 025e 0000 0000 		.long	.LBE13
 1036 0262 01        		.byte	0x1
 1037 0263 42        		.byte	0x42
 1038 0264 8E02 0000 		.long	0x28e
 1039 0268 18        		.uleb128 0x18
 1040 0269 8400 0000 		.long	0x84
 1041 026d 0000 0000 		.long	.LLST9
 1042 0271 0F        		.uleb128 0xf
 1043 0272 0000 0000 		.long	.LBB14
 1044 0276 0000 0000 		.long	.LBE14
 1045 027a 19        		.uleb128 0x19
 1046 027b 8F00 0000 		.long	0x8f
 1047 027f 0000 0000 		.long	.LLST10
 1048 0283 19        		.uleb128 0x19
 1049 0284 9A00 0000 		.long	0x9a
 1050 0288 0000 0000 		.long	.LLST11
 1051 028c 00        		.byte	0
 1052 028d 00        		.byte	0
 1053 028e 0D        		.uleb128 0xd
 1054 028f 0000 0000 		.long	.LBB15
 1055 0293 0000 0000 		.long	.LBE15
 1056 0297 A902 0000 		.long	0x2a9
 1057 029b 0E        		.uleb128 0xe
 1058 029c 6900      		.string	"i"
 1059 029e 01        		.byte	0x1
 1060 029f 47        		.byte	0x47
 1061 02a0 4200 0000 		.long	0x42
 1062 02a4 0000 0000 		.long	.LLST12
 1063 02a8 00        		.byte	0
 1064 02a9 0D        		.uleb128 0xd
 1065 02aa 0000 0000 		.long	.LBB16
 1066 02ae 0000 0000 		.long	.LBE16
 1067 02b2 1003 0000 		.long	0x310
 1068 02b6 0E        		.uleb128 0xe
 1069 02b7 7800      		.string	"x"
 1070 02b9 01        		.byte	0x1
 1071 02ba 5F        		.byte	0x5f
 1072 02bb 3000 0000 		.long	0x30
 1073 02bf 0000 0000 		.long	.LLST13
 1074 02c3 0F        		.uleb128 0xf
 1075 02c4 0000 0000 		.long	.LBB17
 1076 02c8 0000 0000 		.long	.LBE17
 1077 02cc 0E        		.uleb128 0xe
 1078 02cd 7900      		.string	"y"
 1079 02cf 01        		.byte	0x1
 1080 02d0 60        		.byte	0x60
 1081 02d1 3000 0000 		.long	0x30
 1082 02d5 0000 0000 		.long	.LLST14
 1083 02d9 0A        		.uleb128 0xa
 1084 02da 0000 0000 		.long	.LVL39
 1085 02de 9005 0000 		.long	0x590
 1086 02e2 0B        		.uleb128 0xb
 1087 02e3 06        		.byte	0x6
 1088 02e4 68        		.byte	0x68
 1089 02e5 93        		.byte	0x93
 1090 02e6 01        		.uleb128 0x1
 1091 02e7 69        		.byte	0x69
GAS LISTING C:\Users\Rando\AppData\Local\Temp\ccxyP7rG.s 			page 26


 1092 02e8 93        		.byte	0x93
 1093 02e9 01        		.uleb128 0x1
 1094 02ea 02        		.byte	0x2
 1095 02eb 7E        		.byte	0x7e
 1096 02ec 00        		.sleb128 0
 1097 02ed 0B        		.uleb128 0xb
 1098 02ee 06        		.byte	0x6
 1099 02ef 66        		.byte	0x66
 1100 02f0 93        		.byte	0x93
 1101 02f1 01        		.uleb128 0x1
 1102 02f2 67        		.byte	0x67
 1103 02f3 93        		.byte	0x93
 1104 02f4 01        		.uleb128 0x1
 1105 02f5 02        		.byte	0x2
 1106 02f6 7C        		.byte	0x7c
 1107 02f7 00        		.sleb128 0
 1108 02f8 0B        		.uleb128 0xb
 1109 02f9 06        		.byte	0x6
 1110 02fa 64        		.byte	0x64
 1111 02fb 93        		.byte	0x93
 1112 02fc 01        		.uleb128 0x1
 1113 02fd 65        		.byte	0x65
 1114 02fe 93        		.byte	0x93
 1115 02ff 01        		.uleb128 0x1
 1116 0300 02        		.byte	0x2
 1117 0301 80        		.byte	0x80
 1118 0302 00        		.sleb128 0
 1119 0303 0B        		.uleb128 0xb
 1120 0304 06        		.byte	0x6
 1121 0305 62        		.byte	0x62
 1122 0306 93        		.byte	0x93
 1123 0307 01        		.uleb128 0x1
 1124 0308 63        		.byte	0x63
 1125 0309 93        		.byte	0x93
 1126 030a 01        		.uleb128 0x1
 1127 030b 01        		.byte	0x1
 1128 030c 30        		.byte	0x30
 1129 030d 00        		.byte	0
 1130 030e 00        		.byte	0
 1131 030f 00        		.byte	0
 1132 0310 0D        		.uleb128 0xd
 1133 0311 0000 0000 		.long	.LBB18
 1134 0315 0000 0000 		.long	.LBE18
 1135 0319 7703 0000 		.long	0x377
 1136 031d 0E        		.uleb128 0xe
 1137 031e 7800      		.string	"x"
 1138 0320 01        		.byte	0x1
 1139 0321 57        		.byte	0x57
 1140 0322 3000 0000 		.long	0x30
 1141 0326 0000 0000 		.long	.LLST15
 1142 032a 0F        		.uleb128 0xf
 1143 032b 0000 0000 		.long	.LBB19
 1144 032f 0000 0000 		.long	.LBE19
 1145 0333 0E        		.uleb128 0xe
 1146 0334 7900      		.string	"y"
 1147 0336 01        		.byte	0x1
 1148 0337 58        		.byte	0x58
GAS LISTING C:\Users\Rando\AppData\Local\Temp\ccxyP7rG.s 			page 27


 1149 0338 3000 0000 		.long	0x30
 1150 033c 0000 0000 		.long	.LLST16
 1151 0340 0A        		.uleb128 0xa
 1152 0341 0000 0000 		.long	.LVL49
 1153 0345 9005 0000 		.long	0x590
 1154 0349 0B        		.uleb128 0xb
 1155 034a 06        		.byte	0x6
 1156 034b 68        		.byte	0x68
 1157 034c 93        		.byte	0x93
 1158 034d 01        		.uleb128 0x1
 1159 034e 69        		.byte	0x69
 1160 034f 93        		.byte	0x93
 1161 0350 01        		.uleb128 0x1
 1162 0351 02        		.byte	0x2
 1163 0352 7E        		.byte	0x7e
 1164 0353 00        		.sleb128 0
 1165 0354 0B        		.uleb128 0xb
 1166 0355 06        		.byte	0x6
 1167 0356 66        		.byte	0x66
 1168 0357 93        		.byte	0x93
 1169 0358 01        		.uleb128 0x1
 1170 0359 67        		.byte	0x67
 1171 035a 93        		.byte	0x93
 1172 035b 01        		.uleb128 0x1
 1173 035c 02        		.byte	0x2
 1174 035d 7C        		.byte	0x7c
 1175 035e 00        		.sleb128 0
 1176 035f 0B        		.uleb128 0xb
 1177 0360 06        		.byte	0x6
 1178 0361 64        		.byte	0x64
 1179 0362 93        		.byte	0x93
 1180 0363 01        		.uleb128 0x1
 1181 0364 65        		.byte	0x65
 1182 0365 93        		.byte	0x93
 1183 0366 01        		.uleb128 0x1
 1184 0367 02        		.byte	0x2
 1185 0368 80        		.byte	0x80
 1186 0369 00        		.sleb128 0
 1187 036a 0B        		.uleb128 0xb
 1188 036b 06        		.byte	0x6
 1189 036c 62        		.byte	0x62
 1190 036d 93        		.byte	0x93
 1191 036e 01        		.uleb128 0x1
 1192 036f 63        		.byte	0x63
 1193 0370 93        		.byte	0x93
 1194 0371 01        		.uleb128 0x1
 1195 0372 01        		.byte	0x1
 1196 0373 30        		.byte	0x30
 1197 0374 00        		.byte	0
 1198 0375 00        		.byte	0
 1199 0376 00        		.byte	0
 1200 0377 1A        		.uleb128 0x1a
 1201 0378 0000 0000 		.long	.LVL16
 1202 037c B705 0000 		.long	0x5b7
 1203 0380 1A        		.uleb128 0x1a
 1204 0381 0000 0000 		.long	.LVL17
 1205 0385 C405 0000 		.long	0x5c4
GAS LISTING C:\Users\Rando\AppData\Local\Temp\ccxyP7rG.s 			page 28


 1206 0389 1A        		.uleb128 0x1a
 1207 038a 0000 0000 		.long	.LVL18
 1208 038e D105 0000 		.long	0x5d1
 1209 0392 11        		.uleb128 0x11
 1210 0393 0000 0000 		.long	.LVL22
 1211 0397 F500 0000 		.long	0xf5
 1212 039b AB03 0000 		.long	0x3ab
 1213 039f 0B        		.uleb128 0xb
 1214 03a0 06        		.byte	0x6
 1215 03a1 68        		.byte	0x68
 1216 03a2 93        		.byte	0x93
 1217 03a3 01        		.uleb128 0x1
 1218 03a4 69        		.byte	0x69
 1219 03a5 93        		.byte	0x93
 1220 03a6 01        		.uleb128 0x1
 1221 03a7 02        		.byte	0x2
 1222 03a8 7E        		.byte	0x7e
 1223 03a9 00        		.sleb128 0
 1224 03aa 00        		.byte	0
 1225 03ab 11        		.uleb128 0x11
 1226 03ac 0000 0000 		.long	.LVL23
 1227 03b0 DE05 0000 		.long	0x5de
 1228 03b4 BE03 0000 		.long	0x3be
 1229 03b8 0B        		.uleb128 0xb
 1230 03b9 01        		.byte	0x1
 1231 03ba 68        		.byte	0x68
 1232 03bb 01        		.byte	0x1
 1233 03bc 42        		.byte	0x42
 1234 03bd 00        		.byte	0
 1235 03be 11        		.uleb128 0x11
 1236 03bf 0000 0000 		.long	.LVL31
 1237 03c3 EB05 0000 		.long	0x5eb
 1238 03c7 ED03 0000 		.long	0x3ed
 1239 03cb 0B        		.uleb128 0xb
 1240 03cc 01        		.byte	0x1
 1241 03cd 68        		.byte	0x68
 1242 03ce 01        		.byte	0x1
 1243 03cf 35        		.byte	0x35
 1244 03d0 0B        		.uleb128 0xb
 1245 03d1 06        		.byte	0x6
 1246 03d2 66        		.byte	0x66
 1247 03d3 93        		.byte	0x93
 1248 03d4 01        		.uleb128 0x1
 1249 03d5 67        		.byte	0x67
 1250 03d6 93        		.byte	0x93
 1251 03d7 01        		.uleb128 0x1
 1252 03d8 02        		.byte	0x2
 1253 03d9 8C        		.byte	0x8c
 1254 03da 01        		.sleb128 1
 1255 03db 0B        		.uleb128 0xb
 1256 03dc 01        		.byte	0x1
 1257 03dd 64        		.byte	0x64
 1258 03de 02        		.byte	0x2
 1259 03df 08        		.byte	0x8
 1260 03e0 6E        		.byte	0x6e
 1261 03e1 0B        		.uleb128 0xb
 1262 03e2 01        		.byte	0x1
GAS LISTING C:\Users\Rando\AppData\Local\Temp\ccxyP7rG.s 			page 29


 1263 03e3 62        		.byte	0x62
 1264 03e4 01        		.byte	0x1
 1265 03e5 3A        		.byte	0x3a
 1266 03e6 0B        		.uleb128 0xb
 1267 03e7 01        		.byte	0x1
 1268 03e8 60        		.byte	0x60
 1269 03e9 02        		.byte	0x2
 1270 03ea 80        		.byte	0x80
 1271 03eb 00        		.sleb128 0
 1272 03ec 00        		.byte	0
 1273 03ed 11        		.uleb128 0x11
 1274 03ee 0000 0000 		.long	.LVL32
 1275 03f2 8305 0000 		.long	0x583
 1276 03f6 1404 0000 		.long	0x414
 1277 03fa 0B        		.uleb128 0xb
 1278 03fb 01        		.byte	0x1
 1279 03fc 68        		.byte	0x68
 1280 03fd 02        		.byte	0x2
 1281 03fe 08        		.byte	0x8
 1282 03ff 61        		.byte	0x61
 1283 0400 0B        		.uleb128 0xb
 1284 0401 06        		.byte	0x6
 1285 0402 66        		.byte	0x66
 1286 0403 93        		.byte	0x93
 1287 0404 01        		.uleb128 0x1
 1288 0405 67        		.byte	0x67
 1289 0406 93        		.byte	0x93
 1290 0407 01        		.uleb128 0x1
 1291 0408 05        		.byte	0x5
 1292 0409 03        		.byte	0x3
 1293 040a 0000 0000 		.long	data
 1294 040e 0B        		.uleb128 0xb
 1295 040f 01        		.byte	0x1
 1296 0410 64        		.byte	0x64
 1297 0411 01        		.byte	0x1
 1298 0412 3A        		.byte	0x3a
 1299 0413 00        		.byte	0
 1300 0414 1A        		.uleb128 0x1a
 1301 0415 0000 0000 		.long	.LVL33
 1302 0419 F805 0000 		.long	0x5f8
 1303 041d 1A        		.uleb128 0x1a
 1304 041e 0000 0000 		.long	.LVL34
 1305 0422 F805 0000 		.long	0x5f8
 1306 0426 11        		.uleb128 0x11
 1307 0427 0000 0000 		.long	.LVL35
 1308 042b 9D05 0000 		.long	0x59d
 1309 042f 4A04 0000 		.long	0x44a
 1310 0433 0B        		.uleb128 0xb
 1311 0434 06        		.byte	0x6
 1312 0435 68        		.byte	0x68
 1313 0436 93        		.byte	0x93
 1314 0437 01        		.uleb128 0x1
 1315 0438 69        		.byte	0x69
 1316 0439 93        		.byte	0x93
 1317 043a 01        		.uleb128 0x1
 1318 043b 02        		.byte	0x2
 1319 043c 7E        		.byte	0x7e
GAS LISTING C:\Users\Rando\AppData\Local\Temp\ccxyP7rG.s 			page 30


 1320 043d 00        		.sleb128 0
 1321 043e 0B        		.uleb128 0xb
 1322 043f 06        		.byte	0x6
 1323 0440 60        		.byte	0x60
 1324 0441 93        		.byte	0x93
 1325 0442 01        		.uleb128 0x1
 1326 0443 61        		.byte	0x61
 1327 0444 93        		.byte	0x93
 1328 0445 01        		.uleb128 0x1
 1329 0446 02        		.byte	0x2
 1330 0447 80        		.byte	0x80
 1331 0448 00        		.sleb128 0
 1332 0449 00        		.byte	0
 1333 044a 11        		.uleb128 0x11
 1334 044b 0000 0000 		.long	.LVL43
 1335 044f 9005 0000 		.long	0x590
 1336 0453 6D04 0000 		.long	0x46d
 1337 0457 0B        		.uleb128 0xb
 1338 0458 06        		.byte	0x6
 1339 0459 68        		.byte	0x68
 1340 045a 93        		.byte	0x93
 1341 045b 01        		.uleb128 0x1
 1342 045c 69        		.byte	0x69
 1343 045d 93        		.byte	0x93
 1344 045e 01        		.uleb128 0x1
 1345 045f 02        		.byte	0x2
 1346 0460 7E        		.byte	0x7e
 1347 0461 00        		.sleb128 0
 1348 0462 0B        		.uleb128 0xb
 1349 0463 06        		.byte	0x6
 1350 0464 62        		.byte	0x62
 1351 0465 93        		.byte	0x93
 1352 0466 01        		.uleb128 0x1
 1353 0467 63        		.byte	0x63
 1354 0468 93        		.byte	0x93
 1355 0469 01        		.uleb128 0x1
 1356 046a 01        		.byte	0x1
 1357 046b 31        		.byte	0x31
 1358 046c 00        		.byte	0
 1359 046d 11        		.uleb128 0x11
 1360 046e 0000 0000 		.long	.LVL44
 1361 0472 9005 0000 		.long	0x590
 1362 0476 9004 0000 		.long	0x490
 1363 047a 0B        		.uleb128 0xb
 1364 047b 06        		.byte	0x6
 1365 047c 68        		.byte	0x68
 1366 047d 93        		.byte	0x93
 1367 047e 01        		.uleb128 0x1
 1368 047f 69        		.byte	0x69
 1369 0480 93        		.byte	0x93
 1370 0481 01        		.uleb128 0x1
 1371 0482 02        		.byte	0x2
 1372 0483 7E        		.byte	0x7e
 1373 0484 00        		.sleb128 0
 1374 0485 0B        		.uleb128 0xb
 1375 0486 06        		.byte	0x6
 1376 0487 62        		.byte	0x62
GAS LISTING C:\Users\Rando\AppData\Local\Temp\ccxyP7rG.s 			page 31


 1377 0488 93        		.byte	0x93
 1378 0489 01        		.uleb128 0x1
 1379 048a 63        		.byte	0x63
 1380 048b 93        		.byte	0x93
 1381 048c 01        		.uleb128 0x1
 1382 048d 01        		.byte	0x1
 1383 048e 30        		.byte	0x30
 1384 048f 00        		.byte	0
 1385 0490 11        		.uleb128 0x11
 1386 0491 0000 0000 		.long	.LVL45
 1387 0495 AA05 0000 		.long	0x5aa
 1388 0499 B404 0000 		.long	0x4b4
 1389 049d 0B        		.uleb128 0xb
 1390 049e 06        		.byte	0x6
 1391 049f 68        		.byte	0x68
 1392 04a0 93        		.byte	0x93
 1393 04a1 01        		.uleb128 0x1
 1394 04a2 69        		.byte	0x69
 1395 04a3 93        		.byte	0x93
 1396 04a4 01        		.uleb128 0x1
 1397 04a5 02        		.byte	0x2
 1398 04a6 7E        		.byte	0x7e
 1399 04a7 00        		.sleb128 0
 1400 04a8 0B        		.uleb128 0xb
 1401 04a9 06        		.byte	0x6
 1402 04aa 60        		.byte	0x60
 1403 04ab 93        		.byte	0x93
 1404 04ac 01        		.uleb128 0x1
 1405 04ad 61        		.byte	0x61
 1406 04ae 93        		.byte	0x93
 1407 04af 01        		.uleb128 0x1
 1408 04b0 02        		.byte	0x2
 1409 04b1 80        		.byte	0x80
 1410 04b2 00        		.sleb128 0
 1411 04b3 00        		.byte	0
 1412 04b4 11        		.uleb128 0x11
 1413 04b5 0000 0000 		.long	.LVL53
 1414 04b9 DE05 0000 		.long	0x5de
 1415 04bd C704 0000 		.long	0x4c7
 1416 04c1 0B        		.uleb128 0xb
 1417 04c2 01        		.byte	0x1
 1418 04c3 68        		.byte	0x68
 1419 04c4 01        		.byte	0x1
 1420 04c5 42        		.byte	0x42
 1421 04c6 00        		.byte	0
 1422 04c7 11        		.uleb128 0x11
 1423 04c8 0000 0000 		.long	.LVL54
 1424 04cc F500 0000 		.long	0xf5
 1425 04d0 E004 0000 		.long	0x4e0
 1426 04d4 0B        		.uleb128 0xb
 1427 04d5 06        		.byte	0x6
 1428 04d6 68        		.byte	0x68
 1429 04d7 93        		.byte	0x93
 1430 04d8 01        		.uleb128 0x1
 1431 04d9 69        		.byte	0x69
 1432 04da 93        		.byte	0x93
 1433 04db 01        		.uleb128 0x1
GAS LISTING C:\Users\Rando\AppData\Local\Temp\ccxyP7rG.s 			page 32


 1434 04dc 02        		.byte	0x2
 1435 04dd 7E        		.byte	0x7e
 1436 04de 00        		.sleb128 0
 1437 04df 00        		.byte	0
 1438 04e0 11        		.uleb128 0x11
 1439 04e1 0000 0000 		.long	.LVL56
 1440 04e5 0506 0000 		.long	0x605
 1441 04e9 FA04 0000 		.long	0x4fa
 1442 04ed 0B        		.uleb128 0xb
 1443 04ee 06        		.byte	0x6
 1444 04ef 68        		.byte	0x68
 1445 04f0 93        		.byte	0x93
 1446 04f1 01        		.uleb128 0x1
 1447 04f2 69        		.byte	0x69
 1448 04f3 93        		.byte	0x93
 1449 04f4 01        		.uleb128 0x1
 1450 04f5 03        		.byte	0x3
 1451 04f6 0A        		.byte	0xa
 1452 04f7 BC02      		.word	0x2bc
 1453 04f9 00        		.byte	0
 1454 04fa 1A        		.uleb128 0x1a
 1455 04fb 0000 0000 		.long	.LVL57
 1456 04ff 1206 0000 		.long	0x612
 1457 0503 00        		.byte	0
 1458 0504 1B        		.uleb128 0x1b
 1459 0505 3B00 0000 		.long	0x3b
 1460 0509 1705 0000 		.long	0x517
 1461 050d 1C        		.uleb128 0x1c
 1462 050e 1705 0000 		.long	0x517
 1463 0512 2E02 0000 		.long	0x22e
 1464 0516 00        		.byte	0
 1465 0517 02        		.uleb128 0x2
 1466 0518 02        		.byte	0x2
 1467 0519 07        		.byte	0x7
 1468 051a 0000 0000 		.long	.LASF16
 1469 051e 1D        		.uleb128 0x1d
 1470 051f 1705 0000 		.long	0x517
 1471 0523 1B        		.uleb128 0x1b
 1472 0524 3000 0000 		.long	0x30
 1473 0528 3305 0000 		.long	0x533
 1474 052c 1E        		.uleb128 0x1e
 1475 052d 1705 0000 		.long	0x517
 1476 0531 04        		.byte	0x4
 1477 0532 00        		.byte	0
 1478 0533 1F        		.uleb128 0x1f
 1479 0534 0000 0000 		.long	.LASF17
 1480 0538 04        		.byte	0x4
 1481 0539 31        		.byte	0x31
 1482 053a 3000 0000 		.long	0x30
 1483 053e 01        		.byte	0x1
 1484 053f 05        		.byte	0x5
 1485 0540 03        		.byte	0x3
 1486 0541 0000 0000 		.long	epdwidth
 1487 0545 1B        		.uleb128 0x1b
 1488 0546 5505 0000 		.long	0x555
 1489 054a 5505 0000 		.long	0x555
 1490 054e 1E        		.uleb128 0x1e
GAS LISTING C:\Users\Rando\AppData\Local\Temp\ccxyP7rG.s 			page 33


 1491 054f 1705 0000 		.long	0x517
 1492 0553 09        		.byte	0x9
 1493 0554 00        		.byte	0
 1494 0555 20        		.uleb128 0x20
 1495 0556 3000 0000 		.long	0x30
 1496 055a 1F        		.uleb128 0x1f
 1497 055b 0000 0000 		.long	.LASF18
 1498 055f 01        		.byte	0x1
 1499 0560 0A        		.byte	0xa
 1500 0561 6C05 0000 		.long	0x56c
 1501 0565 01        		.byte	0x1
 1502 0566 05        		.byte	0x5
 1503 0567 03        		.byte	0x3
 1504 0568 0000 0000 		.long	data
 1505 056c 20        		.uleb128 0x20
 1506 056d 4505 0000 		.long	0x545
 1507 0571 1F        		.uleb128 0x1f
 1508 0572 0000 0000 		.long	.LASF19
 1509 0576 01        		.byte	0x1
 1510 0577 0B        		.byte	0xb
 1511 0578 5505 0000 		.long	0x555
 1512 057c 01        		.byte	0x1
 1513 057d 05        		.byte	0x5
 1514 057e 03        		.byte	0x3
 1515 057f 0000 0000 		.long	data_available
 1516 0583 21        		.uleb128 0x21
 1517 0584 01        		.byte	0x1
 1518 0585 01        		.byte	0x1
 1519 0586 0000 0000 		.long	.LASF20
 1520 058a 0000 0000 		.long	.LASF20
 1521 058e 05        		.byte	0x5
 1522 058f 79        		.byte	0x79
 1523 0590 21        		.uleb128 0x21
 1524 0591 01        		.byte	0x1
 1525 0592 01        		.byte	0x1
 1526 0593 0000 0000 		.long	.LASF21
 1527 0597 0000 0000 		.long	.LASF21
 1528 059b 04        		.byte	0x4
 1529 059c 3B        		.byte	0x3b
 1530 059d 21        		.uleb128 0x21
 1531 059e 01        		.byte	0x1
 1532 059f 01        		.byte	0x1
 1533 05a0 0000 0000 		.long	.LASF22
 1534 05a4 0000 0000 		.long	.LASF22
 1535 05a8 04        		.byte	0x4
 1536 05a9 3D        		.byte	0x3d
 1537 05aa 21        		.uleb128 0x21
 1538 05ab 01        		.byte	0x1
 1539 05ac 01        		.byte	0x1
 1540 05ad 0000 0000 		.long	.LASF23
 1541 05b1 0000 0000 		.long	.LASF23
 1542 05b5 04        		.byte	0x4
 1543 05b6 3C        		.byte	0x3c
 1544 05b7 21        		.uleb128 0x21
 1545 05b8 01        		.byte	0x1
 1546 05b9 01        		.byte	0x1
 1547 05ba 0000 0000 		.long	.LASF24
GAS LISTING C:\Users\Rando\AppData\Local\Temp\ccxyP7rG.s 			page 34


 1548 05be 0000 0000 		.long	.LASF24
 1549 05c2 06        		.byte	0x6
 1550 05c3 09        		.byte	0x9
 1551 05c4 21        		.uleb128 0x21
 1552 05c5 01        		.byte	0x1
 1553 05c6 01        		.byte	0x1
 1554 05c7 0000 0000 		.long	.LASF25
 1555 05cb 0000 0000 		.long	.LASF25
 1556 05cf 07        		.byte	0x7
 1557 05d0 05        		.byte	0x5
 1558 05d1 21        		.uleb128 0x21
 1559 05d2 01        		.byte	0x1
 1560 05d3 01        		.byte	0x1
 1561 05d4 0000 0000 		.long	.LASF26
 1562 05d8 0000 0000 		.long	.LASF26
 1563 05dc 04        		.byte	0x4
 1564 05dd 33        		.byte	0x33
 1565 05de 21        		.uleb128 0x21
 1566 05df 01        		.byte	0x1
 1567 05e0 01        		.byte	0x1
 1568 05e1 0000 0000 		.long	.LASF27
 1569 05e5 0000 0000 		.long	.LASF27
 1570 05e9 04        		.byte	0x4
 1571 05ea 37        		.byte	0x37
 1572 05eb 21        		.uleb128 0x21
 1573 05ec 01        		.byte	0x1
 1574 05ed 01        		.byte	0x1
 1575 05ee 0000 0000 		.long	.LASF28
 1576 05f2 0000 0000 		.long	.LASF28
 1577 05f6 05        		.byte	0x5
 1578 05f7 77        		.byte	0x77
 1579 05f8 21        		.uleb128 0x21
 1580 05f9 01        		.byte	0x1
 1581 05fa 01        		.byte	0x1
 1582 05fb 0000 0000 		.long	.LASF29
 1583 05ff 0000 0000 		.long	.LASF29
 1584 0603 05        		.byte	0x5
 1585 0604 7A        		.byte	0x7a
 1586 0605 21        		.uleb128 0x21
 1587 0606 01        		.byte	0x1
 1588 0607 01        		.byte	0x1
 1589 0608 0000 0000 		.long	.LASF30
 1590 060c 0000 0000 		.long	.LASF30
 1591 0610 06        		.byte	0x6
 1592 0611 0A        		.byte	0xa
 1593 0612 21        		.uleb128 0x21
 1594 0613 01        		.byte	0x1
 1595 0614 01        		.byte	0x1
 1596 0615 0000 0000 		.long	.LASF31
 1597 0619 0000 0000 		.long	.LASF31
 1598 061d 06        		.byte	0x6
 1599 061e 0B        		.byte	0xb
 1600 061f 00        		.byte	0
 1601               		.section	.debug_abbrev,"",@progbits
 1602               	.Ldebug_abbrev0:
 1603 0000 01        		.uleb128 0x1
 1604 0001 11        		.uleb128 0x11
GAS LISTING C:\Users\Rando\AppData\Local\Temp\ccxyP7rG.s 			page 35


 1605 0002 01        		.byte	0x1
 1606 0003 25        		.uleb128 0x25
 1607 0004 0E        		.uleb128 0xe
 1608 0005 13        		.uleb128 0x13
 1609 0006 0B        		.uleb128 0xb
 1610 0007 03        		.uleb128 0x3
 1611 0008 0E        		.uleb128 0xe
 1612 0009 1B        		.uleb128 0x1b
 1613 000a 0E        		.uleb128 0xe
 1614 000b 55        		.uleb128 0x55
 1615 000c 06        		.uleb128 0x6
 1616 000d 11        		.uleb128 0x11
 1617 000e 01        		.uleb128 0x1
 1618 000f 52        		.uleb128 0x52
 1619 0010 01        		.uleb128 0x1
 1620 0011 10        		.uleb128 0x10
 1621 0012 06        		.uleb128 0x6
 1622 0013 00        		.byte	0
 1623 0014 00        		.byte	0
 1624 0015 02        		.uleb128 0x2
 1625 0016 24        		.uleb128 0x24
 1626 0017 00        		.byte	0
 1627 0018 0B        		.uleb128 0xb
 1628 0019 0B        		.uleb128 0xb
 1629 001a 3E        		.uleb128 0x3e
 1630 001b 0B        		.uleb128 0xb
 1631 001c 03        		.uleb128 0x3
 1632 001d 0E        		.uleb128 0xe
 1633 001e 00        		.byte	0
 1634 001f 00        		.byte	0
 1635 0020 03        		.uleb128 0x3
 1636 0021 16        		.uleb128 0x16
 1637 0022 00        		.byte	0
 1638 0023 03        		.uleb128 0x3
 1639 0024 0E        		.uleb128 0xe
 1640 0025 3A        		.uleb128 0x3a
 1641 0026 0B        		.uleb128 0xb
 1642 0027 3B        		.uleb128 0x3b
 1643 0028 0B        		.uleb128 0xb
 1644 0029 49        		.uleb128 0x49
 1645 002a 13        		.uleb128 0x13
 1646 002b 00        		.byte	0
 1647 002c 00        		.byte	0
 1648 002d 04        		.uleb128 0x4
 1649 002e 24        		.uleb128 0x24
 1650 002f 00        		.byte	0
 1651 0030 0B        		.uleb128 0xb
 1652 0031 0B        		.uleb128 0xb
 1653 0032 3E        		.uleb128 0x3e
 1654 0033 0B        		.uleb128 0xb
 1655 0034 03        		.uleb128 0x3
 1656 0035 08        		.uleb128 0x8
 1657 0036 00        		.byte	0
 1658 0037 00        		.byte	0
 1659 0038 05        		.uleb128 0x5
 1660 0039 2E        		.uleb128 0x2e
 1661 003a 01        		.byte	0x1
GAS LISTING C:\Users\Rando\AppData\Local\Temp\ccxyP7rG.s 			page 36


 1662 003b 03        		.uleb128 0x3
 1663 003c 0E        		.uleb128 0xe
 1664 003d 3A        		.uleb128 0x3a
 1665 003e 0B        		.uleb128 0xb
 1666 003f 3B        		.uleb128 0x3b
 1667 0040 0B        		.uleb128 0xb
 1668 0041 27        		.uleb128 0x27
 1669 0042 0C        		.uleb128 0xc
 1670 0043 20        		.uleb128 0x20
 1671 0044 0B        		.uleb128 0xb
 1672 0045 01        		.uleb128 0x1
 1673 0046 13        		.uleb128 0x13
 1674 0047 00        		.byte	0
 1675 0048 00        		.byte	0
 1676 0049 06        		.uleb128 0x6
 1677 004a 05        		.uleb128 0x5
 1678 004b 00        		.byte	0
 1679 004c 03        		.uleb128 0x3
 1680 004d 0E        		.uleb128 0xe
 1681 004e 3A        		.uleb128 0x3a
 1682 004f 0B        		.uleb128 0xb
 1683 0050 3B        		.uleb128 0x3b
 1684 0051 0B        		.uleb128 0xb
 1685 0052 49        		.uleb128 0x49
 1686 0053 13        		.uleb128 0x13
 1687 0054 00        		.byte	0
 1688 0055 00        		.byte	0
 1689 0056 07        		.uleb128 0x7
 1690 0057 34        		.uleb128 0x34
 1691 0058 00        		.byte	0
 1692 0059 03        		.uleb128 0x3
 1693 005a 0E        		.uleb128 0xe
 1694 005b 3A        		.uleb128 0x3a
 1695 005c 0B        		.uleb128 0xb
 1696 005d 3B        		.uleb128 0x3b
 1697 005e 0B        		.uleb128 0xb
 1698 005f 49        		.uleb128 0x49
 1699 0060 13        		.uleb128 0x13
 1700 0061 00        		.byte	0
 1701 0062 00        		.byte	0
 1702 0063 08        		.uleb128 0x8
 1703 0064 2E        		.uleb128 0x2e
 1704 0065 00        		.byte	0
 1705 0066 3F        		.uleb128 0x3f
 1706 0067 0C        		.uleb128 0xc
 1707 0068 03        		.uleb128 0x3
 1708 0069 0E        		.uleb128 0xe
 1709 006a 3A        		.uleb128 0x3a
 1710 006b 0B        		.uleb128 0xb
 1711 006c 3B        		.uleb128 0x3b
 1712 006d 0B        		.uleb128 0xb
 1713 006e 27        		.uleb128 0x27
 1714 006f 0C        		.uleb128 0xc
 1715 0070 20        		.uleb128 0x20
 1716 0071 0B        		.uleb128 0xb
 1717 0072 00        		.byte	0
 1718 0073 00        		.byte	0
GAS LISTING C:\Users\Rando\AppData\Local\Temp\ccxyP7rG.s 			page 37


 1719 0074 09        		.uleb128 0x9
 1720 0075 2E        		.uleb128 0x2e
 1721 0076 01        		.byte	0x1
 1722 0077 3F        		.uleb128 0x3f
 1723 0078 0C        		.uleb128 0xc
 1724 0079 03        		.uleb128 0x3
 1725 007a 0E        		.uleb128 0xe
 1726 007b 3A        		.uleb128 0x3a
 1727 007c 0B        		.uleb128 0xb
 1728 007d 3B        		.uleb128 0x3b
 1729 007e 0B        		.uleb128 0xb
 1730 007f 27        		.uleb128 0x27
 1731 0080 0C        		.uleb128 0xc
 1732 0081 11        		.uleb128 0x11
 1733 0082 01        		.uleb128 0x1
 1734 0083 12        		.uleb128 0x12
 1735 0084 01        		.uleb128 0x1
 1736 0085 40        		.uleb128 0x40
 1737 0086 06        		.uleb128 0x6
 1738 0087 9742      		.uleb128 0x2117
 1739 0089 0C        		.uleb128 0xc
 1740 008a 01        		.uleb128 0x1
 1741 008b 13        		.uleb128 0x13
 1742 008c 00        		.byte	0
 1743 008d 00        		.byte	0
 1744 008e 0A        		.uleb128 0xa
 1745 008f 8982 01   		.uleb128 0x4109
 1746 0092 01        		.byte	0x1
 1747 0093 11        		.uleb128 0x11
 1748 0094 01        		.uleb128 0x1
 1749 0095 31        		.uleb128 0x31
 1750 0096 13        		.uleb128 0x13
 1751 0097 00        		.byte	0
 1752 0098 00        		.byte	0
 1753 0099 0B        		.uleb128 0xb
 1754 009a 8A82 01   		.uleb128 0x410a
 1755 009d 00        		.byte	0
 1756 009e 02        		.uleb128 0x2
 1757 009f 0A        		.uleb128 0xa
 1758 00a0 9142      		.uleb128 0x2111
 1759 00a2 0A        		.uleb128 0xa
 1760 00a3 00        		.byte	0
 1761 00a4 00        		.byte	0
 1762 00a5 0C        		.uleb128 0xc
 1763 00a6 05        		.uleb128 0x5
 1764 00a7 00        		.byte	0
 1765 00a8 03        		.uleb128 0x3
 1766 00a9 0E        		.uleb128 0xe
 1767 00aa 3A        		.uleb128 0x3a
 1768 00ab 0B        		.uleb128 0xb
 1769 00ac 3B        		.uleb128 0x3b
 1770 00ad 0B        		.uleb128 0xb
 1771 00ae 49        		.uleb128 0x49
 1772 00af 13        		.uleb128 0x13
 1773 00b0 02        		.uleb128 0x2
 1774 00b1 06        		.uleb128 0x6
 1775 00b2 00        		.byte	0
GAS LISTING C:\Users\Rando\AppData\Local\Temp\ccxyP7rG.s 			page 38


 1776 00b3 00        		.byte	0
 1777 00b4 0D        		.uleb128 0xd
 1778 00b5 0B        		.uleb128 0xb
 1779 00b6 01        		.byte	0x1
 1780 00b7 11        		.uleb128 0x11
 1781 00b8 01        		.uleb128 0x1
 1782 00b9 12        		.uleb128 0x12
 1783 00ba 01        		.uleb128 0x1
 1784 00bb 01        		.uleb128 0x1
 1785 00bc 13        		.uleb128 0x13
 1786 00bd 00        		.byte	0
 1787 00be 00        		.byte	0
 1788 00bf 0E        		.uleb128 0xe
 1789 00c0 34        		.uleb128 0x34
 1790 00c1 00        		.byte	0
 1791 00c2 03        		.uleb128 0x3
 1792 00c3 08        		.uleb128 0x8
 1793 00c4 3A        		.uleb128 0x3a
 1794 00c5 0B        		.uleb128 0xb
 1795 00c6 3B        		.uleb128 0x3b
 1796 00c7 0B        		.uleb128 0xb
 1797 00c8 49        		.uleb128 0x49
 1798 00c9 13        		.uleb128 0x13
 1799 00ca 02        		.uleb128 0x2
 1800 00cb 06        		.uleb128 0x6
 1801 00cc 00        		.byte	0
 1802 00cd 00        		.byte	0
 1803 00ce 0F        		.uleb128 0xf
 1804 00cf 0B        		.uleb128 0xb
 1805 00d0 01        		.byte	0x1
 1806 00d1 11        		.uleb128 0x11
 1807 00d2 01        		.uleb128 0x1
 1808 00d3 12        		.uleb128 0x12
 1809 00d4 01        		.uleb128 0x1
 1810 00d5 00        		.byte	0
 1811 00d6 00        		.byte	0
 1812 00d7 10        		.uleb128 0x10
 1813 00d8 34        		.uleb128 0x34
 1814 00d9 00        		.byte	0
 1815 00da 03        		.uleb128 0x3
 1816 00db 08        		.uleb128 0x8
 1817 00dc 3A        		.uleb128 0x3a
 1818 00dd 0B        		.uleb128 0xb
 1819 00de 3B        		.uleb128 0x3b
 1820 00df 0B        		.uleb128 0xb
 1821 00e0 49        		.uleb128 0x49
 1822 00e1 13        		.uleb128 0x13
 1823 00e2 00        		.byte	0
 1824 00e3 00        		.byte	0
 1825 00e4 11        		.uleb128 0x11
 1826 00e5 8982 01   		.uleb128 0x4109
 1827 00e8 01        		.byte	0x1
 1828 00e9 11        		.uleb128 0x11
 1829 00ea 01        		.uleb128 0x1
 1830 00eb 31        		.uleb128 0x31
 1831 00ec 13        		.uleb128 0x13
 1832 00ed 01        		.uleb128 0x1
GAS LISTING C:\Users\Rando\AppData\Local\Temp\ccxyP7rG.s 			page 39


 1833 00ee 13        		.uleb128 0x13
 1834 00ef 00        		.byte	0
 1835 00f0 00        		.byte	0
 1836 00f1 12        		.uleb128 0x12
 1837 00f2 0F        		.uleb128 0xf
 1838 00f3 00        		.byte	0
 1839 00f4 0B        		.uleb128 0xb
 1840 00f5 0B        		.uleb128 0xb
 1841 00f6 49        		.uleb128 0x49
 1842 00f7 13        		.uleb128 0x13
 1843 00f8 00        		.byte	0
 1844 00f9 00        		.byte	0
 1845 00fa 13        		.uleb128 0x13
 1846 00fb 2E        		.uleb128 0x2e
 1847 00fc 01        		.byte	0x1
 1848 00fd 3F        		.uleb128 0x3f
 1849 00fe 0C        		.uleb128 0xc
 1850 00ff 03        		.uleb128 0x3
 1851 0100 0E        		.uleb128 0xe
 1852 0101 3A        		.uleb128 0x3a
 1853 0102 0B        		.uleb128 0xb
 1854 0103 3B        		.uleb128 0x3b
 1855 0104 0B        		.uleb128 0xb
 1856 0105 49        		.uleb128 0x49
 1857 0106 13        		.uleb128 0x13
 1858 0107 8701      		.uleb128 0x87
 1859 0109 0C        		.uleb128 0xc
 1860 010a 11        		.uleb128 0x11
 1861 010b 01        		.uleb128 0x1
 1862 010c 12        		.uleb128 0x12
 1863 010d 01        		.uleb128 0x1
 1864 010e 40        		.uleb128 0x40
 1865 010f 06        		.uleb128 0x6
 1866 0110 9742      		.uleb128 0x2117
 1867 0112 0C        		.uleb128 0xc
 1868 0113 01        		.uleb128 0x1
 1869 0114 13        		.uleb128 0x13
 1870 0115 00        		.byte	0
 1871 0116 00        		.byte	0
 1872 0117 14        		.uleb128 0x14
 1873 0118 34        		.uleb128 0x34
 1874 0119 00        		.byte	0
 1875 011a 34        		.uleb128 0x34
 1876 011b 0C        		.uleb128 0xc
 1877 011c 49        		.uleb128 0x49
 1878 011d 13        		.uleb128 0x13
 1879 011e 02        		.uleb128 0x2
 1880 011f 06        		.uleb128 0x6
 1881 0120 00        		.byte	0
 1882 0121 00        		.byte	0
 1883 0122 15        		.uleb128 0x15
 1884 0123 34        		.uleb128 0x34
 1885 0124 00        		.byte	0
 1886 0125 03        		.uleb128 0x3
 1887 0126 0E        		.uleb128 0xe
 1888 0127 3A        		.uleb128 0x3a
 1889 0128 0B        		.uleb128 0xb
GAS LISTING C:\Users\Rando\AppData\Local\Temp\ccxyP7rG.s 			page 40


 1890 0129 3B        		.uleb128 0x3b
 1891 012a 0B        		.uleb128 0xb
 1892 012b 49        		.uleb128 0x49
 1893 012c 13        		.uleb128 0x13
 1894 012d 02        		.uleb128 0x2
 1895 012e 06        		.uleb128 0x6
 1896 012f 00        		.byte	0
 1897 0130 00        		.byte	0
 1898 0131 16        		.uleb128 0x16
 1899 0132 34        		.uleb128 0x34
 1900 0133 00        		.byte	0
 1901 0134 03        		.uleb128 0x3
 1902 0135 0E        		.uleb128 0xe
 1903 0136 3A        		.uleb128 0x3a
 1904 0137 0B        		.uleb128 0xb
 1905 0138 3B        		.uleb128 0x3b
 1906 0139 0B        		.uleb128 0xb
 1907 013a 49        		.uleb128 0x49
 1908 013b 13        		.uleb128 0x13
 1909 013c 02        		.uleb128 0x2
 1910 013d 0A        		.uleb128 0xa
 1911 013e 00        		.byte	0
 1912 013f 00        		.byte	0
 1913 0140 17        		.uleb128 0x17
 1914 0141 1D        		.uleb128 0x1d
 1915 0142 01        		.byte	0x1
 1916 0143 31        		.uleb128 0x31
 1917 0144 13        		.uleb128 0x13
 1918 0145 11        		.uleb128 0x11
 1919 0146 01        		.uleb128 0x1
 1920 0147 12        		.uleb128 0x12
 1921 0148 01        		.uleb128 0x1
 1922 0149 58        		.uleb128 0x58
 1923 014a 0B        		.uleb128 0xb
 1924 014b 59        		.uleb128 0x59
 1925 014c 0B        		.uleb128 0xb
 1926 014d 01        		.uleb128 0x1
 1927 014e 13        		.uleb128 0x13
 1928 014f 00        		.byte	0
 1929 0150 00        		.byte	0
 1930 0151 18        		.uleb128 0x18
 1931 0152 05        		.uleb128 0x5
 1932 0153 00        		.byte	0
 1933 0154 31        		.uleb128 0x31
 1934 0155 13        		.uleb128 0x13
 1935 0156 02        		.uleb128 0x2
 1936 0157 06        		.uleb128 0x6
 1937 0158 00        		.byte	0
 1938 0159 00        		.byte	0
 1939 015a 19        		.uleb128 0x19
 1940 015b 34        		.uleb128 0x34
 1941 015c 00        		.byte	0
 1942 015d 31        		.uleb128 0x31
 1943 015e 13        		.uleb128 0x13
 1944 015f 02        		.uleb128 0x2
 1945 0160 06        		.uleb128 0x6
 1946 0161 00        		.byte	0
GAS LISTING C:\Users\Rando\AppData\Local\Temp\ccxyP7rG.s 			page 41


 1947 0162 00        		.byte	0
 1948 0163 1A        		.uleb128 0x1a
 1949 0164 8982 01   		.uleb128 0x4109
 1950 0167 00        		.byte	0
 1951 0168 11        		.uleb128 0x11
 1952 0169 01        		.uleb128 0x1
 1953 016a 31        		.uleb128 0x31
 1954 016b 13        		.uleb128 0x13
 1955 016c 00        		.byte	0
 1956 016d 00        		.byte	0
 1957 016e 1B        		.uleb128 0x1b
 1958 016f 01        		.uleb128 0x1
 1959 0170 01        		.byte	0x1
 1960 0171 49        		.uleb128 0x49
 1961 0172 13        		.uleb128 0x13
 1962 0173 01        		.uleb128 0x1
 1963 0174 13        		.uleb128 0x13
 1964 0175 00        		.byte	0
 1965 0176 00        		.byte	0
 1966 0177 1C        		.uleb128 0x1c
 1967 0178 21        		.uleb128 0x21
 1968 0179 00        		.byte	0
 1969 017a 49        		.uleb128 0x49
 1970 017b 13        		.uleb128 0x13
 1971 017c 2F        		.uleb128 0x2f
 1972 017d 13        		.uleb128 0x13
 1973 017e 00        		.byte	0
 1974 017f 00        		.byte	0
 1975 0180 1D        		.uleb128 0x1d
 1976 0181 26        		.uleb128 0x26
 1977 0182 00        		.byte	0
 1978 0183 49        		.uleb128 0x49
 1979 0184 13        		.uleb128 0x13
 1980 0185 00        		.byte	0
 1981 0186 00        		.byte	0
 1982 0187 1E        		.uleb128 0x1e
 1983 0188 21        		.uleb128 0x21
 1984 0189 00        		.byte	0
 1985 018a 49        		.uleb128 0x49
 1986 018b 13        		.uleb128 0x13
 1987 018c 2F        		.uleb128 0x2f
 1988 018d 0B        		.uleb128 0xb
 1989 018e 00        		.byte	0
 1990 018f 00        		.byte	0
 1991 0190 1F        		.uleb128 0x1f
 1992 0191 34        		.uleb128 0x34
 1993 0192 00        		.byte	0
 1994 0193 03        		.uleb128 0x3
 1995 0194 0E        		.uleb128 0xe
 1996 0195 3A        		.uleb128 0x3a
 1997 0196 0B        		.uleb128 0xb
 1998 0197 3B        		.uleb128 0x3b
 1999 0198 0B        		.uleb128 0xb
 2000 0199 49        		.uleb128 0x49
 2001 019a 13        		.uleb128 0x13
 2002 019b 3F        		.uleb128 0x3f
 2003 019c 0C        		.uleb128 0xc
GAS LISTING C:\Users\Rando\AppData\Local\Temp\ccxyP7rG.s 			page 42


 2004 019d 02        		.uleb128 0x2
 2005 019e 0A        		.uleb128 0xa
 2006 019f 00        		.byte	0
 2007 01a0 00        		.byte	0
 2008 01a1 20        		.uleb128 0x20
 2009 01a2 35        		.uleb128 0x35
 2010 01a3 00        		.byte	0
 2011 01a4 49        		.uleb128 0x49
 2012 01a5 13        		.uleb128 0x13
 2013 01a6 00        		.byte	0
 2014 01a7 00        		.byte	0
 2015 01a8 21        		.uleb128 0x21
 2016 01a9 2E        		.uleb128 0x2e
 2017 01aa 00        		.byte	0
 2018 01ab 3F        		.uleb128 0x3f
 2019 01ac 0C        		.uleb128 0xc
 2020 01ad 3C        		.uleb128 0x3c
 2021 01ae 0C        		.uleb128 0xc
 2022 01af 8740      		.uleb128 0x2007
 2023 01b1 0E        		.uleb128 0xe
 2024 01b2 03        		.uleb128 0x3
 2025 01b3 0E        		.uleb128 0xe
 2026 01b4 3A        		.uleb128 0x3a
 2027 01b5 0B        		.uleb128 0xb
 2028 01b6 3B        		.uleb128 0x3b
 2029 01b7 0B        		.uleb128 0xb
 2030 01b8 00        		.byte	0
 2031 01b9 00        		.byte	0
 2032 01ba 00        		.byte	0
 2033               		.section	.debug_loc,"",@progbits
 2034               	.Ldebug_loc0:
 2035               	.LLST0:
 2036 0000 0000 0000 		.long	.LFB6
 2037 0004 0000 0000 		.long	.LCFI0
 2038 0008 0300      		.word	0x3
 2039 000a 92        		.byte	0x92
 2040 000b 20        		.uleb128 0x20
 2041 000c 02        		.sleb128 2
 2042 000d 0000 0000 		.long	.LCFI0
 2043 0011 0000 0000 		.long	.LCFI1
 2044 0015 0300      		.word	0x3
 2045 0017 92        		.byte	0x92
 2046 0018 20        		.uleb128 0x20
 2047 0019 03        		.sleb128 3
 2048 001a 0000 0000 		.long	.LCFI1
 2049 001e 0000 0000 		.long	.LCFI2
 2050 0022 0300      		.word	0x3
 2051 0024 92        		.byte	0x92
 2052 0025 20        		.uleb128 0x20
 2053 0026 04        		.sleb128 4
 2054 0027 0000 0000 		.long	.LCFI2
 2055 002b 0000 0000 		.long	.LCFI3
 2056 002f 0300      		.word	0x3
 2057 0031 92        		.byte	0x92
 2058 0032 20        		.uleb128 0x20
 2059 0033 05        		.sleb128 5
 2060 0034 0000 0000 		.long	.LCFI3
GAS LISTING C:\Users\Rando\AppData\Local\Temp\ccxyP7rG.s 			page 43


 2061 0038 0000 0000 		.long	.LCFI4
 2062 003c 0300      		.word	0x3
 2063 003e 92        		.byte	0x92
 2064 003f 20        		.uleb128 0x20
 2065 0040 06        		.sleb128 6
 2066 0041 0000 0000 		.long	.LCFI4
 2067 0045 0000 0000 		.long	.LCFI5
 2068 0049 0300      		.word	0x3
 2069 004b 92        		.byte	0x92
 2070 004c 20        		.uleb128 0x20
 2071 004d 07        		.sleb128 7
 2072 004e 0000 0000 		.long	.LCFI5
 2073 0052 0000 0000 		.long	.LCFI6
 2074 0056 0300      		.word	0x3
 2075 0058 92        		.byte	0x92
 2076 0059 20        		.uleb128 0x20
 2077 005a 08        		.sleb128 8
 2078 005b 0000 0000 		.long	.LCFI6
 2079 005f 0000 0000 		.long	.LCFI7
 2080 0063 0300      		.word	0x3
 2081 0065 92        		.byte	0x92
 2082 0066 20        		.uleb128 0x20
 2083 0067 09        		.sleb128 9
 2084 0068 0000 0000 		.long	.LCFI7
 2085 006c 0000 0000 		.long	.LCFI8
 2086 0070 0300      		.word	0x3
 2087 0072 92        		.byte	0x92
 2088 0073 20        		.uleb128 0x20
 2089 0074 0A        		.sleb128 10
 2090 0075 0000 0000 		.long	.LCFI8
 2091 0079 0000 0000 		.long	.LCFI9
 2092 007d 0300      		.word	0x3
 2093 007f 92        		.byte	0x92
 2094 0080 20        		.uleb128 0x20
 2095 0081 0B        		.sleb128 11
 2096 0082 0000 0000 		.long	.LCFI9
 2097 0086 0000 0000 		.long	.LCFI10
 2098 008a 0300      		.word	0x3
 2099 008c 92        		.byte	0x92
 2100 008d 20        		.uleb128 0x20
 2101 008e 0C        		.sleb128 12
 2102 008f 0000 0000 		.long	.LCFI10
 2103 0093 0000 0000 		.long	.LCFI11
 2104 0097 0300      		.word	0x3
 2105 0099 92        		.byte	0x92
 2106 009a 20        		.uleb128 0x20
 2107 009b 0D        		.sleb128 13
 2108 009c 0000 0000 		.long	.LCFI11
 2109 00a0 0000 0000 		.long	.LCFI12
 2110 00a4 0300      		.word	0x3
 2111 00a6 92        		.byte	0x92
 2112 00a7 20        		.uleb128 0x20
 2113 00a8 0E        		.sleb128 14
 2114 00a9 0000 0000 		.long	.LCFI12
 2115 00ad 0000 0000 		.long	.LCFI13
 2116 00b1 0300      		.word	0x3
 2117 00b3 92        		.byte	0x92
GAS LISTING C:\Users\Rando\AppData\Local\Temp\ccxyP7rG.s 			page 44


 2118 00b4 20        		.uleb128 0x20
 2119 00b5 0F        		.sleb128 15
 2120 00b6 0000 0000 		.long	.LCFI13
 2121 00ba 0000 0000 		.long	.LFE6
 2122 00be 0300      		.word	0x3
 2123 00c0 92        		.byte	0x92
 2124 00c1 20        		.uleb128 0x20
 2125 00c2 10        		.sleb128 16
 2126 00c3 0000 0000 		.long	0
 2127 00c7 0000 0000 		.long	0
 2128               	.LLST1:
 2129 00cb 0000 0000 		.long	.LFB7
 2130 00cf 0000 0000 		.long	.LCFI14
 2131 00d3 0300      		.word	0x3
 2132 00d5 92        		.byte	0x92
 2133 00d6 20        		.uleb128 0x20
 2134 00d7 02        		.sleb128 2
 2135 00d8 0000 0000 		.long	.LCFI14
 2136 00dc 0000 0000 		.long	.LCFI15
 2137 00e0 0300      		.word	0x3
 2138 00e2 92        		.byte	0x92
 2139 00e3 20        		.uleb128 0x20
 2140 00e4 03        		.sleb128 3
 2141 00e5 0000 0000 		.long	.LCFI15
 2142 00e9 0000 0000 		.long	.LCFI16
 2143 00ed 0300      		.word	0x3
 2144 00ef 92        		.byte	0x92
 2145 00f0 20        		.uleb128 0x20
 2146 00f1 04        		.sleb128 4
 2147 00f2 0000 0000 		.long	.LCFI16
 2148 00f6 0000 0000 		.long	.LCFI17
 2149 00fa 0300      		.word	0x3
 2150 00fc 92        		.byte	0x92
 2151 00fd 20        		.uleb128 0x20
 2152 00fe 05        		.sleb128 5
 2153 00ff 0000 0000 		.long	.LCFI17
 2154 0103 0000 0000 		.long	.LCFI18
 2155 0107 0300      		.word	0x3
 2156 0109 92        		.byte	0x92
 2157 010a 20        		.uleb128 0x20
 2158 010b 06        		.sleb128 6
 2159 010c 0000 0000 		.long	.LCFI18
 2160 0110 0000 0000 		.long	.LCFI19
 2161 0114 0300      		.word	0x3
 2162 0116 92        		.byte	0x92
 2163 0117 20        		.uleb128 0x20
 2164 0118 07        		.sleb128 7
 2165 0119 0000 0000 		.long	.LCFI19
 2166 011d 0000 0000 		.long	.LCFI20
 2167 0121 0300      		.word	0x3
 2168 0123 92        		.byte	0x92
 2169 0124 20        		.uleb128 0x20
 2170 0125 08        		.sleb128 8
 2171 0126 0000 0000 		.long	.LCFI20
 2172 012a 0000 0000 		.long	.LCFI21
 2173 012e 0300      		.word	0x3
 2174 0130 92        		.byte	0x92
GAS LISTING C:\Users\Rando\AppData\Local\Temp\ccxyP7rG.s 			page 45


 2175 0131 20        		.uleb128 0x20
 2176 0132 09        		.sleb128 9
 2177 0133 0000 0000 		.long	.LCFI21
 2178 0137 0000 0000 		.long	.LCFI22
 2179 013b 0300      		.word	0x3
 2180 013d 92        		.byte	0x92
 2181 013e 20        		.uleb128 0x20
 2182 013f 0A        		.sleb128 10
 2183 0140 0000 0000 		.long	.LCFI22
 2184 0144 0000 0000 		.long	.LCFI23
 2185 0148 0300      		.word	0x3
 2186 014a 92        		.byte	0x92
 2187 014b 20        		.uleb128 0x20
 2188 014c 0B        		.sleb128 11
 2189 014d 0000 0000 		.long	.LCFI23
 2190 0151 0000 0000 		.long	.LFE7
 2191 0155 0300      		.word	0x3
 2192 0157 92        		.byte	0x92
 2193 0158 20        		.uleb128 0x20
 2194 0159 0C        		.sleb128 12
 2195 015a 0000 0000 		.long	0
 2196 015e 0000 0000 		.long	0
 2197               	.LLST2:
 2198 0162 0000 0000 		.long	.LVL1
 2199 0166 0000 0000 		.long	.LVL3
 2200 016a 0600      		.word	0x6
 2201 016c 68        		.byte	0x68
 2202 016d 93        		.byte	0x93
 2203 016e 01        		.uleb128 0x1
 2204 016f 69        		.byte	0x69
 2205 0170 93        		.byte	0x93
 2206 0171 01        		.uleb128 0x1
 2207 0172 0000 0000 		.long	.LVL3
 2208 0176 0000 0000 		.long	.LVL15
 2209 017a 0600      		.word	0x6
 2210 017c 5E        		.byte	0x5e
 2211 017d 93        		.byte	0x93
 2212 017e 01        		.uleb128 0x1
 2213 017f 5F        		.byte	0x5f
 2214 0180 93        		.byte	0x93
 2215 0181 01        		.uleb128 0x1
 2216 0182 0000 0000 		.long	.LVL15
 2217 0186 0000 0000 		.long	.LFE7
 2218 018a 0400      		.word	0x4
 2219 018c F3        		.byte	0xf3
 2220 018d 01        		.uleb128 0x1
 2221 018e 68        		.byte	0x68
 2222 018f 9F        		.byte	0x9f
 2223 0190 0000 0000 		.long	0
 2224 0194 0000 0000 		.long	0
 2225               	.LLST3:
 2226 0198 0000 0000 		.long	.LVL2
 2227 019c 0000 0000 		.long	.LVL3
 2228 01a0 0200      		.word	0x2
 2229 01a2 30        		.byte	0x30
 2230 01a3 9F        		.byte	0x9f
 2231 01a4 0000 0000 		.long	.LVL3
GAS LISTING C:\Users\Rando\AppData\Local\Temp\ccxyP7rG.s 			page 46


 2232 01a8 0000 0000 		.long	.LVL8
 2233 01ac 0100      		.word	0x1
 2234 01ae 5D        		.byte	0x5d
 2235 01af 0000 0000 		.long	0
 2236 01b3 0000 0000 		.long	0
 2237               	.LLST4:
 2238 01b7 0000 0000 		.long	.LVL4
 2239 01bb 0000 0000 		.long	.LVL5
 2240 01bf 0100      		.word	0x1
 2241 01c1 6C        		.byte	0x6c
 2242 01c2 0000 0000 		.long	.LVL5
 2243 01c6 0000 0000 		.long	.LVL6
 2244 01ca 0300      		.word	0x3
 2245 01cc 8C        		.byte	0x8c
 2246 01cd 01        		.sleb128 1
 2247 01ce 9F        		.byte	0x9f
 2248 01cf 0000 0000 		.long	.LVL6
 2249 01d3 0000 0000 		.long	.LVL8
 2250 01d7 0100      		.word	0x1
 2251 01d9 6C        		.byte	0x6c
 2252 01da 0000 0000 		.long	0
 2253 01de 0000 0000 		.long	0
 2254               	.LLST5:
 2255 01e2 0000 0000 		.long	.LVL8
 2256 01e6 0000 0000 		.long	.LVL9
 2257 01ea 0200      		.word	0x2
 2258 01ec 30        		.byte	0x30
 2259 01ed 9F        		.byte	0x9f
 2260 01ee 0000 0000 		.long	.LVL9
 2261 01f2 0000 0000 		.long	.LVL14
 2262 01f6 0600      		.word	0x6
 2263 01f8 5C        		.byte	0x5c
 2264 01f9 93        		.byte	0x93
 2265 01fa 01        		.uleb128 0x1
 2266 01fb 5D        		.byte	0x5d
 2267 01fc 93        		.byte	0x93
 2268 01fd 01        		.uleb128 0x1
 2269 01fe 0000 0000 		.long	0
 2270 0202 0000 0000 		.long	0
 2271               	.LLST6:
 2272 0206 0000 0000 		.long	.LFB8
 2273 020a 0000 0000 		.long	.LCFI24
 2274 020e 0300      		.word	0x3
 2275 0210 92        		.byte	0x92
 2276 0211 20        		.uleb128 0x20
 2277 0212 02        		.sleb128 2
 2278 0213 0000 0000 		.long	.LCFI24
 2279 0217 0000 0000 		.long	.LCFI25
 2280 021b 0300      		.word	0x3
 2281 021d 92        		.byte	0x92
 2282 021e 20        		.uleb128 0x20
 2283 021f 03        		.sleb128 3
 2284 0220 0000 0000 		.long	.LCFI25
 2285 0224 0000 0000 		.long	.LCFI26
 2286 0228 0300      		.word	0x3
 2287 022a 92        		.byte	0x92
 2288 022b 20        		.uleb128 0x20
GAS LISTING C:\Users\Rando\AppData\Local\Temp\ccxyP7rG.s 			page 47


 2289 022c 04        		.sleb128 4
 2290 022d 0000 0000 		.long	.LCFI26
 2291 0231 0000 0000 		.long	.LCFI27
 2292 0235 0300      		.word	0x3
 2293 0237 92        		.byte	0x92
 2294 0238 20        		.uleb128 0x20
 2295 0239 09        		.sleb128 9
 2296 023a 0000 0000 		.long	.LCFI27
 2297 023e 0000 0000 		.long	.LFE8
 2298 0242 0200      		.word	0x2
 2299 0244 8C        		.byte	0x8c
 2300 0245 09        		.sleb128 9
 2301 0246 0000 0000 		.long	0
 2302 024a 0000 0000 		.long	0
 2303               	.LLST7:
 2304 024e 0000 0000 		.long	.LVL19
 2305 0252 0000 0000 		.long	.LVL21
 2306 0256 0B00      		.word	0xb
 2307 0258 88        		.byte	0x88
 2308 0259 00        		.sleb128 0
 2309 025a 08        		.byte	0x8
 2310 025b FF        		.byte	0xff
 2311 025c 1A        		.byte	0x1a
 2312 025d 08        		.byte	0x8
 2313 025e 28        		.byte	0x28
 2314 025f 1E        		.byte	0x1e
 2315 0260 31        		.byte	0x31
 2316 0261 1C        		.byte	0x1c
 2317 0262 9F        		.byte	0x9f
 2318 0263 0000 0000 		.long	.LVL21
 2319 0267 0000 0000 		.long	.LVL22-1
 2320 026b 1200      		.word	0x12
 2321 026d 03        		.byte	0x3
 2322 026e 0000 0000 		.long	epdwidth
 2323 0272 94        		.byte	0x94
 2324 0273 01        		.byte	0x1
 2325 0274 33        		.byte	0x33
 2326 0275 25        		.byte	0x25
 2327 0276 08        		.byte	0x8
 2328 0277 FF        		.byte	0xff
 2329 0278 1A        		.byte	0x1a
 2330 0279 08        		.byte	0x8
 2331 027a 28        		.byte	0x28
 2332 027b 1E        		.byte	0x1e
 2333 027c 31        		.byte	0x31
 2334 027d 1C        		.byte	0x1c
 2335 027e 9F        		.byte	0x9f
 2336 027f 0000 0000 		.long	0
 2337 0283 0000 0000 		.long	0
 2338               	.LLST8:
 2339 0287 0000 0000 		.long	.LVL20
 2340 028b 0000 0000 		.long	.LVL55
 2341 028f 0200      		.word	0x2
 2342 0291 7E        		.byte	0x7e
 2343 0292 00        		.sleb128 0
 2344 0293 0000 0000 		.long	0
 2345 0297 0000 0000 		.long	0
GAS LISTING C:\Users\Rando\AppData\Local\Temp\ccxyP7rG.s 			page 48


 2346               	.LLST9:
 2347 029b 0000 0000 		.long	.LVL24
 2348 029f 0000 0000 		.long	.LVL25
 2349 02a3 0600      		.word	0x6
 2350 02a5 9E        		.byte	0x9e
 2351 02a6 04        		.uleb128 0x4
 2352 02a7 0060 6A46 		.long	0x466a6000
 2353 02ab 0000 0000 		.long	0
 2354 02af 0000 0000 		.long	0
 2355               	.LLST10:
 2356 02b3 0000 0000 		.long	.LVL24
 2357 02b7 0000 0000 		.long	.LVL25
 2358 02bb 0600      		.word	0x6
 2359 02bd 9E        		.byte	0x9e
 2360 02be 04        		.uleb128 0x4
 2361 02bf C0E1 644D 		.long	0x4d64e1c0
 2362 02c3 0000 0000 		.long	0
 2363 02c7 0000 0000 		.long	0
 2364               	.LLST11:
 2365 02cb 0000 0000 		.long	.LVL24
 2366 02cf 0000 0000 		.long	.LVL25
 2367 02d3 0600      		.word	0x6
 2368 02d5 0C        		.byte	0xc
 2369 02d6 001C 4E0E 		.long	0xe4e1c00
 2370 02da 9F        		.byte	0x9f
 2371 02db 0000 0000 		.long	0
 2372 02df 0000 0000 		.long	0
 2373               	.LLST12:
 2374 02e3 0000 0000 		.long	.LVL25
 2375 02e7 0000 0000 		.long	.LVL26
 2376 02eb 0200      		.word	0x2
 2377 02ed 30        		.byte	0x30
 2378 02ee 9F        		.byte	0x9f
 2379 02ef 0000 0000 		.long	.LVL26
 2380 02f3 0000 0000 		.long	.LVL27
 2381 02f7 0200      		.word	0x2
 2382 02f9 31        		.byte	0x31
 2383 02fa 9F        		.byte	0x9f
 2384 02fb 0000 0000 		.long	.LVL27
 2385 02ff 0000 0000 		.long	.LVL28
 2386 0303 0200      		.word	0x2
 2387 0305 32        		.byte	0x32
 2388 0306 9F        		.byte	0x9f
 2389 0307 0000 0000 		.long	.LVL28
 2390 030b 0000 0000 		.long	.LVL29
 2391 030f 0200      		.word	0x2
 2392 0311 33        		.byte	0x33
 2393 0312 9F        		.byte	0x9f
 2394 0313 0000 0000 		.long	.LVL29
 2395 0317 0000 0000 		.long	.LVL30
 2396 031b 0200      		.word	0x2
 2397 031d 34        		.byte	0x34
 2398 031e 9F        		.byte	0x9f
 2399 031f 0000 0000 		.long	.LVL30
 2400 0323 0000 0000 		.long	.LVL55
 2401 0327 0200      		.word	0x2
 2402 0329 35        		.byte	0x35
GAS LISTING C:\Users\Rando\AppData\Local\Temp\ccxyP7rG.s 			page 49


 2403 032a 9F        		.byte	0x9f
 2404 032b 0000 0000 		.long	0
 2405 032f 0000 0000 		.long	0
 2406               	.LLST13:
 2407 0333 0000 0000 		.long	.LVL36
 2408 0337 0000 0000 		.long	.LVL37
 2409 033b 0200      		.word	0x2
 2410 033d 30        		.byte	0x30
 2411 033e 9F        		.byte	0x9f
 2412 033f 0000 0000 		.long	.LVL37
 2413 0343 0000 0000 		.long	.LVL42
 2414 0347 0100      		.word	0x1
 2415 0349 5B        		.byte	0x5b
 2416 034a 0000 0000 		.long	0
 2417 034e 0000 0000 		.long	0
 2418               	.LLST14:
 2419 0352 0000 0000 		.long	.LVL38
 2420 0356 0000 0000 		.long	.LVL39
 2421 035a 0100      		.word	0x1
 2422 035c 60        		.byte	0x60
 2423 035d 0000 0000 		.long	.LVL39
 2424 0361 0000 0000 		.long	.LVL40
 2425 0365 0300      		.word	0x3
 2426 0367 80        		.byte	0x80
 2427 0368 01        		.sleb128 1
 2428 0369 9F        		.byte	0x9f
 2429 036a 0000 0000 		.long	.LVL40
 2430 036e 0000 0000 		.long	.LVL42
 2431 0372 0100      		.word	0x1
 2432 0374 60        		.byte	0x60
 2433 0375 0000 0000 		.long	0
 2434 0379 0000 0000 		.long	0
 2435               	.LLST15:
 2436 037d 0000 0000 		.long	.LVL46
 2437 0381 0000 0000 		.long	.LVL47
 2438 0385 0200      		.word	0x2
 2439 0387 30        		.byte	0x30
 2440 0388 9F        		.byte	0x9f
 2441 0389 0000 0000 		.long	.LVL47
 2442 038d 0000 0000 		.long	.LVL52
 2443 0391 0100      		.word	0x1
 2444 0393 5B        		.byte	0x5b
 2445 0394 0000 0000 		.long	0
 2446 0398 0000 0000 		.long	0
 2447               	.LLST16:
 2448 039c 0000 0000 		.long	.LVL48
 2449 03a0 0000 0000 		.long	.LVL49
 2450 03a4 0100      		.word	0x1
 2451 03a6 60        		.byte	0x60
 2452 03a7 0000 0000 		.long	.LVL49
 2453 03ab 0000 0000 		.long	.LVL50
 2454 03af 0300      		.word	0x3
 2455 03b1 80        		.byte	0x80
 2456 03b2 01        		.sleb128 1
 2457 03b3 9F        		.byte	0x9f
 2458 03b4 0000 0000 		.long	.LVL50
 2459 03b8 0000 0000 		.long	.LVL52
GAS LISTING C:\Users\Rando\AppData\Local\Temp\ccxyP7rG.s 			page 50


 2460 03bc 0100      		.word	0x1
 2461 03be 60        		.byte	0x60
 2462 03bf 0000 0000 		.long	0
 2463 03c3 0000 0000 		.long	0
 2464               		.section	.debug_aranges,"",@progbits
 2465 0000 2400 0000 		.long	0x24
 2466 0004 0200      		.word	0x2
 2467 0006 0000 0000 		.long	.Ldebug_info0
 2468 000a 04        		.byte	0x4
 2469 000b 00        		.byte	0
 2470 000c 0000      		.word	0
 2471 000e 0000      		.word	0
 2472 0010 0000 0000 		.long	.Ltext0
 2473 0014 3A01 0000 		.long	.Letext0-.Ltext0
 2474 0018 0000 0000 		.long	.LFB8
 2475 001c 1202 0000 		.long	.LFE8-.LFB8
 2476 0020 0000 0000 		.long	0
 2477 0024 0000 0000 		.long	0
 2478               		.section	.debug_ranges,"",@progbits
 2479               	.Ldebug_ranges0:
 2480 0000 0000 0000 		.long	.Ltext0
 2481 0004 0000 0000 		.long	.Letext0
 2482 0008 0000 0000 		.long	.LFB8
 2483 000c 0000 0000 		.long	.LFE8
 2484 0010 0000 0000 		.long	0
 2485 0014 0000 0000 		.long	0
 2486               		.section	.debug_line,"",@progbits
 2487               	.Ldebug_line0:
 2488 0000 CC02 0000 		.section	.debug_str,"MS",@progbits,1
 2488      0200 AB00 
 2488      0000 0201 
 2488      FB0E 0A00 
 2488      0101 0101 
 2489               	.LASF24:
 2490 0000 6261 746D 		.string	"batmon_init"
 2490      6F6E 5F69 
 2490      6E69 7400 
 2491               	.LASF21:
 2492 000c 4549 4E4B 		.string	"EINK_draw_absolute_pixel"
 2492      5F64 7261 
 2492      775F 6162 
 2492      736F 6C75 
 2492      7465 5F70 
 2493               	.LASF31:
 2494 0025 6261 746D 		.string	"batmon_soc"
 2494      6F6E 5F73 
 2494      6F63 00
 2495               	.LASF37:
 2496 0030 5F5F 6275 		.string	"__builtin_avr_delay_cycles"
 2496      696C 7469 
 2496      6E5F 6176 
 2496      725F 6465 
 2496      6C61 795F 
 2497               	.LASF26:
 2498 004b 4549 4E4B 		.string	"EINK_init"
 2498      5F69 6E69 
 2498      7400 
GAS LISTING C:\Users\Rando\AppData\Local\Temp\ccxyP7rG.s 			page 51


 2499               	.LASF18:
 2500 0055 6461 7461 		.string	"data"
 2500      00
 2501               	.LASF1:
 2502 005a 756E 7369 		.string	"unsigned char"
 2502      676E 6564 
 2502      2063 6861 
 2502      7200 
 2503               	.LASF27:
 2504 0068 4549 4E4B 		.string	"EINK_send_command"
 2504      5F73 656E 
 2504      645F 636F 
 2504      6D6D 616E 
 2504      6400 
 2505               	.LASF29:
 2506 007a 6E72 6632 		.string	"nrf24l01_reset_interrupts"
 2506      346C 3031 
 2506      5F72 6573 
 2506      6574 5F69 
 2506      6E74 6572 
 2507               	.LASF23:
 2508 0094 4549 4E4B 		.string	"EINK_set_partial_black"
 2508      5F73 6574 
 2508      5F70 6172 
 2508      7469 616C 
 2508      5F62 6C61 
 2509               	.LASF6:
 2510 00ab 6C6F 6E67 		.string	"long unsigned int"
 2510      2075 6E73 
 2510      6967 6E65 
 2510      6420 696E 
 2510      7400 
 2511               	.LASF35:
 2512 00bd 5F64 656C 		.string	"_delay_ms"
 2512      6179 5F6D 
 2512      7300 
 2513               	.LASF19:
 2514 00c7 6461 7461 		.string	"data_available"
 2514      5F61 7661 
 2514      696C 6162 
 2514      6C65 00
 2515               	.LASF12:
 2516 00d6 5F5F 7665 		.string	"__vector_7"
 2516      6374 6F72 
 2516      5F37 00
 2517               	.LASF34:
 2518 00e1 633A 5C75 		.string	"c:\\users\\rando\\documents\\elektroonika\\wep-reciever"
 2518      7365 7273 
 2518      5C72 616E 
 2518      646F 5C64 
 2518      6F63 756D 
 2519               	.LASF11:
 2520 0114 646F 7562 		.string	"double"
 2520      6C65 00
 2521               	.LASF38:
 2522 011b 6D61 696E 		.string	"main"
 2522      00
GAS LISTING C:\Users\Rando\AppData\Local\Temp\ccxyP7rG.s 			page 52


 2523               	.LASF20:
 2524 0120 6E72 6632 		.string	"nrf24l01_read_register"
 2524      346C 3031 
 2524      5F72 6561 
 2524      645F 7265 
 2524      6769 7374 
 2525               	.LASF2:
 2526 0137 756E 7369 		.string	"unsigned int"
 2526      676E 6564 
 2526      2069 6E74 
 2526      00
 2527               	.LASF22:
 2528 0144 4549 4E4B 		.string	"EINK_set_partial_red"
 2528      5F73 6574 
 2528      5F70 6172 
 2528      7469 616C 
 2528      5F72 6564 
 2529               	.LASF15:
 2530 0159 6164 6472 		.string	"address"
 2530      6573 7300 
 2531               	.LASF8:
 2532 0161 6C6F 6E67 		.string	"long long unsigned int"
 2532      206C 6F6E 
 2532      6720 756E 
 2532      7369 676E 
 2532      6564 2069 
 2533               	.LASF4:
 2534 0178 7569 6E74 		.string	"uint8_t"
 2534      385F 7400 
 2535               	.LASF13:
 2536 0180 636C 6561 		.string	"clean_buffer"
 2536      6E5F 6275 
 2536      6666 6572 
 2536      00
 2537               	.LASF32:
 2538 018d 474E 5520 		.string	"GNU C11 5.4.0 -mn-flash=1 -mno-skip-bug -mmcu=avr5 -g -O2 -funsigned-char -funsigned-bitf
 2538      4331 3120 
 2538      352E 342E 
 2538      3020 2D6D 
 2538      6E2D 666C 
 2539               	.LASF16:
 2540 0208 7369 7A65 		.string	"sizetype"
 2540      7479 7065 
 2540      00
 2541               	.LASF7:
 2542 0211 6C6F 6E67 		.string	"long long int"
 2542      206C 6F6E 
 2542      6720 696E 
 2542      7400 
 2543               	.LASF33:
 2544 021f 7372 632F 		.string	"src/main.c"
 2544      6D61 696E 
 2544      2E63 00
 2545               	.LASF10:
 2546 022a 5F5F 7469 		.string	"__ticks_dc"
 2546      636B 735F 
 2546      6463 00
GAS LISTING C:\Users\Rando\AppData\Local\Temp\ccxyP7rG.s 			page 53


 2547               	.LASF25:
 2548 0235 5350 495F 		.string	"SPI_init"
 2548      696E 6974 
 2548      00
 2549               	.LASF14:
 2550 023e 6275 6666 		.string	"buffer"
 2550      6572 00
 2551               	.LASF9:
 2552 0245 5F5F 746D 		.string	"__tmp"
 2552      7000 
 2553               	.LASF5:
 2554 024b 7569 6E74 		.string	"uint32_t"
 2554      3332 5F74 
 2554      00
 2555               	.LASF3:
 2556 0254 6C6F 6E67 		.string	"long int"
 2556      2069 6E74 
 2556      00
 2557               	.LASF17:
 2558 025d 6570 6477 		.string	"epdwidth"
 2558      6964 7468 
 2558      00
 2559               	.LASF0:
 2560 0266 7369 676E 		.string	"signed char"
 2560      6564 2063 
 2560      6861 7200 
 2561               	.LASF28:
 2562 0272 6E72 6632 		.string	"nrf24l01_init"
 2562      346C 3031 
 2562      5F69 6E69 
 2562      7400 
 2563               	.LASF36:
 2564 0280 5F5F 6D73 		.string	"__ms"
 2564      00
 2565               	.LASF30:
 2566 0285 6261 746D 		.string	"batmon_config"
 2566      6F6E 5F63 
 2566      6F6E 6669 
 2566      6700 
 2567               		.ident	"GCC: (AVR_8_bit_GNU_Toolchain_3.6.2_1778) 5.4.0"
 2568               	.global __do_clear_bss
GAS LISTING C:\Users\Rando\AppData\Local\Temp\ccxyP7rG.s 			page 54


DEFINED SYMBOLS
                            *ABS*:00000000 main.c
C:\Users\Rando\AppData\Local\Temp\ccxyP7rG.s:2      *ABS*:0000003e __SP_H__
C:\Users\Rando\AppData\Local\Temp\ccxyP7rG.s:3      *ABS*:0000003d __SP_L__
C:\Users\Rando\AppData\Local\Temp\ccxyP7rG.s:4      *ABS*:0000003f __SREG__
C:\Users\Rando\AppData\Local\Temp\ccxyP7rG.s:5      *ABS*:00000000 __tmp_reg__
C:\Users\Rando\AppData\Local\Temp\ccxyP7rG.s:6      *ABS*:00000001 __zero_reg__
C:\Users\Rando\AppData\Local\Temp\ccxyP7rG.s:12     .text:00000000 __vector_7
C:\Users\Rando\AppData\Local\Temp\ccxyP7rG.s:679    .bss:00000000 data_available
                            *COM*:0000000a data
C:\Users\Rando\AppData\Local\Temp\ccxyP7rG.s:119    .text:0000005e clean_buffer
                            *COM*:00000001 epdwidth
C:\Users\Rando\AppData\Local\Temp\ccxyP7rG.s:306    .text.startup:00000000 main

UNDEFINED SYMBOLS
nrf24l01_read_register
EINK_draw_absolute_pixel
__divmodhi4
EINK_set_partial_red
EINK_set_partial_black
batmon_init
SPI_init
EINK_init
EINK_send_command
nrf24l01_init
nrf24l01_reset_interrupts
batmon_config
batmon_soc
__do_clear_bss
