GAS LISTING C:\Users\Rando\AppData\Local\Temp\ccaGBvwp.s 			page 1


   1               		.file	"main.c"
   2               	__SP_H__ = 0x3e
   3               	__SP_L__ = 0x3d
   4               	__SREG__ = 0x3f
   5               	__tmp_reg__ = 0
   6               	__zero_reg__ = 1
   7               		.text
   8               	.Ltext0:
   9               		.cfi_sections	.debug_frame
  10               	.global	__vector_7
  11               		.type	__vector_7, @function
  12               	__vector_7:
  13               	.LFB6:
  14               		.file 1 "src/main.c"
   1:src/main.c    **** #include <avr/io.h>
   2:src/main.c    **** #include <include/spi.h>
   3:src/main.c    **** #define F_CPU 16000000UL
   4:src/main.c    **** #include <util/delay.h>
   5:src/main.c    **** #include <include/nrf24l01.h>
   6:src/main.c    **** #include <avr/interrupt.h>
   7:src/main.c    **** #include <include/eink.h>
   8:src/main.c    **** #include <include/batmon.h>
   9:src/main.c    **** #include <avr/sleep.h>
  10:src/main.c    **** 
  11:src/main.c    **** /* Riistvaraprojekt UT 2020/21 - Rando Hinn, vastuvõtjamooduli peakood */
  12:src/main.c    **** 
  13:src/main.c    **** volatile uint8_t data[10];
  14:src/main.c    **** volatile uint8_t data_available = 0;
  15:src/main.c    **** uint16_t tc = 0;
  16:src/main.c    **** 
  17:src/main.c    **** ISR(INT6_vect) {
  15               		.loc 1 17 0
  16               		.cfi_startproc
  17 0000 1F92      		push r1
  18               	.LCFI0:
  19               		.cfi_def_cfa_offset 3
  20               		.cfi_offset 1, -2
  21 0002 0F92      		push r0
  22               	.LCFI1:
  23               		.cfi_def_cfa_offset 4
  24               		.cfi_offset 0, -3
  25 0004 0FB6      		in r0,__SREG__
  26 0006 0F92      		push r0
  27 0008 1124      		clr __zero_reg__
  28 000a 2F93      		push r18
  29               	.LCFI2:
  30               		.cfi_def_cfa_offset 5
  31               		.cfi_offset 18, -4
  32 000c 3F93      		push r19
  33               	.LCFI3:
  34               		.cfi_def_cfa_offset 6
  35               		.cfi_offset 19, -5
  36 000e 4F93      		push r20
  37               	.LCFI4:
  38               		.cfi_def_cfa_offset 7
  39               		.cfi_offset 20, -6
  40 0010 5F93      		push r21
GAS LISTING C:\Users\Rando\AppData\Local\Temp\ccaGBvwp.s 			page 2


  41               	.LCFI5:
  42               		.cfi_def_cfa_offset 8
  43               		.cfi_offset 21, -7
  44 0012 6F93      		push r22
  45               	.LCFI6:
  46               		.cfi_def_cfa_offset 9
  47               		.cfi_offset 22, -8
  48 0014 7F93      		push r23
  49               	.LCFI7:
  50               		.cfi_def_cfa_offset 10
  51               		.cfi_offset 23, -9
  52 0016 8F93      		push r24
  53               	.LCFI8:
  54               		.cfi_def_cfa_offset 11
  55               		.cfi_offset 24, -10
  56 0018 9F93      		push r25
  57               	.LCFI9:
  58               		.cfi_def_cfa_offset 12
  59               		.cfi_offset 25, -11
  60 001a AF93      		push r26
  61               	.LCFI10:
  62               		.cfi_def_cfa_offset 13
  63               		.cfi_offset 26, -12
  64 001c BF93      		push r27
  65               	.LCFI11:
  66               		.cfi_def_cfa_offset 14
  67               		.cfi_offset 27, -13
  68 001e EF93      		push r30
  69               	.LCFI12:
  70               		.cfi_def_cfa_offset 15
  71               		.cfi_offset 30, -14
  72 0020 FF93      		push r31
  73               	.LCFI13:
  74               		.cfi_def_cfa_offset 16
  75               		.cfi_offset 31, -15
  76               	/* prologue: Signal */
  77               	/* frame size = 0 */
  78               	/* stack size = 15 */
  79               	.L__stack_usage = 15
  18:src/main.c    ****     if(data_available == 0) {
  80               		.loc 1 18 0
  81 0022 8091 0000 		lds r24,data_available
  82 0026 8111      		cpse r24,__zero_reg__
  83 0028 00C0      		rjmp .L1
  19:src/main.c    ****         nrf24l01_read_register(R_RX_PAYLOAD, (uint8_t*) data,10);
  84               		.loc 1 19 0
  85 002a 4AE0      		ldi r20,lo8(10)
  86 002c 60E0      		ldi r22,lo8(data)
  87 002e 70E0      		ldi r23,hi8(data)
  88 0030 81E6      		ldi r24,lo8(97)
  89 0032 0E94 0000 		call nrf24l01_read_register
  90               	.LVL0:
  20:src/main.c    ****         data_available = 1;
  91               		.loc 1 20 0
  92 0036 81E0      		ldi r24,lo8(1)
  93 0038 8093 0000 		sts data_available,r24
  94               	.L1:
GAS LISTING C:\Users\Rando\AppData\Local\Temp\ccaGBvwp.s 			page 3


  95               	/* epilogue start */
  21:src/main.c    ****     }
  22:src/main.c    **** }
  96               		.loc 1 22 0
  97 003c FF91      		pop r31
  98 003e EF91      		pop r30
  99 0040 BF91      		pop r27
 100 0042 AF91      		pop r26
 101 0044 9F91      		pop r25
 102 0046 8F91      		pop r24
 103 0048 7F91      		pop r23
 104 004a 6F91      		pop r22
 105 004c 5F91      		pop r21
 106 004e 4F91      		pop r20
 107 0050 3F91      		pop r19
 108 0052 2F91      		pop r18
 109 0054 0F90      		pop r0
 110 0056 0FBE      		out __SREG__,r0
 111 0058 0F90      		pop r0
 112 005a 1F90      		pop r1
 113 005c 1895      		reti
 114               		.cfi_endproc
 115               	.LFE6:
 116               		.size	__vector_7, .-__vector_7
 117               	.global	clean_buffer
 118               		.type	clean_buffer, @function
 119               	clean_buffer:
 120               	.LFB7:
  23:src/main.c    **** 
  24:src/main.c    **** // Opereerib etteantaval eraldiseisval puhvril, seetõttu ei paikne EINK libraga koos. 
  25:src/main.c    **** void clean_buffer(uint8_t* buffer) {
 121               		.loc 1 25 0
 122               		.cfi_startproc
 123               	.LVL1:
 124 005e AF92      		push r10
 125               	.LCFI14:
 126               		.cfi_def_cfa_offset 3
 127               		.cfi_offset 10, -2
 128 0060 BF92      		push r11
 129               	.LCFI15:
 130               		.cfi_def_cfa_offset 4
 131               		.cfi_offset 11, -3
 132 0062 CF92      		push r12
 133               	.LCFI16:
 134               		.cfi_def_cfa_offset 5
 135               		.cfi_offset 12, -4
 136 0064 DF92      		push r13
 137               	.LCFI17:
 138               		.cfi_def_cfa_offset 6
 139               		.cfi_offset 13, -5
 140 0066 EF92      		push r14
 141               	.LCFI18:
 142               		.cfi_def_cfa_offset 7
 143               		.cfi_offset 14, -6
 144 0068 FF92      		push r15
 145               	.LCFI19:
 146               		.cfi_def_cfa_offset 8
GAS LISTING C:\Users\Rando\AppData\Local\Temp\ccaGBvwp.s 			page 4


 147               		.cfi_offset 15, -7
 148 006a 0F93      		push r16
 149               	.LCFI20:
 150               		.cfi_def_cfa_offset 9
 151               		.cfi_offset 16, -8
 152 006c 1F93      		push r17
 153               	.LCFI21:
 154               		.cfi_def_cfa_offset 10
 155               		.cfi_offset 17, -9
 156 006e CF93      		push r28
 157               	.LCFI22:
 158               		.cfi_def_cfa_offset 11
 159               		.cfi_offset 28, -10
 160 0070 DF93      		push r29
 161               	.LCFI23:
 162               		.cfi_def_cfa_offset 12
 163               		.cfi_offset 29, -11
 164               	/* prologue: function */
 165               	/* frame size = 0 */
 166               	/* stack size = 10 */
 167               	.L__stack_usage = 10
 168 0072 7C01      		movw r14,r24
 169               	.LVL2:
 170               	.LBB10:
  26:src/main.c    ****     for(uint8_t x = 0; x < epdwidth; x++) {
 171               		.loc 1 26 0
 172 0074 2091 0000 		lds r18,epdwidth
 173 0078 2223      		tst r18
 174 007a 01F0      		breq .L5
 175               		.loc 1 26 0 is_stmt 0 discriminator 3
 176 007c D12C      		mov r13,__zero_reg__
 177               	.LVL3:
 178               	.L7:
 179 007e 0D2D      		mov r16,r13
 180 0080 10E0      		ldi r17,0
 181 0082 C0E0      		ldi r28,0
 182 0084 D0E0      		ldi r29,0
 183               	.L6:
 184               	.LVL4:
 185               	.LBB11:
  27:src/main.c    ****         for (uint8_t y = 0; y < HEIGHT; y++) {
  28:src/main.c    ****             EINK_draw_absolute_pixel(buffer,x,y,0);
 186               		.loc 1 28 0 is_stmt 1 discriminator 3
 187 0086 20E0      		ldi r18,0
 188 0088 30E0      		ldi r19,0
 189 008a AE01      		movw r20,r28
 190 008c B801      		movw r22,r16
 191 008e C701      		movw r24,r14
 192 0090 0E94 0000 		call EINK_draw_absolute_pixel
 193               	.LVL5:
 194 0094 2196      		adiw r28,1
 195               	.LVL6:
  27:src/main.c    ****         for (uint8_t y = 0; y < HEIGHT; y++) {
 196               		.loc 1 27 0 discriminator 3
 197 0096 C832      		cpi r28,40
 198 0098 D105      		cpc r29,__zero_reg__
 199 009a 01F4      		brne .L6
GAS LISTING C:\Users\Rando\AppData\Local\Temp\ccaGBvwp.s 			page 5


 200               	.LBE11:
  26:src/main.c    ****     for(uint8_t x = 0; x < epdwidth; x++) {
 201               		.loc 1 26 0 discriminator 2
 202 009c D394      		inc r13
 203               	.LVL7:
 204 009e 2091 0000 		lds r18,epdwidth
 205 00a2 D216      		cp r13,r18
 206 00a4 00F0      		brlo .L7
 207               	.LVL8:
 208               	.L5:
 209               	.LBE10:
 210               	.LBB12:
  29:src/main.c    ****         }
  30:src/main.c    ****     }
  31:src/main.c    ****     for(int i = 0; i < 122/epdwidth; i++) {
 211               		.loc 1 31 0 discriminator 1
 212 00a6 30E0      		ldi r19,0
 213 00a8 8AE7      		ldi r24,lo8(122)
 214 00aa 90E0      		ldi r25,0
 215 00ac B901      		movw r22,r18
 216 00ae 0E94 0000 		call __divmodhi4
 217 00b2 672B      		or r22,r23
 218 00b4 01F0      		breq .L4
 219               		.loc 1 31 0 is_stmt 0 discriminator 3
 220 00b6 C12C      		mov r12,__zero_reg__
 221 00b8 D12C      		mov r13,__zero_reg__
 222 00ba 8AE7      		ldi r24,lo8(122)
 223 00bc A82E      		mov r10,r24
 224 00be B12C      		mov r11,__zero_reg__
 225               	.LVL9:
 226               	.L11:
 227 00c0 C0E0      		ldi r28,0
 228 00c2 D0E0      		ldi r29,0
 229 00c4 00C0      		rjmp .L10
 230               	.LVL10:
 231               	.L19:
 232 00c6 2091 0000 		lds r18,epdwidth
 233 00ca 30E0      		ldi r19,0
 234               	.L10:
 235               	.LBB13:
  32:src/main.c    ****         for(int j = 0; j < 250/HEIGHT; j++) {
  33:src/main.c    ****             EINK_set_partial_red(buffer, i*epdwidth,j*HEIGHT, epdwidth,HEIGHT);
 236               		.loc 1 33 0 is_stmt 1 discriminator 3
 237 00cc 2C9D      		mul r18,r12
 238 00ce B001      		movw r22,r0
 239 00d0 2D9D      		mul r18,r13
 240 00d2 700D      		add r23,r0
 241 00d4 3C9D      		mul r19,r12
 242 00d6 700D      		add r23,r0
 243 00d8 1124      		clr r1
 244 00da 08E2      		ldi r16,lo8(40)
 245 00dc 10E0      		ldi r17,0
 246 00de AE01      		movw r20,r28
 247 00e0 C701      		movw r24,r14
 248 00e2 0E94 0000 		call EINK_set_partial_red
 249               	.LVL11:
  34:src/main.c    ****             EINK_set_partial_black(buffer, i*epdwidth,j*HEIGHT, epdwidth,HEIGHT);
GAS LISTING C:\Users\Rando\AppData\Local\Temp\ccaGBvwp.s 			page 6


 250               		.loc 1 34 0 discriminator 3
 251 00e6 2091 0000 		lds r18,epdwidth
 252 00ea 30E0      		ldi r19,0
 253 00ec 2C9D      		mul r18,r12
 254 00ee B001      		movw r22,r0
 255 00f0 2D9D      		mul r18,r13
 256 00f2 700D      		add r23,r0
 257 00f4 3C9D      		mul r19,r12
 258 00f6 700D      		add r23,r0
 259 00f8 1124      		clr r1
 260 00fa AE01      		movw r20,r28
 261 00fc C701      		movw r24,r14
 262 00fe 0E94 0000 		call EINK_set_partial_black
 263               	.LVL12:
 264 0102 A896      		adiw r28,40
  32:src/main.c    ****         for(int j = 0; j < 250/HEIGHT; j++) {
 265               		.loc 1 32 0 discriminator 3
 266 0104 C03F      		cpi r28,-16
 267 0106 D105      		cpc r29,__zero_reg__
 268 0108 01F4      		brne .L19
 269               	.LBE13:
  31:src/main.c    ****         for(int j = 0; j < 250/HEIGHT; j++) {
 270               		.loc 1 31 0 discriminator 2
 271 010a 8FEF      		ldi r24,-1
 272 010c C81A      		sub r12,r24
 273 010e D80A      		sbc r13,r24
 274               	.LVL13:
 275 0110 2091 0000 		lds r18,epdwidth
 276 0114 30E0      		ldi r19,0
 277 0116 C501      		movw r24,r10
 278 0118 B901      		movw r22,r18
 279 011a 0E94 0000 		call __divmodhi4
 280 011e C616      		cp r12,r22
 281 0120 D706      		cpc r13,r23
 282 0122 04F0      		brlt .L11
 283               	.LVL14:
 284               	.L4:
 285               	/* epilogue start */
 286               	.LBE12:
  35:src/main.c    ****         }
  36:src/main.c    ****     }
  37:src/main.c    **** }
 287               		.loc 1 37 0
 288 0124 DF91      		pop r29
 289 0126 CF91      		pop r28
 290 0128 1F91      		pop r17
 291 012a 0F91      		pop r16
 292 012c FF90      		pop r15
 293 012e EF90      		pop r14
 294               	.LVL15:
 295 0130 DF90      		pop r13
 296 0132 CF90      		pop r12
 297 0134 BF90      		pop r11
 298 0136 AF90      		pop r10
 299 0138 0895      		ret
 300               		.cfi_endproc
 301               	.LFE7:
GAS LISTING C:\Users\Rando\AppData\Local\Temp\ccaGBvwp.s 			page 7


 302               		.size	clean_buffer, .-clean_buffer
 303               	.global	__vector_17
 304               		.type	__vector_17, @function
 305               	__vector_17:
 306               	.LFB8:
  38:src/main.c    **** 
  39:src/main.c    **** 
  40:src/main.c    **** ISR(TIMER1_COMPA_vect) {
 307               		.loc 1 40 0
 308               		.cfi_startproc
 309 013a 1F92      		push r1
 310               	.LCFI24:
 311               		.cfi_def_cfa_offset 3
 312               		.cfi_offset 1, -2
 313 013c 0F92      		push r0
 314               	.LCFI25:
 315               		.cfi_def_cfa_offset 4
 316               		.cfi_offset 0, -3
 317 013e 0FB6      		in r0,__SREG__
 318 0140 0F92      		push r0
 319 0142 1124      		clr __zero_reg__
 320 0144 8F93      		push r24
 321               	.LCFI26:
 322               		.cfi_def_cfa_offset 5
 323               		.cfi_offset 24, -4
 324 0146 9F93      		push r25
 325               	.LCFI27:
 326               		.cfi_def_cfa_offset 6
 327               		.cfi_offset 25, -5
 328               	/* prologue: Signal */
 329               	/* frame size = 0 */
 330               	/* stack size = 5 */
 331               	.L__stack_usage = 5
  41:src/main.c    ****     tc++;
 332               		.loc 1 41 0
 333 0148 8091 0000 		lds r24,tc
 334 014c 9091 0000 		lds r25,tc+1
 335 0150 0196      		adiw r24,1
 336 0152 9093 0000 		sts tc+1,r25
 337 0156 8093 0000 		sts tc,r24
 338               	/* epilogue start */
  42:src/main.c    ****     if(tc == 3600000) { // countime tunni
  43:src/main.c    ****         if(batmon_soc() < 25) {
  44:src/main.c    ****             cli();
  45:src/main.c    ****             unsigned char buffer[(epdwidth / 8) * HEIGHT];
  46:src/main.c    ****             for(uint8_t x = 0; x < epdwidth; x++) {
  47:src/main.c    ****                 for (uint8_t y = 0; y < HEIGHT; y++) {
  48:src/main.c    ****                     EINK_draw_absolute_pixel(buffer,x,y,0);
  49:src/main.c    ****                 }
  50:src/main.c    ****             }
  51:src/main.c    ****             for(int i = 0; i < 122/epdwidth; i++) {
  52:src/main.c    ****                 for(int j = 0; j < 250/HEIGHT; j++) {
  53:src/main.c    ****                     EINK_set_partial_red(buffer, i*epdwidth,j*HEIGHT, epdwidth,HEIGHT);
  54:src/main.c    ****                     EINK_set_partial_black(buffer, i*epdwidth,j*HEIGHT, epdwidth,HEIGHT);
  55:src/main.c    ****                 }
  56:src/main.c    ****             }
  57:src/main.c    ****             uint8_t cv[1];
GAS LISTING C:\Users\Rando\AppData\Local\Temp\ccaGBvwp.s 			page 8


  58:src/main.c    ****             //Overwrite with no powerup set
  59:src/main.c    ****             cv[0] = (1 << CRCO) | (1 << EN_CRC) | (1 << MASK_MAX_RT);
  60:src/main.c    ****             nrf24l01_write_register(CONFIG, cv,1);
  61:src/main.c    ****             set_sleep_mode(SLEEP_MODE_PWR_DOWN);
  62:src/main.c    ****             sleep_mode();
  63:src/main.c    ****         }
  64:src/main.c    ****         tc = 0;
  65:src/main.c    ****     }
  66:src/main.c    **** }
 339               		.loc 1 66 0
 340 015a 9F91      		pop r25
 341 015c 8F91      		pop r24
 342 015e 0F90      		pop r0
 343 0160 0FBE      		out __SREG__,r0
 344 0162 0F90      		pop r0
 345 0164 1F90      		pop r1
 346 0166 1895      		reti
 347               		.cfi_endproc
 348               	.LFE8:
 349               		.size	__vector_17, .-__vector_17
 350               		.section	.text.startup,"ax",@progbits
 351               	.global	main
 352               		.type	main, @function
 353               	main:
 354               	.LFB9:
  67:src/main.c    **** 
  68:src/main.c    **** int main() {
 355               		.loc 1 68 0
 356               		.cfi_startproc
 357 0000 BF92      		push r11
 358               	.LCFI28:
 359               		.cfi_def_cfa_offset 3
 360               		.cfi_offset 11, -2
 361 0002 CF92      		push r12
 362               	.LCFI29:
 363               		.cfi_def_cfa_offset 4
 364               		.cfi_offset 12, -3
 365 0004 DF92      		push r13
 366               	.LCFI30:
 367               		.cfi_def_cfa_offset 5
 368               		.cfi_offset 13, -4
 369 0006 EF92      		push r14
 370               	.LCFI31:
 371               		.cfi_def_cfa_offset 6
 372               		.cfi_offset 14, -5
 373 0008 FF92      		push r15
 374               	.LCFI32:
 375               		.cfi_def_cfa_offset 7
 376               		.cfi_offset 15, -6
 377 000a 0F93      		push r16
 378               	.LCFI33:
 379               		.cfi_def_cfa_offset 8
 380               		.cfi_offset 16, -7
 381 000c 1F93      		push r17
 382               	.LCFI34:
 383               		.cfi_def_cfa_offset 9
 384               		.cfi_offset 17, -8
GAS LISTING C:\Users\Rando\AppData\Local\Temp\ccaGBvwp.s 			page 9


 385 000e CF93      		push r28
 386               	.LCFI35:
 387               		.cfi_def_cfa_offset 10
 388               		.cfi_offset 28, -9
 389 0010 DF93      		push r29
 390               	.LCFI36:
 391               		.cfi_def_cfa_offset 11
 392               		.cfi_offset 29, -10
 393 0012 00D0      		rcall .
 394 0014 00D0      		rcall .
 395 0016 1F92      		push __zero_reg__
 396               	.LCFI37:
 397               		.cfi_def_cfa_offset 16
 398 0018 CDB7      		in r28,__SP_L__
 399 001a DEB7      		in r29,__SP_H__
 400               	.LCFI38:
 401               		.cfi_def_cfa_register 28
 402               	/* prologue: function */
 403               	/* frame size = 5 */
 404               	/* stack size = 14 */
 405               	.L__stack_usage = 14
  69:src/main.c    **** 
  70:src/main.c    ****     //DEBUG led
  71:src/main.c    ****     DDRF = (1 << DDF0);
  72:src/main.c    **** 	
  73:src/main.c    ****     if(batmon_init()) {
  74:src/main.c    ****         batmon_config(700);
  75:src/main.c    ****         if(batmon_soc() > 25) { // Akut üle 25%? Läheme käima
  76:src/main.c    ****         
  77:src/main.c    ****             // Ja tekitame timeri, millega akut kontrollida 100ms
  78:src/main.c    ****             TIMSK1 |= (1 << OCIE1A);
  79:src/main.c    ****             TCCR1B |= (1 << WGM12) | (1<<CS10) | (1 << CS12);
  80:src/main.c    ****             OCR1A = 1562;
  81:src/main.c    ****         
  82:src/main.c    ****             //IRQ
  83:src/main.c    ****             DDRE &= ~(1 << DDE6);
  84:src/main.c    ****             EICRB |= (1<<ISC60)|(0<<ISC61);   //INT6 falling edge
  85:src/main.c    ****             EIMSK |= (1<<INT6);
  86:src/main.c    ****             sei();
  87:src/main.c    ****             
  88:src/main.c    ****             // EINK Busy
  89:src/main.c    ****             DDRD &= ~(1 << DDD3);
  90:src/main.c    **** 
  91:src/main.c    ****             SPI_init();   
  92:src/main.c    ****             EINK_init();
  93:src/main.c    ****             EINK_wait();
  94:src/main.c    ****             
  95:src/main.c    ****             uint8_t buffer[(epdwidth / 8) * HEIGHT];
  96:src/main.c    ****             clean_buffer(buffer);
  97:src/main.c    ****             EINK_wait();
  98:src/main.c    ****             
  99:src/main.c    ****             // Valgeks
 100:src/main.c    ****             EINK_send_command(DISPLAY_REFRESH);
 101:src/main.c    ****             EINK_wait();
 102:src/main.c    **** 
 103:src/main.c    ****             // Delay piisavalt, et esimese refreshi jõuaks enne ära teha
 104:src/main.c    ****             _delay_ms(15000);
GAS LISTING C:\Users\Rando\AppData\Local\Temp\ccaGBvwp.s 			page 10


 105:src/main.c    **** 
 106:src/main.c    ****             //Suvaline aadress
 107:src/main.c    ****             uint8_t address[5];
 108:src/main.c    ****             for(int i = 0; i < 5; i++) {
 109:src/main.c    ****                 address[i] = 0x12+i;
 110:src/main.c    ****             }
 111:src/main.c    ****                 
 112:src/main.c    ****             nrf24l01_init(5, address, 110, 10 ,MODE_RECIEVE);
 113:src/main.c    ****             nrf24l01_read_register(R_RX_PAYLOAD,(uint8_t *)data,10); // Esimesel korral peame puhvr
 114:src/main.c    ****             nrf24l01_reset_interrupts();    
 115:src/main.c    **** 
 116:src/main.c    ****             while(1) {
 117:src/main.c    ****                 if(data_available) {
 118:src/main.c    ****                     if(data[0] == 'D') {
 119:src/main.c    ****                         if(data[1] == 'B') {
 120:src/main.c    ****                             EINK_set_partial_black(buffer, (uint8_t)data[2], (uint8_t)data[3], epdw
 121:src/main.c    ****                             EINK_wait();
 122:src/main.c    ****                             for(uint8_t x = 0; x < epdwidth; x++) {
 123:src/main.c    ****                                 for (uint8_t y = 0; y < HEIGHT; y++) {
 124:src/main.c    ****                                     EINK_draw_absolute_pixel(buffer,x,y,0);
 125:src/main.c    ****                                 }
 126:src/main.c    ****                             }
 127:src/main.c    ****                         } else if (data[1] == 'R') {
 128:src/main.c    ****                             EINK_set_partial_red(buffer, (uint8_t)data[2], (uint8_t)data[3], epdwid
 129:src/main.c    ****                             EINK_wait();
 130:src/main.c    ****                             for(uint8_t x = 0; x < epdwidth; x++) {
 131:src/main.c    ****                                 for (uint8_t y = 0; y < HEIGHT; y++) {
 132:src/main.c    ****                                     EINK_draw_absolute_pixel(buffer,x,y,0);
 133:src/main.c    ****                                 }
 134:src/main.c    ****                             }
 135:src/main.c    ****                         }
 136:src/main.c    ****                     } else {
 137:src/main.c    ****                         if(data[0] == 'S') {
 138:src/main.c    ****                             EINK_draw_absolute_pixel(buffer,(uint8_t)data[1],(uint8_t)data[2],1);
 139:src/main.c    ****                         } else if(data[0] == 'C') {
 140:src/main.c    ****                             EINK_draw_absolute_pixel(buffer,data[1],data[2],0);
 141:src/main.c    ****                         } else if(data[0] == 'R') {
 142:src/main.c    ****                             EINK_send_command(DISPLAY_REFRESH);
 143:src/main.c    ****                             EINK_wait();
 144:src/main.c    ****                         } else if(data[0] == 'W') {
 145:src/main.c    ****                             clean_buffer(buffer);
 146:src/main.c    ****                             EINK_wait();
 147:src/main.c    ****                         }
 148:src/main.c    ****                     }
 149:src/main.c    ****                         
 150:src/main.c    ****                     nrf24l01_reset_interrupts();
 151:src/main.c    ****                     data_available = 0;
 152:src/main.c    ****                 }
 153:src/main.c    ****             }
 154:src/main.c    ****         }
 155:src/main.c    ****     }
 156:src/main.c    ****     return 0;
 157:src/main.c    **** }...
 406               		.loc 1 157 0
 407 001c 0DB7      		in r16,__SP_L__
 408 001e 1EB7      		in r17,__SP_H__
  71:src/main.c    ****     DDRF = (1 << DDF0);
GAS LISTING C:\Users\Rando\AppData\Local\Temp\ccaGBvwp.s 			page 11


 409               		.loc 1 71 0
 410 0020 81E0      		ldi r24,lo8(1)
 411 0022 80BB      		out 0x10,r24
  73:src/main.c    ****     if(batmon_init()) {
 412               		.loc 1 73 0
 413 0024 0E94 0000 		call batmon_init
 414               	.LVL16:
 415 0028 8111      		cpse r24,__zero_reg__
 416 002a 00C0      		rjmp .L49
 417               	.L22:
 418               		.loc 1 157 0
 419 002c 80E0      		ldi r24,0
 420 002e 90E0      		ldi r25,0
 421 0030 0FB6      		in __tmp_reg__,__SREG__
 422 0032 F894      		cli
 423 0034 1EBF      		out __SP_H__,r17
 424 0036 0FBE      		out __SREG__,__tmp_reg__
 425 0038 0DBF      		out __SP_L__,r16
 426               	/* epilogue start */
 427 003a 0F90      		pop __tmp_reg__
 428 003c 0F90      		pop __tmp_reg__
 429 003e 0F90      		pop __tmp_reg__
 430 0040 0F90      		pop __tmp_reg__
 431 0042 0F90      		pop __tmp_reg__
 432 0044 DF91      		pop r29
 433 0046 CF91      		pop r28
 434 0048 1F91      		pop r17
 435 004a 0F91      		pop r16
 436 004c FF90      		pop r15
 437 004e EF90      		pop r14
 438 0050 DF90      		pop r13
 439 0052 CF90      		pop r12
 440 0054 BF90      		pop r11
 441 0056 0895      		ret
 442               	.L49:
  74:src/main.c    ****         batmon_config(700);
 443               		.loc 1 74 0
 444 0058 8CEB      		ldi r24,lo8(-68)
 445 005a 92E0      		ldi r25,lo8(2)
 446 005c 0E94 0000 		call batmon_config
 447               	.LVL17:
  75:src/main.c    ****         if(batmon_soc() > 25) { // Akut üle 25%? Läheme käima
 448               		.loc 1 75 0
 449 0060 0E94 0000 		call batmon_soc
 450               	.LVL18:
 451 0064 8A31      		cpi r24,lo8(26)
 452 0066 00F0      		brlo .L22
 453               	.LBB14:
  78:src/main.c    ****             TIMSK1 |= (1 << OCIE1A);
 454               		.loc 1 78 0 discriminator 1
 455 0068 8091 6F00 		lds r24,111
 456 006c 8260      		ori r24,lo8(2)
 457 006e 8093 6F00 		sts 111,r24
  79:src/main.c    ****             TCCR1B |= (1 << WGM12) | (1<<CS10) | (1 << CS12);
 458               		.loc 1 79 0 discriminator 1
 459 0072 8091 8100 		lds r24,129
 460 0076 8D60      		ori r24,lo8(13)
GAS LISTING C:\Users\Rando\AppData\Local\Temp\ccaGBvwp.s 			page 12


 461 0078 8093 8100 		sts 129,r24
  80:src/main.c    ****             OCR1A = 1562;
 462               		.loc 1 80 0 discriminator 1
 463 007c 8AE1      		ldi r24,lo8(26)
 464 007e 96E0      		ldi r25,lo8(6)
 465 0080 9093 8900 		sts 136+1,r25
 466 0084 8093 8800 		sts 136,r24
  83:src/main.c    ****             DDRE &= ~(1 << DDE6);
 467               		.loc 1 83 0 discriminator 1
 468 0088 6E98      		cbi 0xd,6
  84:src/main.c    ****             EICRB |= (1<<ISC60)|(0<<ISC61);   //INT6 falling edge
 469               		.loc 1 84 0 discriminator 1
 470 008a 8091 6A00 		lds r24,106
 471 008e 8061      		ori r24,lo8(16)
 472 0090 8093 6A00 		sts 106,r24
  85:src/main.c    ****             EIMSK |= (1<<INT6);
 473               		.loc 1 85 0 discriminator 1
 474 0094 EE9A      		sbi 0x1d,6
  86:src/main.c    ****             sei();
 475               		.loc 1 86 0 discriminator 1
 476               	/* #APP */
 477               	 ;  86 "src/main.c" 1
 478 0096 7894      		sei
 479               	 ;  0 "" 2
  89:src/main.c    ****             DDRD &= ~(1 << DDD3);
 480               		.loc 1 89 0 discriminator 1
 481               	/* #NOAPP */
 482 0098 5398      		cbi 0xa,3
  91:src/main.c    ****             SPI_init();   
 483               		.loc 1 91 0 discriminator 1
 484 009a 0E94 0000 		call SPI_init
 485               	.LVL19:
  92:src/main.c    ****             EINK_init();
 486               		.loc 1 92 0 discriminator 1
 487 009e 0E94 0000 		call EINK_init
 488               	.LVL20:
  93:src/main.c    ****             EINK_wait();
 489               		.loc 1 93 0 discriminator 1
 490 00a2 0E94 0000 		call EINK_wait
 491               	.LVL21:
  95:src/main.c    ****             uint8_t buffer[(epdwidth / 8) * HEIGHT];
 492               		.loc 1 95 0 discriminator 1
 493 00a6 8091 0000 		lds r24,epdwidth
 494 00aa 8695      		lsr r24
 495 00ac 8695      		lsr r24
 496 00ae 8695      		lsr r24
 497               	.LVL22:
 498 00b0 2DB7      		in r18,__SP_L__
 499 00b2 3EB7      		in r19,__SP_H__
 500 00b4 98E2      		ldi r25,lo8(40)
 501 00b6 899F      		mul r24,r25
 502 00b8 2019      		sub r18,r0
 503 00ba 3109      		sbc r19,r1
 504 00bc 1124      		clr __zero_reg__
 505 00be 0FB6      		in __tmp_reg__,__SREG__
 506 00c0 F894      		cli
 507 00c2 3EBF      		out __SP_H__,r19
GAS LISTING C:\Users\Rando\AppData\Local\Temp\ccaGBvwp.s 			page 13


 508 00c4 0FBE      		out __SREG__,__tmp_reg__
 509 00c6 2DBF      		out __SP_L__,r18
 510 00c8 2F5F      		subi r18,-1
 511 00ca 3F4F      		sbci r19,-1
 512 00cc 7901      		movw r14,r18
 513               	.LVL23:
  96:src/main.c    ****             clean_buffer(buffer);
 514               		.loc 1 96 0 discriminator 1
 515 00ce C901      		movw r24,r18
 516               	.LVL24:
 517 00d0 0E94 0000 		call clean_buffer
 518               	.LVL25:
  97:src/main.c    ****             EINK_wait();
 519               		.loc 1 97 0 discriminator 1
 520 00d4 0E94 0000 		call EINK_wait
 521               	.LVL26:
 100:src/main.c    ****             EINK_send_command(DISPLAY_REFRESH);
 522               		.loc 1 100 0 discriminator 1
 523 00d8 82E1      		ldi r24,lo8(18)
 524 00da 0E94 0000 		call EINK_send_command
 525               	.LVL27:
 101:src/main.c    ****             EINK_wait();
 526               		.loc 1 101 0 discriminator 1
 527 00de 0E94 0000 		call EINK_wait
 528               	.LVL28:
 529               	.LBB15:
 530               	.LBB16:
 531               		.file 2 "c:\\avr toolchain\\avr\\include\\util\\delay.h"
   1:c:\avr toolchain\avr\include\util\delay.h **** /* Copyright (c) 2002, Marek Michalkiewicz
   2:c:\avr toolchain\avr\include\util\delay.h ****    Copyright (c) 2004,2005,2007 Joerg Wunsch
   3:c:\avr toolchain\avr\include\util\delay.h ****    Copyright (c) 2007  Florin-Viorel Petrov
   4:c:\avr toolchain\avr\include\util\delay.h ****    All rights reserved.
   5:c:\avr toolchain\avr\include\util\delay.h **** 
   6:c:\avr toolchain\avr\include\util\delay.h ****    Redistribution and use in source and binary forms, with or without
   7:c:\avr toolchain\avr\include\util\delay.h ****    modification, are permitted provided that the following conditions are met:
   8:c:\avr toolchain\avr\include\util\delay.h **** 
   9:c:\avr toolchain\avr\include\util\delay.h ****    * Redistributions of source code must retain the above copyright
  10:c:\avr toolchain\avr\include\util\delay.h ****      notice, this list of conditions and the following disclaimer.
  11:c:\avr toolchain\avr\include\util\delay.h **** 
  12:c:\avr toolchain\avr\include\util\delay.h ****    * Redistributions in binary form must reproduce the above copyright
  13:c:\avr toolchain\avr\include\util\delay.h ****      notice, this list of conditions and the following disclaimer in
  14:c:\avr toolchain\avr\include\util\delay.h ****      the documentation and/or other materials provided with the
  15:c:\avr toolchain\avr\include\util\delay.h ****      distribution.
  16:c:\avr toolchain\avr\include\util\delay.h **** 
  17:c:\avr toolchain\avr\include\util\delay.h ****    * Neither the name of the copyright holders nor the names of
  18:c:\avr toolchain\avr\include\util\delay.h ****      contributors may be used to endorse or promote products derived
  19:c:\avr toolchain\avr\include\util\delay.h ****      from this software without specific prior written permission.
  20:c:\avr toolchain\avr\include\util\delay.h **** 
  21:c:\avr toolchain\avr\include\util\delay.h ****   THIS SOFTWARE IS PROVIDED BY THE COPYRIGHT HOLDERS AND CONTRIBUTORS "AS IS"
  22:c:\avr toolchain\avr\include\util\delay.h ****   AND ANY EXPRESS OR IMPLIED WARRANTIES, INCLUDING, BUT NOT LIMITED TO, THE
  23:c:\avr toolchain\avr\include\util\delay.h ****   IMPLIED WARRANTIES OF MERCHANTABILITY AND FITNESS FOR A PARTICULAR PURPOSE
  24:c:\avr toolchain\avr\include\util\delay.h ****   ARE DISCLAIMED. IN NO EVENT SHALL THE COPYRIGHT OWNER OR CONTRIBUTORS BE
  25:c:\avr toolchain\avr\include\util\delay.h ****   LIABLE FOR ANY DIRECT, INDIRECT, INCIDENTAL, SPECIAL, EXEMPLARY, OR
  26:c:\avr toolchain\avr\include\util\delay.h ****   CONSEQUENTIAL DAMAGES (INCLUDING, BUT NOT LIMITED TO, PROCUREMENT OF
  27:c:\avr toolchain\avr\include\util\delay.h ****   SUBSTITUTE GOODS OR SERVICES; LOSS OF USE, DATA, OR PROFITS; OR BUSINESS
  28:c:\avr toolchain\avr\include\util\delay.h ****   INTERRUPTION) HOWEVER CAUSED AND ON ANY THEORY OF LIABILITY, WHETHER IN
  29:c:\avr toolchain\avr\include\util\delay.h ****   CONTRACT, STRICT LIABILITY, OR TORT (INCLUDING NEGLIGENCE OR OTHERWISE)
GAS LISTING C:\Users\Rando\AppData\Local\Temp\ccaGBvwp.s 			page 14


  30:c:\avr toolchain\avr\include\util\delay.h ****   ARISING IN ANY WAY OUT OF THE USE OF THIS SOFTWARE, EVEN IF ADVISED OF THE
  31:c:\avr toolchain\avr\include\util\delay.h ****   POSSIBILITY OF SUCH DAMAGE. */
  32:c:\avr toolchain\avr\include\util\delay.h **** 
  33:c:\avr toolchain\avr\include\util\delay.h **** /* $Id$ */
  34:c:\avr toolchain\avr\include\util\delay.h **** 
  35:c:\avr toolchain\avr\include\util\delay.h **** #ifndef _UTIL_DELAY_H_
  36:c:\avr toolchain\avr\include\util\delay.h **** #define _UTIL_DELAY_H_ 1
  37:c:\avr toolchain\avr\include\util\delay.h **** 
  38:c:\avr toolchain\avr\include\util\delay.h **** #ifndef __DOXYGEN__
  39:c:\avr toolchain\avr\include\util\delay.h **** #  ifndef __HAS_DELAY_CYCLES
  40:c:\avr toolchain\avr\include\util\delay.h **** #    define __HAS_DELAY_CYCLES 1
  41:c:\avr toolchain\avr\include\util\delay.h **** #  endif
  42:c:\avr toolchain\avr\include\util\delay.h **** #endif  /* __DOXYGEN__ */
  43:c:\avr toolchain\avr\include\util\delay.h **** 
  44:c:\avr toolchain\avr\include\util\delay.h **** #include <inttypes.h>
  45:c:\avr toolchain\avr\include\util\delay.h **** #include <util/delay_basic.h>
  46:c:\avr toolchain\avr\include\util\delay.h **** #include <math.h>
  47:c:\avr toolchain\avr\include\util\delay.h **** 
  48:c:\avr toolchain\avr\include\util\delay.h **** /** \file */
  49:c:\avr toolchain\avr\include\util\delay.h **** /** \defgroup util_delay <util/delay.h>: Convenience functions for busy-wait delay loops
  50:c:\avr toolchain\avr\include\util\delay.h ****     \code
  51:c:\avr toolchain\avr\include\util\delay.h ****     #define F_CPU 1000000UL  // 1 MHz
  52:c:\avr toolchain\avr\include\util\delay.h ****     //#define F_CPU 14.7456E6
  53:c:\avr toolchain\avr\include\util\delay.h ****     #include <util/delay.h>
  54:c:\avr toolchain\avr\include\util\delay.h ****     \endcode
  55:c:\avr toolchain\avr\include\util\delay.h **** 
  56:c:\avr toolchain\avr\include\util\delay.h ****     \note As an alternative method, it is possible to pass the
  57:c:\avr toolchain\avr\include\util\delay.h ****     F_CPU macro down to the compiler from the Makefile.
  58:c:\avr toolchain\avr\include\util\delay.h ****     Obviously, in that case, no \c \#define statement should be
  59:c:\avr toolchain\avr\include\util\delay.h ****     used.
  60:c:\avr toolchain\avr\include\util\delay.h **** 
  61:c:\avr toolchain\avr\include\util\delay.h ****     The functions in this header file are wrappers around the basic
  62:c:\avr toolchain\avr\include\util\delay.h ****     busy-wait functions from <util/delay_basic.h>.  They are meant as
  63:c:\avr toolchain\avr\include\util\delay.h ****     convenience functions where actual time values can be specified
  64:c:\avr toolchain\avr\include\util\delay.h ****     rather than a number of cycles to wait for.  The idea behind is
  65:c:\avr toolchain\avr\include\util\delay.h ****     that compile-time constant expressions will be eliminated by
  66:c:\avr toolchain\avr\include\util\delay.h ****     compiler optimization so floating-point expressions can be used
  67:c:\avr toolchain\avr\include\util\delay.h ****     to calculate the number of delay cycles needed based on the CPU
  68:c:\avr toolchain\avr\include\util\delay.h ****     frequency passed by the macro F_CPU.
  69:c:\avr toolchain\avr\include\util\delay.h **** 
  70:c:\avr toolchain\avr\include\util\delay.h ****     \note In order for these functions to work as intended, compiler
  71:c:\avr toolchain\avr\include\util\delay.h ****     optimizations <em>must</em> be enabled, and the delay time
  72:c:\avr toolchain\avr\include\util\delay.h ****     <em>must</em> be an expression that is a known constant at
  73:c:\avr toolchain\avr\include\util\delay.h ****     compile-time.  If these requirements are not met, the resulting
  74:c:\avr toolchain\avr\include\util\delay.h ****     delay will be much longer (and basically unpredictable), and
  75:c:\avr toolchain\avr\include\util\delay.h ****     applications that otherwise do not use floating-point calculations
  76:c:\avr toolchain\avr\include\util\delay.h ****     will experience severe code bloat by the floating-point library
  77:c:\avr toolchain\avr\include\util\delay.h ****     routines linked into the application.
  78:c:\avr toolchain\avr\include\util\delay.h **** 
  79:c:\avr toolchain\avr\include\util\delay.h ****     The functions available allow the specification of microsecond, and
  80:c:\avr toolchain\avr\include\util\delay.h ****     millisecond delays directly, using the application-supplied macro
  81:c:\avr toolchain\avr\include\util\delay.h ****     F_CPU as the CPU clock frequency (in Hertz).
  82:c:\avr toolchain\avr\include\util\delay.h **** 
  83:c:\avr toolchain\avr\include\util\delay.h **** */
  84:c:\avr toolchain\avr\include\util\delay.h **** 
  85:c:\avr toolchain\avr\include\util\delay.h **** #if !defined(__DOXYGEN__)
  86:c:\avr toolchain\avr\include\util\delay.h **** static __inline__ void _delay_us(double __us) __attribute__((__always_inline__));
GAS LISTING C:\Users\Rando\AppData\Local\Temp\ccaGBvwp.s 			page 15


  87:c:\avr toolchain\avr\include\util\delay.h **** static __inline__ void _delay_ms(double __ms) __attribute__((__always_inline__));
  88:c:\avr toolchain\avr\include\util\delay.h **** #endif
  89:c:\avr toolchain\avr\include\util\delay.h **** 
  90:c:\avr toolchain\avr\include\util\delay.h **** #ifndef F_CPU
  91:c:\avr toolchain\avr\include\util\delay.h **** /* prevent compiler error by supplying a default */
  92:c:\avr toolchain\avr\include\util\delay.h **** # warning "F_CPU not defined for <util/delay.h>"
  93:c:\avr toolchain\avr\include\util\delay.h **** /** \ingroup util_delay
  94:c:\avr toolchain\avr\include\util\delay.h ****     \def F_CPU
  95:c:\avr toolchain\avr\include\util\delay.h ****     \brief CPU frequency in Hz
  96:c:\avr toolchain\avr\include\util\delay.h **** 
  97:c:\avr toolchain\avr\include\util\delay.h ****     The macro F_CPU specifies the CPU frequency to be considered by
  98:c:\avr toolchain\avr\include\util\delay.h ****     the delay macros.  This macro is normally supplied by the
  99:c:\avr toolchain\avr\include\util\delay.h ****     environment (e.g. from within a project header, or the project's
 100:c:\avr toolchain\avr\include\util\delay.h ****     Makefile).  The value 1 MHz here is only provided as a "vanilla"
 101:c:\avr toolchain\avr\include\util\delay.h ****     fallback if no such user-provided definition could be found.
 102:c:\avr toolchain\avr\include\util\delay.h **** 
 103:c:\avr toolchain\avr\include\util\delay.h ****     In terms of the delay functions, the CPU frequency can be given as
 104:c:\avr toolchain\avr\include\util\delay.h ****     a floating-point constant (e.g. 3.6864E6 for 3.6864 MHz).
 105:c:\avr toolchain\avr\include\util\delay.h ****     However, the macros in <util/setbaud.h> require it to be an
 106:c:\avr toolchain\avr\include\util\delay.h ****     integer value.
 107:c:\avr toolchain\avr\include\util\delay.h ****  */
 108:c:\avr toolchain\avr\include\util\delay.h **** # define F_CPU 1000000UL
 109:c:\avr toolchain\avr\include\util\delay.h **** #endif
 110:c:\avr toolchain\avr\include\util\delay.h **** 
 111:c:\avr toolchain\avr\include\util\delay.h **** #ifndef __OPTIMIZE__
 112:c:\avr toolchain\avr\include\util\delay.h **** # warning "Compiler optimizations disabled; functions from <util/delay.h> won't work as designed"
 113:c:\avr toolchain\avr\include\util\delay.h **** #endif
 114:c:\avr toolchain\avr\include\util\delay.h **** 
 115:c:\avr toolchain\avr\include\util\delay.h **** #if __HAS_DELAY_CYCLES && defined(__OPTIMIZE__) && \
 116:c:\avr toolchain\avr\include\util\delay.h ****   !defined(__DELAY_BACKWARD_COMPATIBLE__) &&	   \
 117:c:\avr toolchain\avr\include\util\delay.h ****   __STDC_HOSTED__
 118:c:\avr toolchain\avr\include\util\delay.h **** #  include <math.h>
 119:c:\avr toolchain\avr\include\util\delay.h **** #endif
 120:c:\avr toolchain\avr\include\util\delay.h **** 
 121:c:\avr toolchain\avr\include\util\delay.h **** /**
 122:c:\avr toolchain\avr\include\util\delay.h ****    \ingroup util_delay
 123:c:\avr toolchain\avr\include\util\delay.h **** 
 124:c:\avr toolchain\avr\include\util\delay.h ****    Perform a delay of \c __ms milliseconds, using _delay_loop_2().
 125:c:\avr toolchain\avr\include\util\delay.h **** 
 126:c:\avr toolchain\avr\include\util\delay.h ****    The macro F_CPU is supposed to be defined to a
 127:c:\avr toolchain\avr\include\util\delay.h ****    constant defining the CPU clock frequency (in Hertz).
 128:c:\avr toolchain\avr\include\util\delay.h **** 
 129:c:\avr toolchain\avr\include\util\delay.h ****    The maximal possible delay is 262.14 ms / F_CPU in MHz.
 130:c:\avr toolchain\avr\include\util\delay.h **** 
 131:c:\avr toolchain\avr\include\util\delay.h ****    When the user request delay which exceed the maximum possible one,
 132:c:\avr toolchain\avr\include\util\delay.h ****    _delay_ms() provides a decreased resolution functionality. In this
 133:c:\avr toolchain\avr\include\util\delay.h ****    mode _delay_ms() will work with a resolution of 1/10 ms, providing
 134:c:\avr toolchain\avr\include\util\delay.h ****    delays up to 6.5535 seconds (independent from CPU frequency).  The
 135:c:\avr toolchain\avr\include\util\delay.h ****    user will not be informed about decreased resolution.
 136:c:\avr toolchain\avr\include\util\delay.h **** 
 137:c:\avr toolchain\avr\include\util\delay.h ****    If the avr-gcc toolchain has __builtin_avr_delay_cycles()
 138:c:\avr toolchain\avr\include\util\delay.h ****    support, maximal possible delay is 4294967.295 ms/ F_CPU in MHz. For
 139:c:\avr toolchain\avr\include\util\delay.h ****    values greater than the maximal possible delay, overflows results in
 140:c:\avr toolchain\avr\include\util\delay.h ****    no delay i.e., 0ms.
 141:c:\avr toolchain\avr\include\util\delay.h **** 
 142:c:\avr toolchain\avr\include\util\delay.h ****    Conversion of \c __ms into clock cycles may not always result in
 143:c:\avr toolchain\avr\include\util\delay.h ****    integer.  By default, the clock cycles rounded up to next
GAS LISTING C:\Users\Rando\AppData\Local\Temp\ccaGBvwp.s 			page 16


 144:c:\avr toolchain\avr\include\util\delay.h ****    integer. This ensures that the user gets at least \c __ms
 145:c:\avr toolchain\avr\include\util\delay.h ****    microseconds of delay.
 146:c:\avr toolchain\avr\include\util\delay.h **** 
 147:c:\avr toolchain\avr\include\util\delay.h ****    Alternatively, by defining the macro \c __DELAY_ROUND_DOWN__, or
 148:c:\avr toolchain\avr\include\util\delay.h ****    \c __DELAY_ROUND_CLOSEST__, before including this header file, the
 149:c:\avr toolchain\avr\include\util\delay.h ****    algorithm can be made to round down, or round to closest integer,
 150:c:\avr toolchain\avr\include\util\delay.h ****    respectively.
 151:c:\avr toolchain\avr\include\util\delay.h **** 
 152:c:\avr toolchain\avr\include\util\delay.h ****    \note
 153:c:\avr toolchain\avr\include\util\delay.h **** 
 154:c:\avr toolchain\avr\include\util\delay.h ****    The implementation of _delay_ms() based on
 155:c:\avr toolchain\avr\include\util\delay.h ****    __builtin_avr_delay_cycles() is not backward compatible with older
 156:c:\avr toolchain\avr\include\util\delay.h ****    implementations.  In order to get functionality backward compatible
 157:c:\avr toolchain\avr\include\util\delay.h ****    with previous versions, the macro \c "__DELAY_BACKWARD_COMPATIBLE__"
 158:c:\avr toolchain\avr\include\util\delay.h ****    must be defined before including this header file. Also, the
 159:c:\avr toolchain\avr\include\util\delay.h ****    backward compatible algorithm will be chosen if the code is
 160:c:\avr toolchain\avr\include\util\delay.h ****    compiled in a <em>freestanding environment</em> (GCC option
 161:c:\avr toolchain\avr\include\util\delay.h ****    \c -ffreestanding), as the math functions required for rounding are
 162:c:\avr toolchain\avr\include\util\delay.h ****    not available to the compiler then.
 163:c:\avr toolchain\avr\include\util\delay.h **** 
 164:c:\avr toolchain\avr\include\util\delay.h ****  */
 165:c:\avr toolchain\avr\include\util\delay.h **** void
 166:c:\avr toolchain\avr\include\util\delay.h **** _delay_ms(double __ms)
 167:c:\avr toolchain\avr\include\util\delay.h **** {
 168:c:\avr toolchain\avr\include\util\delay.h **** 	double __tmp ;
 169:c:\avr toolchain\avr\include\util\delay.h **** #if __HAS_DELAY_CYCLES && defined(__OPTIMIZE__) && \
 170:c:\avr toolchain\avr\include\util\delay.h ****   !defined(__DELAY_BACKWARD_COMPATIBLE__) &&	   \
 171:c:\avr toolchain\avr\include\util\delay.h ****   __STDC_HOSTED__
 172:c:\avr toolchain\avr\include\util\delay.h **** 	uint32_t __ticks_dc;
 173:c:\avr toolchain\avr\include\util\delay.h **** 	extern void __builtin_avr_delay_cycles(unsigned long);
 174:c:\avr toolchain\avr\include\util\delay.h **** 	__tmp = ((F_CPU) / 1e3) * __ms;
 175:c:\avr toolchain\avr\include\util\delay.h **** 
 176:c:\avr toolchain\avr\include\util\delay.h **** 	#if defined(__DELAY_ROUND_DOWN__)
 177:c:\avr toolchain\avr\include\util\delay.h **** 		__ticks_dc = (uint32_t)fabs(__tmp);
 178:c:\avr toolchain\avr\include\util\delay.h **** 
 179:c:\avr toolchain\avr\include\util\delay.h **** 	#elif defined(__DELAY_ROUND_CLOSEST__)
 180:c:\avr toolchain\avr\include\util\delay.h **** 		__ticks_dc = (uint32_t)(fabs(__tmp)+0.5);
 181:c:\avr toolchain\avr\include\util\delay.h **** 
 182:c:\avr toolchain\avr\include\util\delay.h **** 	#else
 183:c:\avr toolchain\avr\include\util\delay.h **** 		//round up by default
 184:c:\avr toolchain\avr\include\util\delay.h **** 		__ticks_dc = (uint32_t)(ceil(fabs(__tmp)));
 185:c:\avr toolchain\avr\include\util\delay.h **** 	#endif
 186:c:\avr toolchain\avr\include\util\delay.h **** 
 187:c:\avr toolchain\avr\include\util\delay.h **** 	__builtin_avr_delay_cycles(__ticks_dc);
 532               		.loc 2 187 0 discriminator 1
 533 00e2 3FEF      		ldi r19,lo8(39999999)
 534 00e4 89E5      		ldi r24,hi8(39999999)
 535 00e6 92E6      		ldi r25,hlo8(39999999)
 536 00e8 22E0      		ldi r18,hhi8(39999999)
 537 00ea 3150      	1:	subi r19,1
 538 00ec 8040      		sbci r24,0
 539 00ee 9040      		sbci r25,0
 540 00f0 2040      		sbci r18,0
 541 00f2 01F4      		brne 1b
 542 00f4 00C0      		rjmp .
 543 00f6 0000      		nop
 544               	.LVL29:
GAS LISTING C:\Users\Rando\AppData\Local\Temp\ccaGBvwp.s 			page 17


 545               	.LBE16:
 546               	.LBE15:
 547               	.LBB17:
 109:src/main.c    ****                 address[i] = 0x12+i;
 548               		.loc 1 109 0 discriminator 1
 549 00f8 82E1      		ldi r24,lo8(18)
 550 00fa 8983      		std Y+1,r24
 551               	.LVL30:
 552 00fc 83E1      		ldi r24,lo8(19)
 553 00fe 8A83      		std Y+2,r24
 554               	.LVL31:
 555 0100 84E1      		ldi r24,lo8(20)
 556 0102 8B83      		std Y+3,r24
 557               	.LVL32:
 558 0104 85E1      		ldi r24,lo8(21)
 559 0106 8C83      		std Y+4,r24
 560               	.LVL33:
 561 0108 86E1      		ldi r24,lo8(22)
 562 010a 8D83      		std Y+5,r24
 563               	.LVL34:
 564               	.LBE17:
 112:src/main.c    ****             nrf24l01_init(5, address, 110, 10 ,MODE_RECIEVE);
 565               		.loc 1 112 0 discriminator 1
 566 010c 01E0      		ldi r16,lo8(1)
 567 010e 2AE0      		ldi r18,lo8(10)
 568 0110 4EE6      		ldi r20,lo8(110)
 569 0112 BE01      		movw r22,r28
 570 0114 6F5F      		subi r22,-1
 571 0116 7F4F      		sbci r23,-1
 572 0118 85E0      		ldi r24,lo8(5)
 573 011a 0E94 0000 		call nrf24l01_init
 574               	.LVL35:
 113:src/main.c    ****             nrf24l01_read_register(R_RX_PAYLOAD,(uint8_t *)data,10); // Esimesel korral peame puhvr
 575               		.loc 1 113 0 discriminator 1
 576 011e 4AE0      		ldi r20,lo8(10)
 577 0120 60E0      		ldi r22,lo8(data)
 578 0122 70E0      		ldi r23,hi8(data)
 579 0124 81E6      		ldi r24,lo8(97)
 580 0126 0E94 0000 		call nrf24l01_read_register
 581               	.LVL36:
 114:src/main.c    ****             nrf24l01_reset_interrupts();    
 582               		.loc 1 114 0 discriminator 1
 583 012a 0E94 0000 		call nrf24l01_reset_interrupts
 584               	.LVL37:
 585               	.L23:
 117:src/main.c    ****                 if(data_available) {
 586               		.loc 1 117 0
 587 012e 8091 0000 		lds r24,data_available
 588 0132 8823      		tst r24
 589 0134 01F0      		breq .L23
 118:src/main.c    ****                     if(data[0] == 'D') {
 590               		.loc 1 118 0
 591 0136 8091 0000 		lds r24,data
 592 013a 8434      		cpi r24,lo8(68)
 593 013c 01F0      		breq .L50
 137:src/main.c    ****                         if(data[0] == 'S') {
 594               		.loc 1 137 0
GAS LISTING C:\Users\Rando\AppData\Local\Temp\ccaGBvwp.s 			page 18


 595 013e 8091 0000 		lds r24,data
 596 0142 8335      		cpi r24,lo8(83)
 597 0144 01F4      		brne .+2
 598 0146 00C0      		rjmp .L51
 139:src/main.c    ****                         } else if(data[0] == 'C') {
 599               		.loc 1 139 0
 600 0148 8091 0000 		lds r24,data
 601 014c 8334      		cpi r24,lo8(67)
 602 014e 01F4      		brne .+2
 603 0150 00C0      		rjmp .L52
 141:src/main.c    ****                         } else if(data[0] == 'R') {
 604               		.loc 1 141 0
 605 0152 8091 0000 		lds r24,data
 606 0156 8235      		cpi r24,lo8(82)
 607 0158 01F4      		brne .+2
 608 015a 00C0      		rjmp .L53
 144:src/main.c    ****                         } else if(data[0] == 'W') {
 609               		.loc 1 144 0
 610 015c 8091 0000 		lds r24,data
 611 0160 8735      		cpi r24,lo8(87)
 612 0162 01F4      		brne .+2
 613 0164 00C0      		rjmp .L54
 614               	.L27:
 150:src/main.c    ****                     nrf24l01_reset_interrupts();
 615               		.loc 1 150 0
 616 0166 0E94 0000 		call nrf24l01_reset_interrupts
 617               	.LVL38:
 151:src/main.c    ****                     data_available = 0;
 618               		.loc 1 151 0
 619 016a 1092 0000 		sts data_available,__zero_reg__
 620 016e 00C0      		rjmp .L23
 621               	.L50:
 119:src/main.c    ****                         if(data[1] == 'B') {
 622               		.loc 1 119 0
 623 0170 8091 0000 		lds r24,data+1
 624 0174 8234      		cpi r24,lo8(66)
 625 0176 01F4      		brne .+2
 626 0178 00C0      		rjmp .L55
 127:src/main.c    ****                         } else if (data[1] == 'R') {
 627               		.loc 1 127 0
 628 017a 8091 0000 		lds r24,data+1
 629 017e 8235      		cpi r24,lo8(82)
 630 0180 01F4      		brne .L27
 128:src/main.c    ****                             EINK_set_partial_red(buffer, (uint8_t)data[2], (uint8_t)data[3], epdwid
 631               		.loc 1 128 0
 632 0182 4091 0000 		lds r20,data+3
 633 0186 6091 0000 		lds r22,data+2
 634 018a 2091 0000 		lds r18,epdwidth
 635 018e 30E0      		ldi r19,0
 636 0190 50E0      		ldi r21,0
 637 0192 70E0      		ldi r23,0
 638 0194 08E2      		ldi r16,lo8(40)
 639 0196 10E0      		ldi r17,0
 640 0198 C701      		movw r24,r14
 641 019a 0E94 0000 		call EINK_set_partial_red
 642               	.LVL39:
 129:src/main.c    ****                             EINK_wait();
GAS LISTING C:\Users\Rando\AppData\Local\Temp\ccaGBvwp.s 			page 19


 643               		.loc 1 129 0
 644 019e 0E94 0000 		call EINK_wait
 645               	.LVL40:
 646               	.LBB18:
 130:src/main.c    ****                             for(uint8_t x = 0; x < epdwidth; x++) {
 647               		.loc 1 130 0
 648 01a2 8091 0000 		lds r24,epdwidth
 649 01a6 8823      		tst r24
 650 01a8 01F0      		breq .L27
 130:src/main.c    ****                             for(uint8_t x = 0; x < epdwidth; x++) {
 651               		.loc 1 130 0 is_stmt 0 discriminator 3
 652 01aa B12C      		mov r11,__zero_reg__
 653               	.LVL41:
 654               	.L32:
 655 01ac CB2C      		mov r12,r11
 656 01ae D12C      		mov r13,__zero_reg__
 657 01b0 00E0      		ldi r16,0
 658 01b2 10E0      		ldi r17,0
 659               	.L31:
 660               	.LVL42:
 661               	.LBB19:
 132:src/main.c    ****                                     EINK_draw_absolute_pixel(buffer,x,y,0);
 662               		.loc 1 132 0 is_stmt 1 discriminator 3
 663 01b4 20E0      		ldi r18,0
 664 01b6 30E0      		ldi r19,0
 665 01b8 A801      		movw r20,r16
 666 01ba B601      		movw r22,r12
 667 01bc C701      		movw r24,r14
 668 01be 0E94 0000 		call EINK_draw_absolute_pixel
 669               	.LVL43:
 670 01c2 0F5F      		subi r16,-1
 671 01c4 1F4F      		sbci r17,-1
 672               	.LVL44:
 131:src/main.c    ****                                 for (uint8_t y = 0; y < HEIGHT; y++) {
 673               		.loc 1 131 0 discriminator 3
 674 01c6 0832      		cpi r16,40
 675 01c8 1105      		cpc r17,__zero_reg__
 676 01ca 01F4      		brne .L31
 677               	.LBE19:
 130:src/main.c    ****                             for(uint8_t x = 0; x < epdwidth; x++) {
 678               		.loc 1 130 0 discriminator 2
 679 01cc B394      		inc r11
 680               	.LVL45:
 681 01ce 8091 0000 		lds r24,epdwidth
 682 01d2 B816      		cp r11,r24
 683 01d4 00F0      		brlo .L32
 684 01d6 00C0      		rjmp .L27
 685               	.LVL46:
 686               	.L51:
 687               	.LBE18:
 138:src/main.c    ****                             EINK_draw_absolute_pixel(buffer,(uint8_t)data[1],(uint8_t)data[2],1);
 688               		.loc 1 138 0
 689 01d8 4091 0000 		lds r20,data+2
 690 01dc 6091 0000 		lds r22,data+1
 691 01e0 50E0      		ldi r21,0
 692 01e2 70E0      		ldi r23,0
 693 01e4 21E0      		ldi r18,lo8(1)
GAS LISTING C:\Users\Rando\AppData\Local\Temp\ccaGBvwp.s 			page 20


 694 01e6 30E0      		ldi r19,0
 695 01e8 C701      		movw r24,r14
 696 01ea 0E94 0000 		call EINK_draw_absolute_pixel
 697               	.LVL47:
 698 01ee 00C0      		rjmp .L27
 699               	.L52:
 140:src/main.c    ****                             EINK_draw_absolute_pixel(buffer,data[1],data[2],0);
 700               		.loc 1 140 0
 701 01f0 4091 0000 		lds r20,data+2
 702 01f4 6091 0000 		lds r22,data+1
 703 01f8 50E0      		ldi r21,0
 704 01fa 70E0      		ldi r23,0
 705 01fc 20E0      		ldi r18,0
 706 01fe 30E0      		ldi r19,0
 707 0200 C701      		movw r24,r14
 708 0202 0E94 0000 		call EINK_draw_absolute_pixel
 709               	.LVL48:
 710 0206 00C0      		rjmp .L27
 711               	.L55:
 120:src/main.c    ****                             EINK_set_partial_black(buffer, (uint8_t)data[2], (uint8_t)data[3], epdw
 712               		.loc 1 120 0
 713 0208 4091 0000 		lds r20,data+3
 714 020c 6091 0000 		lds r22,data+2
 715 0210 2091 0000 		lds r18,epdwidth
 716 0214 30E0      		ldi r19,0
 717 0216 50E0      		ldi r21,0
 718 0218 70E0      		ldi r23,0
 719 021a 08E2      		ldi r16,lo8(40)
 720 021c 10E0      		ldi r17,0
 721 021e C701      		movw r24,r14
 722 0220 0E94 0000 		call EINK_set_partial_black
 723               	.LVL49:
 121:src/main.c    ****                             EINK_wait();
 724               		.loc 1 121 0
 725 0224 0E94 0000 		call EINK_wait
 726               	.LVL50:
 727               	.LBB20:
 122:src/main.c    ****                             for(uint8_t x = 0; x < epdwidth; x++) {
 728               		.loc 1 122 0
 729 0228 8091 0000 		lds r24,epdwidth
 730 022c 8823      		tst r24
 731 022e 01F4      		brne .+2
 732 0230 00C0      		rjmp .L27
 122:src/main.c    ****                             for(uint8_t x = 0; x < epdwidth; x++) {
 733               		.loc 1 122 0 is_stmt 0 discriminator 3
 734 0232 B12C      		mov r11,__zero_reg__
 735               	.LVL51:
 736               	.L29:
 737 0234 CB2C      		mov r12,r11
 738 0236 D12C      		mov r13,__zero_reg__
 739 0238 00E0      		ldi r16,0
 740 023a 10E0      		ldi r17,0
 741               	.L28:
 742               	.LVL52:
 743               	.LBB21:
 124:src/main.c    ****                                     EINK_draw_absolute_pixel(buffer,x,y,0);
 744               		.loc 1 124 0 is_stmt 1 discriminator 3
GAS LISTING C:\Users\Rando\AppData\Local\Temp\ccaGBvwp.s 			page 21


 745 023c 20E0      		ldi r18,0
 746 023e 30E0      		ldi r19,0
 747 0240 A801      		movw r20,r16
 748 0242 B601      		movw r22,r12
 749 0244 C701      		movw r24,r14
 750 0246 0E94 0000 		call EINK_draw_absolute_pixel
 751               	.LVL53:
 752 024a 0F5F      		subi r16,-1
 753 024c 1F4F      		sbci r17,-1
 754               	.LVL54:
 123:src/main.c    ****                                 for (uint8_t y = 0; y < HEIGHT; y++) {
 755               		.loc 1 123 0 discriminator 3
 756 024e 0832      		cpi r16,40
 757 0250 1105      		cpc r17,__zero_reg__
 758 0252 01F4      		brne .L28
 759               	.LBE21:
 122:src/main.c    ****                             for(uint8_t x = 0; x < epdwidth; x++) {
 760               		.loc 1 122 0 discriminator 2
 761 0254 B394      		inc r11
 762               	.LVL55:
 763 0256 8091 0000 		lds r24,epdwidth
 764 025a B816      		cp r11,r24
 765 025c 00F0      		brlo .L29
 766 025e 00C0      		rjmp .L27
 767               	.LVL56:
 768               	.L53:
 769               	.LBE20:
 142:src/main.c    ****                             EINK_send_command(DISPLAY_REFRESH);
 770               		.loc 1 142 0
 771 0260 82E1      		ldi r24,lo8(18)
 772 0262 0E94 0000 		call EINK_send_command
 773               	.LVL57:
 143:src/main.c    ****                             EINK_wait();
 774               		.loc 1 143 0
 775 0266 0E94 0000 		call EINK_wait
 776               	.LVL58:
 777 026a 00C0      		rjmp .L27
 778               	.L54:
 145:src/main.c    ****                             clean_buffer(buffer);
 779               		.loc 1 145 0
 780 026c C701      		movw r24,r14
 781 026e 0E94 0000 		call clean_buffer
 782               	.LVL59:
 146:src/main.c    ****                             EINK_wait();
 783               		.loc 1 146 0
 784 0272 0E94 0000 		call EINK_wait
 785               	.LVL60:
 786 0276 00C0      		rjmp .L27
 787               	.LBE14:
 788               		.cfi_endproc
 789               	.LFE9:
 790               		.size	main, .-main
 791               	.global	tc
 792               		.section .bss
 793               		.type	tc, @object
 794               		.size	tc, 2
 795               	tc:
GAS LISTING C:\Users\Rando\AppData\Local\Temp\ccaGBvwp.s 			page 22


 796 0000 0000      		.zero	2
 797               	.global	data_available
 798               		.type	data_available, @object
 799               		.size	data_available, 1
 800               	data_available:
 801 0002 00        		.zero	1
 802               		.comm	data,10,1
 803               		.comm	epdwidth,1,1
 804               		.text
 805               	.Letext0:
 806               		.file 3 "c:\\avr toolchain\\avr\\include\\stdint.h"
 807               		.file 4 "./include/eink.h"
 808               		.file 5 "./include/nrf24l01.h"
 809               		.file 6 "./include/spi.h"
 810               		.file 7 "./include/batmon.h"