GAS LISTING C:\Users\Rando\AppData\Local\Temp\ccCoHFfh.s 			page 1


   1               		.file	"main.c"
   2               	__SP_H__ = 0x3e
   3               	__SP_L__ = 0x3d
   4               	__SREG__ = 0x3f
   5               	__tmp_reg__ = 0
   6               	__zero_reg__ = 1
   7               		.text
   8               	.Ltext0:
   9               		.cfi_sections	.debug_frame
  10               	.global	init_serial
  11               		.type	init_serial, @function
  12               	init_serial:
  13               	.LFB6:
  14               		.file 1 "src/main.c"
   1:src/main.c    **** #include <avr/io.h>
   2:src/main.c    **** #include <include/spi.h>
   3:src/main.c    **** #define F_CPU 16000000UL
   4:src/main.c    **** #include <util/delay.h>
   5:src/main.c    **** #include <include/nrf24l01.h>
   6:src/main.c    **** #include <avr/interrupt.h>
   7:src/main.c    **** 
   8:src/main.c    **** volatile uint8_t data[10];
   9:src/main.c    **** volatile uint8_t dataidx = 0;
  10:src/main.c    **** volatile uint8_t data_good = 0;
  11:src/main.c    **** 
  12:src/main.c    **** void init_serial() {
  15               		.loc 1 12 0
  16               		.cfi_startproc
  17               	/* prologue: function */
  18               	/* frame size = 0 */
  19               	/* stack size = 0 */
  20               	.L__stack_usage = 0
  13:src/main.c    **** 	DDRD |= (1 << PIND3);
  21               		.loc 1 13 0
  22 0000 539A      		sbi 0xa,3
  14:src/main.c    **** 	DDRD &= ~(1 << PIND2);
  23               		.loc 1 14 0
  24 0002 5298      		cbi 0xa,2
  15:src/main.c    **** 
  16:src/main.c    ****  UCSR1A = 0;   
  25               		.loc 1 16 0
  26 0004 1092 C800 		sts 200,__zero_reg__
  17:src/main.c    **** 	UCSR1B |= (1 << TXEN1) | (1 << RXEN1) | (1 << RXCIE1);   // Turn on the transmission and reception
  27               		.loc 1 17 0
  28 0008 E9EC      		ldi r30,lo8(-55)
  29 000a F0E0      		ldi r31,0
  30 000c 8081      		ld r24,Z
  31 000e 8869      		ori r24,lo8(-104)
  32 0010 8083      		st Z,r24
  18:src/main.c    ****     UCSR1C = (1<<UCSZ11)|(1<<UCSZ10);
  33               		.loc 1 18 0
  34 0012 86E0      		ldi r24,lo8(6)
  35 0014 8093 CA00 		sts 202,r24
  19:src/main.c    ****     UBRR1H = 0;
  36               		.loc 1 19 0
  37 0018 1092 CD00 		sts 205,__zero_reg__
  20:src/main.c    ****     UBRR1L = 25;
GAS LISTING C:\Users\Rando\AppData\Local\Temp\ccCoHFfh.s 			page 2


  38               		.loc 1 20 0
  39 001c 89E1      		ldi r24,lo8(25)
  40 001e 8093 CC00 		sts 204,r24
  41 0022 0895      		ret
  42               		.cfi_endproc
  43               	.LFE6:
  44               		.size	init_serial, .-init_serial
  45               	.global	serial_putc
  46               		.type	serial_putc, @function
  47               	serial_putc:
  48               	.LFB7:
  21:src/main.c    **** }
  22:src/main.c    **** 
  23:src/main.c    **** void serial_putc(char c) {
  49               		.loc 1 23 0
  50               		.cfi_startproc
  51               	/* prologue: function */
  52               	/* frame size = 0 */
  53               	/* stack size = 0 */
  54               	.L__stack_usage = 0
  55               	.LVL0:
  56               	.L3:
  24:src/main.c    **** 	while ((UCSR1A & (1<<UDRE1))==0);
  57               		.loc 1 24 0 discriminator 1
  58 0024 9091 C800 		lds r25,200
  59 0028 95FF      		sbrs r25,5
  60 002a 00C0      		rjmp .L3
  25:src/main.c    **** 	UDR1 = c;
  61               		.loc 1 25 0
  62 002c 8093 CE00 		sts 206,r24
  63 0030 0895      		ret
  64               		.cfi_endproc
  65               	.LFE7:
  66               		.size	serial_putc, .-serial_putc
  67               	.global	serial_send
  68               		.type	serial_send, @function
  69               	serial_send:
  70               	.LFB8:
  26:src/main.c    **** }
  27:src/main.c    **** 
  28:src/main.c    **** void serial_send(char* send) {
  71               		.loc 1 28 0
  72               		.cfi_startproc
  73               	.LVL1:
  74               	/* prologue: function */
  75               	/* frame size = 0 */
  76               	/* stack size = 0 */
  77               	.L__stack_usage = 0
  29:src/main.c    ****     while (*send) {
  78               		.loc 1 29 0
  79 0032 FC01      		movw r30,r24
  80 0034 2081      		ld r18,Z
  81 0036 2223      		tst r18
  82 0038 01F0      		breq .L7
  83 003a 3196      		adiw r30,1
  84               	.LVL2:
  85               	.L9:
GAS LISTING C:\Users\Rando\AppData\Local\Temp\ccCoHFfh.s 			page 3


  86               	.LBB14:
  87               	.LBB15:
  24:src/main.c    **** 	UDR1 = c;
  88               		.loc 1 24 0
  89 003c 9091 C800 		lds r25,200
  90 0040 95FF      		sbrs r25,5
  91 0042 00C0      		rjmp .L9
  25:src/main.c    **** }
  92               		.loc 1 25 0
  93 0044 2093 CE00 		sts 206,r18
  94               	.LBE15:
  95               	.LBE14:
  96               		.loc 1 29 0
  97 0048 2191      		ld r18,Z+
  98 004a 2111      		cpse r18,__zero_reg__
  99 004c 00C0      		rjmp .L9
 100               	.L7:
 101 004e 0895      		ret
 102               		.cfi_endproc
 103               	.LFE8:
 104               		.size	serial_send, .-serial_send
 105               	.global	__vector_25
 106               		.type	__vector_25, @function
 107               	__vector_25:
 108               	.LFB9:
  30:src/main.c    ****         serial_putc(*send++);
  31:src/main.c    ****     }
  32:src/main.c    **** }
  33:src/main.c    **** 
  34:src/main.c    **** ISR(USART1_RX_vect)
  35:src/main.c    **** {
 109               		.loc 1 35 0
 110               		.cfi_startproc
 111 0050 1F92      		push r1
 112               	.LCFI0:
 113               		.cfi_def_cfa_offset 3
 114               		.cfi_offset 1, -2
 115 0052 0F92      		push r0
 116               	.LCFI1:
 117               		.cfi_def_cfa_offset 4
 118               		.cfi_offset 0, -3
 119 0054 0FB6      		in r0,__SREG__
 120 0056 0F92      		push r0
 121 0058 1124      		clr __zero_reg__
 122 005a 8F93      		push r24
 123               	.LCFI2:
 124               		.cfi_def_cfa_offset 5
 125               		.cfi_offset 24, -4
 126 005c EF93      		push r30
 127               	.LCFI3:
 128               		.cfi_def_cfa_offset 6
 129               		.cfi_offset 30, -5
 130 005e FF93      		push r31
 131               	.LCFI4:
 132               		.cfi_def_cfa_offset 7
 133               		.cfi_offset 31, -6
 134               	/* prologue: Signal */
GAS LISTING C:\Users\Rando\AppData\Local\Temp\ccCoHFfh.s 			page 4


 135               	/* frame size = 0 */
 136               	/* stack size = 6 */
 137               	.L__stack_usage = 6
  36:src/main.c    **** 
  37:src/main.c    ****         char c = UDR1;
 138               		.loc 1 37 0
 139 0060 8091 CE00 		lds r24,206
 140               	.LVL3:
  38:src/main.c    ****         if(c != '\r') {
 141               		.loc 1 38 0
 142 0064 8D30      		cpi r24,lo8(13)
 143 0066 01F0      		breq .L16
  39:src/main.c    ****             data[dataidx] = c;
 144               		.loc 1 39 0
 145 0068 E091 0000 		lds r30,dataidx
 146 006c F0E0      		ldi r31,0
 147 006e E050      		subi r30,lo8(-(data))
 148 0070 F040      		sbci r31,hi8(-(data))
 149 0072 8083      		st Z,r24
  40:src/main.c    ****             dataidx++;
 150               		.loc 1 40 0
 151 0074 8091 0000 		lds r24,dataidx
 152               	.LVL4:
 153 0078 8F5F      		subi r24,lo8(-(1))
 154 007a 8093 0000 		sts dataidx,r24
 155               	.LVL5:
  41:src/main.c    ****             if(dataidx == 10) {
 156               		.loc 1 41 0
 157 007e 8091 0000 		lds r24,dataidx
 158 0082 8A30      		cpi r24,lo8(10)
 159 0084 01F0      		breq .L18
 160               	/* epilogue start */
  42:src/main.c    ****                 dataidx = 0;
  43:src/main.c    ****             }
  44:src/main.c    ****         } else {
  45:src/main.c    ****                 	PORTF |= (1 << PORTF0);
  46:src/main.c    **** 
  47:src/main.c    ****             data_good = 1;
  48:src/main.c    ****         }
  49:src/main.c    ****     
  50:src/main.c    **** }
 161               		.loc 1 50 0
 162 0086 FF91      		pop r31
 163 0088 EF91      		pop r30
 164 008a 8F91      		pop r24
 165 008c 0F90      		pop r0
 166 008e 0FBE      		out __SREG__,r0
 167 0090 0F90      		pop r0
 168 0092 1F90      		pop r1
 169 0094 1895      		reti
 170               	.LVL6:
 171               	.L16:
  45:src/main.c    **** 
 172               		.loc 1 45 0
 173 0096 889A      		sbi 0x11,0
  47:src/main.c    ****         }
 174               		.loc 1 47 0
GAS LISTING C:\Users\Rando\AppData\Local\Temp\ccCoHFfh.s 			page 5


 175 0098 81E0      		ldi r24,lo8(1)
 176               	.LVL7:
 177 009a 8093 0000 		sts data_good,r24
 178               	/* epilogue start */
 179               		.loc 1 50 0
 180 009e FF91      		pop r31
 181 00a0 EF91      		pop r30
 182 00a2 8F91      		pop r24
 183 00a4 0F90      		pop r0
 184 00a6 0FBE      		out __SREG__,r0
 185 00a8 0F90      		pop r0
 186 00aa 1F90      		pop r1
 187 00ac 1895      		reti
 188               	.L18:
  42:src/main.c    ****                 dataidx = 0;
 189               		.loc 1 42 0
 190 00ae 1092 0000 		sts dataidx,__zero_reg__
 191               	/* epilogue start */
 192               		.loc 1 50 0
 193 00b2 FF91      		pop r31
 194 00b4 EF91      		pop r30
 195 00b6 8F91      		pop r24
 196 00b8 0F90      		pop r0
 197 00ba 0FBE      		out __SREG__,r0
 198 00bc 0F90      		pop r0
 199 00be 1F90      		pop r1
 200 00c0 1895      		reti
 201               		.cfi_endproc
 202               	.LFE9:
 203               		.size	__vector_25, .-__vector_25
 204               		.section	.text.startup,"ax",@progbits
 205               	.global	main
 206               		.type	main, @function
 207               	main:
 208               	.LFB10:
  51:src/main.c    **** 
  52:src/main.c    **** 
  53:src/main.c    **** int main() {
 209               		.loc 1 53 0
 210               		.cfi_startproc
 211 0000 CF93      		push r28
 212               	.LCFI5:
 213               		.cfi_def_cfa_offset 3
 214               		.cfi_offset 28, -2
 215 0002 DF93      		push r29
 216               	.LCFI6:
 217               		.cfi_def_cfa_offset 4
 218               		.cfi_offset 29, -3
 219 0004 00D0      		rcall .
 220 0006 00D0      		rcall .
 221 0008 1F92      		push __zero_reg__
 222               	.LCFI7:
 223               		.cfi_def_cfa_offset 9
 224 000a CDB7      		in r28,__SP_L__
 225 000c DEB7      		in r29,__SP_H__
 226               	.LCFI8:
 227               		.cfi_def_cfa_register 28
GAS LISTING C:\Users\Rando\AppData\Local\Temp\ccCoHFfh.s 			page 6


 228               	/* prologue: function */
 229               	/* frame size = 5 */
 230               	/* stack size = 7 */
 231               	.L__stack_usage = 7
 232               	.LBB16:
 233               	.LBB17:
  13:src/main.c    **** 	DDRD &= ~(1 << PIND2);
 234               		.loc 1 13 0
 235 000e 539A      		sbi 0xa,3
  14:src/main.c    **** 
 236               		.loc 1 14 0
 237 0010 5298      		cbi 0xa,2
  16:src/main.c    **** 	UCSR1B |= (1 << TXEN1) | (1 << RXEN1) | (1 << RXCIE1);   // Turn on the transmission and reception
 238               		.loc 1 16 0
 239 0012 1092 C800 		sts 200,__zero_reg__
  17:src/main.c    ****     UCSR1C = (1<<UCSZ11)|(1<<UCSZ10);
 240               		.loc 1 17 0
 241 0016 8091 C900 		lds r24,201
 242 001a 8869      		ori r24,lo8(-104)
 243 001c 8093 C900 		sts 201,r24
  18:src/main.c    ****     UBRR1H = 0;
 244               		.loc 1 18 0
 245 0020 86E0      		ldi r24,lo8(6)
 246 0022 8093 CA00 		sts 202,r24
  19:src/main.c    ****     UBRR1L = 25;
 247               		.loc 1 19 0
 248 0026 1092 CD00 		sts 205,__zero_reg__
  20:src/main.c    **** }
 249               		.loc 1 20 0
 250 002a 89E1      		ldi r24,lo8(25)
 251 002c 8093 CC00 		sts 204,r24
 252               	.LBE17:
 253               	.LBE16:
  54:src/main.c    **** 	
  55:src/main.c    **** 	init_serial();
  56:src/main.c    ****     sei();
 254               		.loc 1 56 0
 255               	/* #APP */
 256               	 ;  56 "src/main.c" 1
 257 0030 7894      		sei
 258               	 ;  0 "" 2
  57:src/main.c    **** 
  58:src/main.c    **** 	//DEBUG led
  59:src/main.c    **** 	DDRF = (1 << DDF0);
 259               		.loc 1 59 0
 260               	/* #NOAPP */
 261 0032 81E0      		ldi r24,lo8(1)
 262 0034 80BB      		out 0x10,r24
  60:src/main.c    **** 	
  61:src/main.c    **** 	SPI_init();
 263               		.loc 1 61 0
 264 0036 0E94 0000 		call SPI_init
 265               	.LVL8:
 266               	.LBB18:
 267               	.LBB19:
 268               		.file 2 "c:\\avr toolchain\\avr\\include\\util\\delay.h"
   1:c:\avr toolchain\avr\include\util\delay.h **** /* Copyright (c) 2002, Marek Michalkiewicz
GAS LISTING C:\Users\Rando\AppData\Local\Temp\ccCoHFfh.s 			page 7


   2:c:\avr toolchain\avr\include\util\delay.h ****    Copyright (c) 2004,2005,2007 Joerg Wunsch
   3:c:\avr toolchain\avr\include\util\delay.h ****    Copyright (c) 2007  Florin-Viorel Petrov
   4:c:\avr toolchain\avr\include\util\delay.h ****    All rights reserved.
   5:c:\avr toolchain\avr\include\util\delay.h **** 
   6:c:\avr toolchain\avr\include\util\delay.h ****    Redistribution and use in source and binary forms, with or without
   7:c:\avr toolchain\avr\include\util\delay.h ****    modification, are permitted provided that the following conditions are met:
   8:c:\avr toolchain\avr\include\util\delay.h **** 
   9:c:\avr toolchain\avr\include\util\delay.h ****    * Redistributions of source code must retain the above copyright
  10:c:\avr toolchain\avr\include\util\delay.h ****      notice, this list of conditions and the following disclaimer.
  11:c:\avr toolchain\avr\include\util\delay.h **** 
  12:c:\avr toolchain\avr\include\util\delay.h ****    * Redistributions in binary form must reproduce the above copyright
  13:c:\avr toolchain\avr\include\util\delay.h ****      notice, this list of conditions and the following disclaimer in
  14:c:\avr toolchain\avr\include\util\delay.h ****      the documentation and/or other materials provided with the
  15:c:\avr toolchain\avr\include\util\delay.h ****      distribution.
  16:c:\avr toolchain\avr\include\util\delay.h **** 
  17:c:\avr toolchain\avr\include\util\delay.h ****    * Neither the name of the copyright holders nor the names of
  18:c:\avr toolchain\avr\include\util\delay.h ****      contributors may be used to endorse or promote products derived
  19:c:\avr toolchain\avr\include\util\delay.h ****      from this software without specific prior written permission.
  20:c:\avr toolchain\avr\include\util\delay.h **** 
  21:c:\avr toolchain\avr\include\util\delay.h ****   THIS SOFTWARE IS PROVIDED BY THE COPYRIGHT HOLDERS AND CONTRIBUTORS "AS IS"
  22:c:\avr toolchain\avr\include\util\delay.h ****   AND ANY EXPRESS OR IMPLIED WARRANTIES, INCLUDING, BUT NOT LIMITED TO, THE
  23:c:\avr toolchain\avr\include\util\delay.h ****   IMPLIED WARRANTIES OF MERCHANTABILITY AND FITNESS FOR A PARTICULAR PURPOSE
  24:c:\avr toolchain\avr\include\util\delay.h ****   ARE DISCLAIMED. IN NO EVENT SHALL THE COPYRIGHT OWNER OR CONTRIBUTORS BE
  25:c:\avr toolchain\avr\include\util\delay.h ****   LIABLE FOR ANY DIRECT, INDIRECT, INCIDENTAL, SPECIAL, EXEMPLARY, OR
  26:c:\avr toolchain\avr\include\util\delay.h ****   CONSEQUENTIAL DAMAGES (INCLUDING, BUT NOT LIMITED TO, PROCUREMENT OF
  27:c:\avr toolchain\avr\include\util\delay.h ****   SUBSTITUTE GOODS OR SERVICES; LOSS OF USE, DATA, OR PROFITS; OR BUSINESS
  28:c:\avr toolchain\avr\include\util\delay.h ****   INTERRUPTION) HOWEVER CAUSED AND ON ANY THEORY OF LIABILITY, WHETHER IN
  29:c:\avr toolchain\avr\include\util\delay.h ****   CONTRACT, STRICT LIABILITY, OR TORT (INCLUDING NEGLIGENCE OR OTHERWISE)
  30:c:\avr toolchain\avr\include\util\delay.h ****   ARISING IN ANY WAY OUT OF THE USE OF THIS SOFTWARE, EVEN IF ADVISED OF THE
  31:c:\avr toolchain\avr\include\util\delay.h ****   POSSIBILITY OF SUCH DAMAGE. */
  32:c:\avr toolchain\avr\include\util\delay.h **** 
  33:c:\avr toolchain\avr\include\util\delay.h **** /* $Id$ */
  34:c:\avr toolchain\avr\include\util\delay.h **** 
  35:c:\avr toolchain\avr\include\util\delay.h **** #ifndef _UTIL_DELAY_H_
  36:c:\avr toolchain\avr\include\util\delay.h **** #define _UTIL_DELAY_H_ 1
  37:c:\avr toolchain\avr\include\util\delay.h **** 
  38:c:\avr toolchain\avr\include\util\delay.h **** #ifndef __DOXYGEN__
  39:c:\avr toolchain\avr\include\util\delay.h **** #  ifndef __HAS_DELAY_CYCLES
  40:c:\avr toolchain\avr\include\util\delay.h **** #    define __HAS_DELAY_CYCLES 1
  41:c:\avr toolchain\avr\include\util\delay.h **** #  endif
  42:c:\avr toolchain\avr\include\util\delay.h **** #endif  /* __DOXYGEN__ */
  43:c:\avr toolchain\avr\include\util\delay.h **** 
  44:c:\avr toolchain\avr\include\util\delay.h **** #include <inttypes.h>
  45:c:\avr toolchain\avr\include\util\delay.h **** #include <util/delay_basic.h>
  46:c:\avr toolchain\avr\include\util\delay.h **** #include <math.h>
  47:c:\avr toolchain\avr\include\util\delay.h **** 
  48:c:\avr toolchain\avr\include\util\delay.h **** /** \file */
  49:c:\avr toolchain\avr\include\util\delay.h **** /** \defgroup util_delay <util/delay.h>: Convenience functions for busy-wait delay loops
  50:c:\avr toolchain\avr\include\util\delay.h ****     \code
  51:c:\avr toolchain\avr\include\util\delay.h ****     #define F_CPU 1000000UL  // 1 MHz
  52:c:\avr toolchain\avr\include\util\delay.h ****     //#define F_CPU 14.7456E6
  53:c:\avr toolchain\avr\include\util\delay.h ****     #include <util/delay.h>
  54:c:\avr toolchain\avr\include\util\delay.h ****     \endcode
  55:c:\avr toolchain\avr\include\util\delay.h **** 
  56:c:\avr toolchain\avr\include\util\delay.h ****     \note As an alternative method, it is possible to pass the
  57:c:\avr toolchain\avr\include\util\delay.h ****     F_CPU macro down to the compiler from the Makefile.
  58:c:\avr toolchain\avr\include\util\delay.h ****     Obviously, in that case, no \c \#define statement should be
GAS LISTING C:\Users\Rando\AppData\Local\Temp\ccCoHFfh.s 			page 8


  59:c:\avr toolchain\avr\include\util\delay.h ****     used.
  60:c:\avr toolchain\avr\include\util\delay.h **** 
  61:c:\avr toolchain\avr\include\util\delay.h ****     The functions in this header file are wrappers around the basic
  62:c:\avr toolchain\avr\include\util\delay.h ****     busy-wait functions from <util/delay_basic.h>.  They are meant as
  63:c:\avr toolchain\avr\include\util\delay.h ****     convenience functions where actual time values can be specified
  64:c:\avr toolchain\avr\include\util\delay.h ****     rather than a number of cycles to wait for.  The idea behind is
  65:c:\avr toolchain\avr\include\util\delay.h ****     that compile-time constant expressions will be eliminated by
  66:c:\avr toolchain\avr\include\util\delay.h ****     compiler optimization so floating-point expressions can be used
  67:c:\avr toolchain\avr\include\util\delay.h ****     to calculate the number of delay cycles needed based on the CPU
  68:c:\avr toolchain\avr\include\util\delay.h ****     frequency passed by the macro F_CPU.
  69:c:\avr toolchain\avr\include\util\delay.h **** 
  70:c:\avr toolchain\avr\include\util\delay.h ****     \note In order for these functions to work as intended, compiler
  71:c:\avr toolchain\avr\include\util\delay.h ****     optimizations <em>must</em> be enabled, and the delay time
  72:c:\avr toolchain\avr\include\util\delay.h ****     <em>must</em> be an expression that is a known constant at
  73:c:\avr toolchain\avr\include\util\delay.h ****     compile-time.  If these requirements are not met, the resulting
  74:c:\avr toolchain\avr\include\util\delay.h ****     delay will be much longer (and basically unpredictable), and
  75:c:\avr toolchain\avr\include\util\delay.h ****     applications that otherwise do not use floating-point calculations
  76:c:\avr toolchain\avr\include\util\delay.h ****     will experience severe code bloat by the floating-point library
  77:c:\avr toolchain\avr\include\util\delay.h ****     routines linked into the application.
  78:c:\avr toolchain\avr\include\util\delay.h **** 
  79:c:\avr toolchain\avr\include\util\delay.h ****     The functions available allow the specification of microsecond, and
  80:c:\avr toolchain\avr\include\util\delay.h ****     millisecond delays directly, using the application-supplied macro
  81:c:\avr toolchain\avr\include\util\delay.h ****     F_CPU as the CPU clock frequency (in Hertz).
  82:c:\avr toolchain\avr\include\util\delay.h **** 
  83:c:\avr toolchain\avr\include\util\delay.h **** */
  84:c:\avr toolchain\avr\include\util\delay.h **** 
  85:c:\avr toolchain\avr\include\util\delay.h **** #if !defined(__DOXYGEN__)
  86:c:\avr toolchain\avr\include\util\delay.h **** static __inline__ void _delay_us(double __us) __attribute__((__always_inline__));
  87:c:\avr toolchain\avr\include\util\delay.h **** static __inline__ void _delay_ms(double __ms) __attribute__((__always_inline__));
  88:c:\avr toolchain\avr\include\util\delay.h **** #endif
  89:c:\avr toolchain\avr\include\util\delay.h **** 
  90:c:\avr toolchain\avr\include\util\delay.h **** #ifndef F_CPU
  91:c:\avr toolchain\avr\include\util\delay.h **** /* prevent compiler error by supplying a default */
  92:c:\avr toolchain\avr\include\util\delay.h **** # warning "F_CPU not defined for <util/delay.h>"
  93:c:\avr toolchain\avr\include\util\delay.h **** /** \ingroup util_delay
  94:c:\avr toolchain\avr\include\util\delay.h ****     \def F_CPU
  95:c:\avr toolchain\avr\include\util\delay.h ****     \brief CPU frequency in Hz
  96:c:\avr toolchain\avr\include\util\delay.h **** 
  97:c:\avr toolchain\avr\include\util\delay.h ****     The macro F_CPU specifies the CPU frequency to be considered by
  98:c:\avr toolchain\avr\include\util\delay.h ****     the delay macros.  This macro is normally supplied by the
  99:c:\avr toolchain\avr\include\util\delay.h ****     environment (e.g. from within a project header, or the project's
 100:c:\avr toolchain\avr\include\util\delay.h ****     Makefile).  The value 1 MHz here is only provided as a "vanilla"
 101:c:\avr toolchain\avr\include\util\delay.h ****     fallback if no such user-provided definition could be found.
 102:c:\avr toolchain\avr\include\util\delay.h **** 
 103:c:\avr toolchain\avr\include\util\delay.h ****     In terms of the delay functions, the CPU frequency can be given as
 104:c:\avr toolchain\avr\include\util\delay.h ****     a floating-point constant (e.g. 3.6864E6 for 3.6864 MHz).
 105:c:\avr toolchain\avr\include\util\delay.h ****     However, the macros in <util/setbaud.h> require it to be an
 106:c:\avr toolchain\avr\include\util\delay.h ****     integer value.
 107:c:\avr toolchain\avr\include\util\delay.h ****  */
 108:c:\avr toolchain\avr\include\util\delay.h **** # define F_CPU 1000000UL
 109:c:\avr toolchain\avr\include\util\delay.h **** #endif
 110:c:\avr toolchain\avr\include\util\delay.h **** 
 111:c:\avr toolchain\avr\include\util\delay.h **** #ifndef __OPTIMIZE__
 112:c:\avr toolchain\avr\include\util\delay.h **** # warning "Compiler optimizations disabled; functions from <util/delay.h> won't work as designed"
 113:c:\avr toolchain\avr\include\util\delay.h **** #endif
 114:c:\avr toolchain\avr\include\util\delay.h **** 
 115:c:\avr toolchain\avr\include\util\delay.h **** #if __HAS_DELAY_CYCLES && defined(__OPTIMIZE__) && \
GAS LISTING C:\Users\Rando\AppData\Local\Temp\ccCoHFfh.s 			page 9


 116:c:\avr toolchain\avr\include\util\delay.h ****   !defined(__DELAY_BACKWARD_COMPATIBLE__) &&	   \
 117:c:\avr toolchain\avr\include\util\delay.h ****   __STDC_HOSTED__
 118:c:\avr toolchain\avr\include\util\delay.h **** #  include <math.h>
 119:c:\avr toolchain\avr\include\util\delay.h **** #endif
 120:c:\avr toolchain\avr\include\util\delay.h **** 
 121:c:\avr toolchain\avr\include\util\delay.h **** /**
 122:c:\avr toolchain\avr\include\util\delay.h ****    \ingroup util_delay
 123:c:\avr toolchain\avr\include\util\delay.h **** 
 124:c:\avr toolchain\avr\include\util\delay.h ****    Perform a delay of \c __ms milliseconds, using _delay_loop_2().
 125:c:\avr toolchain\avr\include\util\delay.h **** 
 126:c:\avr toolchain\avr\include\util\delay.h ****    The macro F_CPU is supposed to be defined to a
 127:c:\avr toolchain\avr\include\util\delay.h ****    constant defining the CPU clock frequency (in Hertz).
 128:c:\avr toolchain\avr\include\util\delay.h **** 
 129:c:\avr toolchain\avr\include\util\delay.h ****    The maximal possible delay is 262.14 ms / F_CPU in MHz.
 130:c:\avr toolchain\avr\include\util\delay.h **** 
 131:c:\avr toolchain\avr\include\util\delay.h ****    When the user request delay which exceed the maximum possible one,
 132:c:\avr toolchain\avr\include\util\delay.h ****    _delay_ms() provides a decreased resolution functionality. In this
 133:c:\avr toolchain\avr\include\util\delay.h ****    mode _delay_ms() will work with a resolution of 1/10 ms, providing
 134:c:\avr toolchain\avr\include\util\delay.h ****    delays up to 6.5535 seconds (independent from CPU frequency).  The
 135:c:\avr toolchain\avr\include\util\delay.h ****    user will not be informed about decreased resolution.
 136:c:\avr toolchain\avr\include\util\delay.h **** 
 137:c:\avr toolchain\avr\include\util\delay.h ****    If the avr-gcc toolchain has __builtin_avr_delay_cycles()
 138:c:\avr toolchain\avr\include\util\delay.h ****    support, maximal possible delay is 4294967.295 ms/ F_CPU in MHz. For
 139:c:\avr toolchain\avr\include\util\delay.h ****    values greater than the maximal possible delay, overflows results in
 140:c:\avr toolchain\avr\include\util\delay.h ****    no delay i.e., 0ms.
 141:c:\avr toolchain\avr\include\util\delay.h **** 
 142:c:\avr toolchain\avr\include\util\delay.h ****    Conversion of \c __ms into clock cycles may not always result in
 143:c:\avr toolchain\avr\include\util\delay.h ****    integer.  By default, the clock cycles rounded up to next
 144:c:\avr toolchain\avr\include\util\delay.h ****    integer. This ensures that the user gets at least \c __ms
 145:c:\avr toolchain\avr\include\util\delay.h ****    microseconds of delay.
 146:c:\avr toolchain\avr\include\util\delay.h **** 
 147:c:\avr toolchain\avr\include\util\delay.h ****    Alternatively, by defining the macro \c __DELAY_ROUND_DOWN__, or
 148:c:\avr toolchain\avr\include\util\delay.h ****    \c __DELAY_ROUND_CLOSEST__, before including this header file, the
 149:c:\avr toolchain\avr\include\util\delay.h ****    algorithm can be made to round down, or round to closest integer,
 150:c:\avr toolchain\avr\include\util\delay.h ****    respectively.
 151:c:\avr toolchain\avr\include\util\delay.h **** 
 152:c:\avr toolchain\avr\include\util\delay.h ****    \note
 153:c:\avr toolchain\avr\include\util\delay.h **** 
 154:c:\avr toolchain\avr\include\util\delay.h ****    The implementation of _delay_ms() based on
 155:c:\avr toolchain\avr\include\util\delay.h ****    __builtin_avr_delay_cycles() is not backward compatible with older
 156:c:\avr toolchain\avr\include\util\delay.h ****    implementations.  In order to get functionality backward compatible
 157:c:\avr toolchain\avr\include\util\delay.h ****    with previous versions, the macro \c "__DELAY_BACKWARD_COMPATIBLE__"
 158:c:\avr toolchain\avr\include\util\delay.h ****    must be defined before including this header file. Also, the
 159:c:\avr toolchain\avr\include\util\delay.h ****    backward compatible algorithm will be chosen if the code is
 160:c:\avr toolchain\avr\include\util\delay.h ****    compiled in a <em>freestanding environment</em> (GCC option
 161:c:\avr toolchain\avr\include\util\delay.h ****    \c -ffreestanding), as the math functions required for rounding are
 162:c:\avr toolchain\avr\include\util\delay.h ****    not available to the compiler then.
 163:c:\avr toolchain\avr\include\util\delay.h **** 
 164:c:\avr toolchain\avr\include\util\delay.h ****  */
 165:c:\avr toolchain\avr\include\util\delay.h **** void
 166:c:\avr toolchain\avr\include\util\delay.h **** _delay_ms(double __ms)
 167:c:\avr toolchain\avr\include\util\delay.h **** {
 168:c:\avr toolchain\avr\include\util\delay.h **** 	double __tmp ;
 169:c:\avr toolchain\avr\include\util\delay.h **** #if __HAS_DELAY_CYCLES && defined(__OPTIMIZE__) && \
 170:c:\avr toolchain\avr\include\util\delay.h ****   !defined(__DELAY_BACKWARD_COMPATIBLE__) &&	   \
 171:c:\avr toolchain\avr\include\util\delay.h ****   __STDC_HOSTED__
 172:c:\avr toolchain\avr\include\util\delay.h **** 	uint32_t __ticks_dc;
GAS LISTING C:\Users\Rando\AppData\Local\Temp\ccCoHFfh.s 			page 10


 173:c:\avr toolchain\avr\include\util\delay.h **** 	extern void __builtin_avr_delay_cycles(unsigned long);
 174:c:\avr toolchain\avr\include\util\delay.h **** 	__tmp = ((F_CPU) / 1e3) * __ms;
 175:c:\avr toolchain\avr\include\util\delay.h **** 
 176:c:\avr toolchain\avr\include\util\delay.h **** 	#if defined(__DELAY_ROUND_DOWN__)
 177:c:\avr toolchain\avr\include\util\delay.h **** 		__ticks_dc = (uint32_t)fabs(__tmp);
 178:c:\avr toolchain\avr\include\util\delay.h **** 
 179:c:\avr toolchain\avr\include\util\delay.h **** 	#elif defined(__DELAY_ROUND_CLOSEST__)
 180:c:\avr toolchain\avr\include\util\delay.h **** 		__ticks_dc = (uint32_t)(fabs(__tmp)+0.5);
 181:c:\avr toolchain\avr\include\util\delay.h **** 
 182:c:\avr toolchain\avr\include\util\delay.h **** 	#else
 183:c:\avr toolchain\avr\include\util\delay.h **** 		//round up by default
 184:c:\avr toolchain\avr\include\util\delay.h **** 		__ticks_dc = (uint32_t)(ceil(fabs(__tmp)));
 185:c:\avr toolchain\avr\include\util\delay.h **** 	#endif
 186:c:\avr toolchain\avr\include\util\delay.h **** 
 187:c:\avr toolchain\avr\include\util\delay.h **** 	__builtin_avr_delay_cycles(__ticks_dc);
 269               		.loc 2 187 0
 270 003a 2FEF      		ldi r18,lo8(3199999)
 271 003c 83ED      		ldi r24,hi8(3199999)
 272 003e 90E3      		ldi r25,hlo8(3199999)
 273 0040 2150      	1:	subi r18,1
 274 0042 8040      		sbci r24,0
 275 0044 9040      		sbci r25,0
 276 0046 01F4      		brne 1b
 277 0048 00C0      		rjmp .
 278 004a 0000      		nop
 279               	.LVL9:
 280               	.LBE19:
 281               	.LBE18:
 282               	.LBB20:
  62:src/main.c    **** 	_delay_ms(1000);
  63:src/main.c    **** 	
  64:src/main.c    **** 	uint8_t address[5];
  65:src/main.c    **** 	for(int i = 0; i < 5; i++) {
  66:src/main.c    **** 		address[i] = 0x12+i;
 283               		.loc 1 66 0
 284 004c 82E1      		ldi r24,lo8(18)
 285 004e 8983      		std Y+1,r24
 286               	.LVL10:
 287 0050 83E1      		ldi r24,lo8(19)
 288 0052 8A83      		std Y+2,r24
 289               	.LVL11:
 290 0054 84E1      		ldi r24,lo8(20)
 291 0056 8B83      		std Y+3,r24
 292               	.LVL12:
 293 0058 85E1      		ldi r24,lo8(21)
 294 005a 8C83      		std Y+4,r24
 295               	.LVL13:
 296 005c 86E1      		ldi r24,lo8(22)
 297 005e 8D83      		std Y+5,r24
 298               	.LVL14:
 299               	.LBE20:
  67:src/main.c    ****     }
  68:src/main.c    **** 	
  69:src/main.c    **** 	nrf24l01_init(5, address, 110, 10 ,MODE_TRANSMIT);
 300               		.loc 1 69 0
 301 0060 00E0      		ldi r16,0
 302 0062 2AE0      		ldi r18,lo8(10)
GAS LISTING C:\Users\Rando\AppData\Local\Temp\ccCoHFfh.s 			page 11


 303 0064 4EE6      		ldi r20,lo8(110)
 304 0066 BE01      		movw r22,r28
 305 0068 6F5F      		subi r22,-1
 306 006a 7F4F      		sbci r23,-1
 307 006c 85E0      		ldi r24,lo8(5)
 308 006e 0E94 0000 		call nrf24l01_init
 309               	.LVL15:
  70:src/main.c    **** 	
  71:src/main.c    **** 	nrf24l01_transmit(data,10);
 310               		.loc 1 71 0
 311 0072 6AE0      		ldi r22,lo8(10)
 312 0074 80E0      		ldi r24,lo8(data)
 313 0076 90E0      		ldi r25,hi8(data)
 314 0078 0E94 0000 		call nrf24l01_transmit
 315               	.LVL16:
  72:src/main.c    **** 	nrf24l01_reset_interrupts();
 316               		.loc 1 72 0
 317 007c 0E94 0000 		call nrf24l01_reset_interrupts
 318               	.LVL17:
 319               	.LBB21:
 320               	.LBB22:
  25:src/main.c    **** }
 321               		.loc 1 25 0
 322 0080 1BE4      		ldi r17,lo8(75)
 323               	.L20:
 324               	.LBE22:
 325               	.LBE21:
  73:src/main.c    **** 		
  74:src/main.c    **** 
  75:src/main.c    ****     while(1) {
  76:src/main.c    ****         if(data_good) {
 326               		.loc 1 76 0
 327 0082 8091 0000 		lds r24,data_good
 328 0086 8823      		tst r24
 329 0088 01F0      		breq .L20
  77:src/main.c    ****         	PORTF |= (1 << PORTF0);
 330               		.loc 1 77 0
 331 008a 889A      		sbi 0x11,0
  78:src/main.c    ****             nrf24l01_transmit(data,10);
 332               		.loc 1 78 0
 333 008c 6AE0      		ldi r22,lo8(10)
 334 008e 80E0      		ldi r24,lo8(data)
 335 0090 90E0      		ldi r25,hi8(data)
 336 0092 0E94 0000 		call nrf24l01_transmit
 337               	.LVL18:
  79:src/main.c    ****             nrf24l01_reset_interrupts();
 338               		.loc 1 79 0
 339 0096 0E94 0000 		call nrf24l01_reset_interrupts
 340               	.LVL19:
  80:src/main.c    ****             PORTF &= ~(1 << PORTF0);
 341               		.loc 1 80 0
 342 009a 8898      		cbi 0x11,0
  81:src/main.c    ****             dataidx = 0;
 343               		.loc 1 81 0
 344 009c 1092 0000 		sts dataidx,__zero_reg__
  82:src/main.c    ****             data_good = 0;
 345               		.loc 1 82 0
GAS LISTING C:\Users\Rando\AppData\Local\Temp\ccCoHFfh.s 			page 12


 346 00a0 1092 0000 		sts data_good,__zero_reg__
 347               	.LVL20:
 348               	.L21:
 349               	.LBB24:
 350               	.LBB23:
  24:src/main.c    **** 	UDR1 = c;
 351               		.loc 1 24 0
 352 00a4 8091 C800 		lds r24,200
 353 00a8 85FF      		sbrs r24,5
 354 00aa 00C0      		rjmp .L21
  25:src/main.c    **** }
 355               		.loc 1 25 0
 356 00ac 1093 CE00 		sts 206,r17
 357 00b0 00C0      		rjmp .L20
 358               	.LBE23:
 359               	.LBE24:
 360               		.cfi_endproc
 361               	.LFE10:
 362               		.size	main, .-main
 363               	.global	data_good
 364               		.section .bss
 365               		.type	data_good, @object
 366               		.size	data_good, 1
 367               	data_good:
 368 0000 00        		.zero	1
 369               	.global	dataidx
 370               		.type	dataidx, @object
 371               		.size	dataidx, 1
 372               	dataidx:
 373 0001 00        		.zero	1
 374               		.comm	data,10,1
 375               		.text
 376               	.Letext0:
 377               		.file 3 "c:\\avr toolchain\\avr\\include\\stdint.h"
 378               		.file 4 "./include/spi.h"
 379               		.file 5 "./include/nrf24l01.h"