GAS LISTING C:\Users\Rando\AppData\Local\Temp\ccJpR0Ln.s 			page 1


   1               		.file	"nrf24l01.c"
   2               	__SP_H__ = 0x3e
   3               	__SP_L__ = 0x3d
   4               	__SREG__ = 0x3f
   5               	__tmp_reg__ = 0
   6               	__zero_reg__ = 1
   7               		.text
   8               	.Ltext0:
   9               		.cfi_sections	.debug_frame
  10               	.global	nrf24l01_write_register
  11               		.type	nrf24l01_write_register, @function
  12               	nrf24l01_write_register:
  13               	.LFB6:
  14               		.file 1 "src/nrf24l01.c"
   1:src/nrf24l01.c **** #include <include/nrf24l01.h>
   2:src/nrf24l01.c **** #include <include/spi.h>
   3:src/nrf24l01.c **** #define F_CPU 16000000UL
   4:src/nrf24l01.c **** #include <util/delay.h>
   5:src/nrf24l01.c **** 
   6:src/nrf24l01.c **** void nrf24l01_write_register(uint8_t reg, uint8_t* data, uint8_t bytecount) {
  15               		.loc 1 6 0
  16               		.cfi_startproc
  17               	.LVL0:
  18 0000 FF92      		push r15
  19               	.LCFI0:
  20               		.cfi_def_cfa_offset 3
  21               		.cfi_offset 15, -2
  22 0002 0F93      		push r16
  23               	.LCFI1:
  24               		.cfi_def_cfa_offset 4
  25               		.cfi_offset 16, -3
  26 0004 1F93      		push r17
  27               	.LCFI2:
  28               		.cfi_def_cfa_offset 5
  29               		.cfi_offset 17, -4
  30 0006 CF93      		push r28
  31               	.LCFI3:
  32               		.cfi_def_cfa_offset 6
  33               		.cfi_offset 28, -5
  34 0008 DF93      		push r29
  35               	.LCFI4:
  36               		.cfi_def_cfa_offset 7
  37               		.cfi_offset 29, -6
  38               	/* prologue: function */
  39               	/* frame size = 0 */
  40               	/* stack size = 5 */
  41               	.L__stack_usage = 5
  42 000a C82F      		mov r28,r24
  43 000c F62E      		mov r15,r22
  44 000e 072F      		mov r16,r23
  45 0010 142F      		mov r17,r20
  46               	.LVL1:
   7:src/nrf24l01.c **** 	reg =  NRF_WRITE + reg;
   8:src/nrf24l01.c **** 	SPI_unset_cs();
  47               		.loc 1 8 0
  48 0012 0E94 0000 		call SPI_unset_cs
  49               	.LVL2:
GAS LISTING C:\Users\Rando\AppData\Local\Temp\ccJpR0Ln.s 			page 2


   9:src/nrf24l01.c **** 	SPI_send(reg);
  50               		.loc 1 9 0
  51 0016 80E2      		ldi r24,lo8(32)
  52 0018 8C0F      		add r24,r28
  53               	.LVL3:
  54 001a 0E94 0000 		call SPI_send
  55               	.LVL4:
  56               	.LBB9:
  10:src/nrf24l01.c **** 	for(int i = 0; i < bytecount; i++) {
  57               		.loc 1 10 0
  58 001e 1123      		tst r17
  59 0020 01F0      		breq .L4
  60 0022 CF2D      		mov r28,r15
  61               	.LVL5:
  62 0024 D02F      		mov r29,r16
  63 0026 CE01      		movw r24,r28
  64 0028 810F      		add r24,r17
  65 002a 911D      		adc r25,__zero_reg__
  66 002c 8C01      		movw r16,r24
  67               	.LVL6:
  68               	.L3:
  11:src/nrf24l01.c **** 		SPI_send(data[i]);
  69               		.loc 1 11 0 discriminator 3
  70 002e 8991      		ld r24,Y+
  71               	.LVL7:
  72 0030 0E94 0000 		call SPI_send
  73               	.LVL8:
  10:src/nrf24l01.c **** 	for(int i = 0; i < bytecount; i++) {
  74               		.loc 1 10 0 discriminator 3
  75 0034 C017      		cp r28,r16
  76 0036 D107      		cpc r29,r17
  77 0038 01F4      		brne .L3
  78               	.LVL9:
  79               	.L4:
  80               	/* epilogue start */
  81               	.LBE9:
  12:src/nrf24l01.c **** 	}
  13:src/nrf24l01.c **** 	SPI_set_cs();
  14:src/nrf24l01.c **** }
  82               		.loc 1 14 0
  83 003a DF91      		pop r29
  84 003c CF91      		pop r28
  85 003e 1F91      		pop r17
  86               	.LVL10:
  87 0040 0F91      		pop r16
  88 0042 FF90      		pop r15
  13:src/nrf24l01.c **** }
  89               		.loc 1 13 0
  90 0044 0C94 0000 		jmp SPI_set_cs
  91               	.LVL11:
  92               		.cfi_endproc
  93               	.LFE6:
  94               		.size	nrf24l01_write_register, .-nrf24l01_write_register
  95               	.global	nrf24l01_init
  96               		.type	nrf24l01_init, @function
  97               	nrf24l01_init:
  98               	.LFB7:
GAS LISTING C:\Users\Rando\AppData\Local\Temp\ccJpR0Ln.s 			page 3


  15:src/nrf24l01.c **** 
  16:src/nrf24l01.c **** void nrf24l01_init(uint8_t address_width, uint8_t* address, uint8_t channel, uint8_t payload_width,
  99               		.loc 1 16 0
 100               		.cfi_startproc
 101               	.LVL12:
 102 0048 BF92      		push r11
 103               	.LCFI5:
 104               		.cfi_def_cfa_offset 3
 105               		.cfi_offset 11, -2
 106 004a CF92      		push r12
 107               	.LCFI6:
 108               		.cfi_def_cfa_offset 4
 109               		.cfi_offset 12, -3
 110 004c DF92      		push r13
 111               	.LCFI7:
 112               		.cfi_def_cfa_offset 5
 113               		.cfi_offset 13, -4
 114 004e EF92      		push r14
 115               	.LCFI8:
 116               		.cfi_def_cfa_offset 6
 117               		.cfi_offset 14, -5
 118 0050 FF92      		push r15
 119               	.LCFI9:
 120               		.cfi_def_cfa_offset 7
 121               		.cfi_offset 15, -6
 122 0052 0F93      		push r16
 123               	.LCFI10:
 124               		.cfi_def_cfa_offset 8
 125               		.cfi_offset 16, -7
 126 0054 1F93      		push r17
 127               	.LCFI11:
 128               		.cfi_def_cfa_offset 9
 129               		.cfi_offset 17, -8
 130 0056 CF93      		push r28
 131               	.LCFI12:
 132               		.cfi_def_cfa_offset 10
 133               		.cfi_offset 28, -9
 134 0058 DF93      		push r29
 135               	.LCFI13:
 136               		.cfi_def_cfa_offset 11
 137               		.cfi_offset 29, -10
 138 005a 1F92      		push __zero_reg__
 139               	.LCFI14:
 140               		.cfi_def_cfa_offset 12
 141 005c CDB7      		in r28,__SP_L__
 142 005e DEB7      		in r29,__SP_H__
 143               	.LCFI15:
 144               		.cfi_def_cfa_register 28
 145               	/* prologue: function */
 146               	/* frame size = 1 */
 147               	/* stack size = 10 */
 148               	.L__stack_usage = 10
 149 0060 182F      		mov r17,r24
 150 0062 7B01      		movw r14,r22
 151 0064 B42E      		mov r11,r20
 152 0066 C22E      		mov r12,r18
  17:src/nrf24l01.c **** 	
GAS LISTING C:\Users\Rando\AppData\Local\Temp\ccJpR0Ln.s 			page 4


  18:src/nrf24l01.c **** 	// Setup CE pin that enables RF activity (not to be confused with the CSN pin, which is for the SP
  19:src/nrf24l01.c **** 	DDRB |= (1 << DDB7);
 153               		.loc 1 19 0
 154 0068 279A      		sbi 0x4,7
  20:src/nrf24l01.c **** 	PORTB &= ~(1 << PORTB7);
 155               		.loc 1 20 0
 156 006a 2F98      		cbi 0x5,7
  21:src/nrf24l01.c **** 
  22:src/nrf24l01.c **** 	uint8_t config_values[1];
  23:src/nrf24l01.c **** 	
  24:src/nrf24l01.c **** 	//Enable Auto-ACK
  25:src/nrf24l01.c **** 	config_values[0] = 0x01;
 157               		.loc 1 25 0
 158 006c DD24      		clr r13
 159 006e D394      		inc r13
 160 0070 D982      		std Y+1,r13
  26:src/nrf24l01.c **** 	nrf24l01_write_register(EN_AA, config_values, 1);
 161               		.loc 1 26 0
 162 0072 41E0      		ldi r20,lo8(1)
 163               	.LVL13:
 164 0074 BE01      		movw r22,r28
 165               	.LVL14:
 166 0076 6F5F      		subi r22,-1
 167 0078 7F4F      		sbci r23,-1
 168 007a 81E0      		ldi r24,lo8(1)
 169               	.LVL15:
 170 007c 0E94 0000 		call nrf24l01_write_register
 171               	.LVL16:
  27:src/nrf24l01.c **** 	
  28:src/nrf24l01.c **** 	//Setup automatic retries 750uS delay, up to 15 times
  29:src/nrf24l01.c **** 	config_values[0] = 0x2F;
 172               		.loc 1 29 0
 173 0080 8FE2      		ldi r24,lo8(47)
 174 0082 8983      		std Y+1,r24
  30:src/nrf24l01.c **** 	nrf24l01_write_register(SETUP_RETR, config_values, 1);
 175               		.loc 1 30 0
 176 0084 41E0      		ldi r20,lo8(1)
 177 0086 BE01      		movw r22,r28
 178 0088 6F5F      		subi r22,-1
 179 008a 7F4F      		sbci r23,-1
 180 008c 84E0      		ldi r24,lo8(4)
 181 008e 0E94 0000 		call nrf24l01_write_register
 182               	.LVL17:
  31:src/nrf24l01.c **** 	
  32:src/nrf24l01.c **** 	//Enable data pipe 0 for recieve communications
  33:src/nrf24l01.c **** 	config_values[0] = 0x01;
 183               		.loc 1 33 0
 184 0092 D982      		std Y+1,r13
  34:src/nrf24l01.c **** 	nrf24l01_write_register(EN_RXADDR, config_values, 1);
 185               		.loc 1 34 0
 186 0094 41E0      		ldi r20,lo8(1)
 187 0096 BE01      		movw r22,r28
 188 0098 6F5F      		subi r22,-1
 189 009a 7F4F      		sbci r23,-1
 190 009c 82E0      		ldi r24,lo8(2)
 191 009e 0E94 0000 		call nrf24l01_write_register
 192               	.LVL18:
GAS LISTING C:\Users\Rando\AppData\Local\Temp\ccJpR0Ln.s 			page 5


  35:src/nrf24l01.c **** 	
  36:src/nrf24l01.c **** 	//Set address length as 5 bytes
  37:src/nrf24l01.c **** 	config_values[0] = address_width;
 193               		.loc 1 37 0
 194 00a2 1983      		std Y+1,r17
  38:src/nrf24l01.c **** 	nrf24l01_write_register(SETUP_AW, config_values,1);
 195               		.loc 1 38 0
 196 00a4 41E0      		ldi r20,lo8(1)
 197 00a6 BE01      		movw r22,r28
 198 00a8 6F5F      		subi r22,-1
 199 00aa 7F4F      		sbci r23,-1
 200 00ac 83E0      		ldi r24,lo8(3)
 201 00ae 0E94 0000 		call nrf24l01_write_register
 202               	.LVL19:
  39:src/nrf24l01.c **** 	
  40:src/nrf24l01.c **** 	//Setup a radio channel
  41:src/nrf24l01.c **** 	config_values[0] = channel;
 203               		.loc 1 41 0
 204 00b2 B982      		std Y+1,r11
  42:src/nrf24l01.c **** 	nrf24l01_write_register(RF_CH, config_values,1);
 205               		.loc 1 42 0
 206 00b4 41E0      		ldi r20,lo8(1)
 207 00b6 BE01      		movw r22,r28
 208 00b8 6F5F      		subi r22,-1
 209 00ba 7F4F      		sbci r23,-1
 210 00bc 85E0      		ldi r24,lo8(5)
 211 00be 0E94 0000 		call nrf24l01_write_register
 212               	.LVL20:
  43:src/nrf24l01.c **** 
  44:src/nrf24l01.c **** 	//Setup in -0dB long range mode
  45:src/nrf24l01.c **** 	config_values[0] = 0x07;
 213               		.loc 1 45 0
 214 00c2 87E0      		ldi r24,lo8(7)
 215 00c4 8983      		std Y+1,r24
  46:src/nrf24l01.c **** 	nrf24l01_write_register(RF_SETUP, config_values,1);
 216               		.loc 1 46 0
 217 00c6 41E0      		ldi r20,lo8(1)
 218 00c8 BE01      		movw r22,r28
 219 00ca 6F5F      		subi r22,-1
 220 00cc 7F4F      		sbci r23,-1
 221 00ce 86E0      		ldi r24,lo8(6)
 222 00d0 0E94 0000 		call nrf24l01_write_register
 223               	.LVL21:
  47:src/nrf24l01.c **** 	
  48:src/nrf24l01.c **** 	//Setup addresses for recieve pipe 0 and tx
  49:src/nrf24l01.c **** 	nrf24l01_write_register(RX_ADDR_P0,address,address_width);
 224               		.loc 1 49 0
 225 00d4 412F      		mov r20,r17
 226 00d6 B701      		movw r22,r14
 227 00d8 8AE0      		ldi r24,lo8(10)
 228 00da 0E94 0000 		call nrf24l01_write_register
 229               	.LVL22:
  50:src/nrf24l01.c **** 	nrf24l01_write_register(TX_ADDR,address,address_width);
 230               		.loc 1 50 0
 231 00de 412F      		mov r20,r17
 232 00e0 B701      		movw r22,r14
 233 00e2 80E1      		ldi r24,lo8(16)
GAS LISTING C:\Users\Rando\AppData\Local\Temp\ccJpR0Ln.s 			page 6


 234 00e4 0E94 0000 		call nrf24l01_write_register
 235               	.LVL23:
  51:src/nrf24l01.c **** 	
  52:src/nrf24l01.c **** 	//Setup payload width (bytes/package)
  53:src/nrf24l01.c **** 	config_values[0] = payload_width;
 236               		.loc 1 53 0
 237 00e8 C982      		std Y+1,r12
  54:src/nrf24l01.c **** 	nrf24l01_write_register(RX_PW_P0,config_values,1);
 238               		.loc 1 54 0
 239 00ea 41E0      		ldi r20,lo8(1)
 240 00ec BE01      		movw r22,r28
 241 00ee 6F5F      		subi r22,-1
 242 00f0 7F4F      		sbci r23,-1
 243 00f2 81E1      		ldi r24,lo8(17)
 244 00f4 0E94 0000 		call nrf24l01_write_register
 245               	.LVL24:
  55:src/nrf24l01.c **** 	
  56:src/nrf24l01.c **** 	//Bootup and config
  57:src/nrf24l01.c **** 	config_values[0] = (1 << PWR_UP) | (1 << CRCO) | (1 << EN_CRC) | (1 << MASK_MAX_RT);
  58:src/nrf24l01.c **** 	
  59:src/nrf24l01.c **** 	if(mode == 0) {
 246               		.loc 1 59 0
 247 00f8 0023      		tst r16
 248 00fa 01F0      		breq .L10
  60:src/nrf24l01.c **** 		config_values[0] = 0x1E;
  61:src/nrf24l01.c **** 		//config_values[0] |=  (1 << MASK_TX_DS) | (1 << MASK_RX_DR);
  62:src/nrf24l01.c **** 	} else {
  63:src/nrf24l01.c **** 		config_values[0] |= (1 << PRIM_RX) | (1 << MASK_TX_DS);
 249               		.loc 1 63 0
 250 00fc 8FE3      		ldi r24,lo8(63)
 251 00fe 8983      		std Y+1,r24
 252               	.L9:
  64:src/nrf24l01.c **** 	}
  65:src/nrf24l01.c **** 	nrf24l01_write_register(CONFIG, config_values, 1);
 253               		.loc 1 65 0
 254 0100 41E0      		ldi r20,lo8(1)
 255 0102 BE01      		movw r22,r28
 256 0104 6F5F      		subi r22,-1
 257 0106 7F4F      		sbci r23,-1
 258 0108 80E0      		ldi r24,0
 259 010a 0E94 0000 		call nrf24l01_write_register
 260               	.LVL25:
 261               	/* epilogue start */
  66:src/nrf24l01.c **** } 
 262               		.loc 1 66 0
 263 010e 0F90      		pop __tmp_reg__
 264 0110 DF91      		pop r29
 265 0112 CF91      		pop r28
 266 0114 1F91      		pop r17
 267               	.LVL26:
 268 0116 0F91      		pop r16
 269               	.LVL27:
 270 0118 FF90      		pop r15
 271 011a EF90      		pop r14
 272               	.LVL28:
 273 011c DF90      		pop r13
 274 011e CF90      		pop r12
GAS LISTING C:\Users\Rando\AppData\Local\Temp\ccJpR0Ln.s 			page 7


 275               	.LVL29:
 276 0120 BF90      		pop r11
 277               	.LVL30:
 278 0122 0895      		ret
 279               	.LVL31:
 280               	.L10:
  57:src/nrf24l01.c **** 	
 281               		.loc 1 57 0
 282 0124 8EE1      		ldi r24,lo8(30)
 283 0126 8983      		std Y+1,r24
 284 0128 00C0      		rjmp .L9
 285               		.cfi_endproc
 286               	.LFE7:
 287               		.size	nrf24l01_init, .-nrf24l01_init
 288               	.global	nrf24l01_transmit
 289               		.type	nrf24l01_transmit, @function
 290               	nrf24l01_transmit:
 291               	.LFB8:
  67:src/nrf24l01.c **** 
  68:src/nrf24l01.c **** void nrf24l01_transmit(uint8_t* payload, uint8_t payload_size) {
 292               		.loc 1 68 0
 293               		.cfi_startproc
 294               	.LVL32:
 295 012a FF92      		push r15
 296               	.LCFI16:
 297               		.cfi_def_cfa_offset 3
 298               		.cfi_offset 15, -2
 299 012c 0F93      		push r16
 300               	.LCFI17:
 301               		.cfi_def_cfa_offset 4
 302               		.cfi_offset 16, -3
 303 012e 1F93      		push r17
 304               	.LCFI18:
 305               		.cfi_def_cfa_offset 5
 306               		.cfi_offset 17, -4
 307 0130 CF93      		push r28
 308               	.LCFI19:
 309               		.cfi_def_cfa_offset 6
 310               		.cfi_offset 28, -5
 311 0132 DF93      		push r29
 312               	.LCFI20:
 313               		.cfi_def_cfa_offset 7
 314               		.cfi_offset 29, -6
 315               	/* prologue: function */
 316               	/* frame size = 0 */
 317               	/* stack size = 5 */
 318               	.L__stack_usage = 5
 319 0134 F82E      		mov r15,r24
 320 0136 092F      		mov r16,r25
 321 0138 162F      		mov r17,r22
  69:src/nrf24l01.c **** 	SPI_unset_cs();
 322               		.loc 1 69 0
 323 013a 0E94 0000 		call SPI_unset_cs
 324               	.LVL33:
  70:src/nrf24l01.c **** 	SPI_send(FLUSH_TX);
 325               		.loc 1 70 0
 326 013e 81EE      		ldi r24,lo8(-31)
GAS LISTING C:\Users\Rando\AppData\Local\Temp\ccJpR0Ln.s 			page 8


 327 0140 0E94 0000 		call SPI_send
 328               	.LVL34:
  71:src/nrf24l01.c **** 	SPI_set_cs();
 329               		.loc 1 71 0
 330 0144 0E94 0000 		call SPI_set_cs
 331               	.LVL35:
  72:src/nrf24l01.c **** 	
  73:src/nrf24l01.c **** 	SPI_unset_cs();
 332               		.loc 1 73 0
 333 0148 0E94 0000 		call SPI_unset_cs
 334               	.LVL36:
  74:src/nrf24l01.c **** 	SPI_send(W_TX_PAYLOAD);
 335               		.loc 1 74 0
 336 014c 80EA      		ldi r24,lo8(-96)
 337 014e 0E94 0000 		call SPI_send
 338               	.LVL37:
 339               	.LBB10:
  75:src/nrf24l01.c **** 	for(int i = 0; i < payload_size; i++) {
 340               		.loc 1 75 0
 341 0152 1123      		tst r17
 342 0154 01F0      		breq .L14
 343 0156 CF2D      		mov r28,r15
 344 0158 D02F      		mov r29,r16
 345 015a CE01      		movw r24,r28
 346 015c 810F      		add r24,r17
 347 015e 911D      		adc r25,__zero_reg__
 348 0160 8C01      		movw r16,r24
 349               	.LVL38:
 350               	.L13:
  76:src/nrf24l01.c **** 		SPI_send(payload[i]);
 351               		.loc 1 76 0 discriminator 3
 352 0162 8991      		ld r24,Y+
 353               	.LVL39:
 354 0164 0E94 0000 		call SPI_send
 355               	.LVL40:
  75:src/nrf24l01.c **** 	for(int i = 0; i < payload_size; i++) {
 356               		.loc 1 75 0 discriminator 3
 357 0168 C017      		cp r28,r16
 358 016a D107      		cpc r29,r17
 359 016c 01F4      		brne .L13
 360               	.LVL41:
 361               	.L14:
 362               	.LBE10:
  77:src/nrf24l01.c **** 	}
  78:src/nrf24l01.c **** 	SPI_set_cs();
 363               		.loc 1 78 0
 364 016e 0E94 0000 		call SPI_set_cs
 365               	.LVL42:
 366               	.LBB11:
 367               	.LBB12:
 368               		.file 2 "c:\\avr toolchain\\avr\\include\\util\\delay.h"
   1:c:\avr toolchain\avr\include\util\delay.h **** /* Copyright (c) 2002, Marek Michalkiewicz
   2:c:\avr toolchain\avr\include\util\delay.h ****    Copyright (c) 2004,2005,2007 Joerg Wunsch
   3:c:\avr toolchain\avr\include\util\delay.h ****    Copyright (c) 2007  Florin-Viorel Petrov
   4:c:\avr toolchain\avr\include\util\delay.h ****    All rights reserved.
   5:c:\avr toolchain\avr\include\util\delay.h **** 
   6:c:\avr toolchain\avr\include\util\delay.h ****    Redistribution and use in source and binary forms, with or without
GAS LISTING C:\Users\Rando\AppData\Local\Temp\ccJpR0Ln.s 			page 9


   7:c:\avr toolchain\avr\include\util\delay.h ****    modification, are permitted provided that the following conditions are met:
   8:c:\avr toolchain\avr\include\util\delay.h **** 
   9:c:\avr toolchain\avr\include\util\delay.h ****    * Redistributions of source code must retain the above copyright
  10:c:\avr toolchain\avr\include\util\delay.h ****      notice, this list of conditions and the following disclaimer.
  11:c:\avr toolchain\avr\include\util\delay.h **** 
  12:c:\avr toolchain\avr\include\util\delay.h ****    * Redistributions in binary form must reproduce the above copyright
  13:c:\avr toolchain\avr\include\util\delay.h ****      notice, this list of conditions and the following disclaimer in
  14:c:\avr toolchain\avr\include\util\delay.h ****      the documentation and/or other materials provided with the
  15:c:\avr toolchain\avr\include\util\delay.h ****      distribution.
  16:c:\avr toolchain\avr\include\util\delay.h **** 
  17:c:\avr toolchain\avr\include\util\delay.h ****    * Neither the name of the copyright holders nor the names of
  18:c:\avr toolchain\avr\include\util\delay.h ****      contributors may be used to endorse or promote products derived
  19:c:\avr toolchain\avr\include\util\delay.h ****      from this software without specific prior written permission.
  20:c:\avr toolchain\avr\include\util\delay.h **** 
  21:c:\avr toolchain\avr\include\util\delay.h ****   THIS SOFTWARE IS PROVIDED BY THE COPYRIGHT HOLDERS AND CONTRIBUTORS "AS IS"
  22:c:\avr toolchain\avr\include\util\delay.h ****   AND ANY EXPRESS OR IMPLIED WARRANTIES, INCLUDING, BUT NOT LIMITED TO, THE
  23:c:\avr toolchain\avr\include\util\delay.h ****   IMPLIED WARRANTIES OF MERCHANTABILITY AND FITNESS FOR A PARTICULAR PURPOSE
  24:c:\avr toolchain\avr\include\util\delay.h ****   ARE DISCLAIMED. IN NO EVENT SHALL THE COPYRIGHT OWNER OR CONTRIBUTORS BE
  25:c:\avr toolchain\avr\include\util\delay.h ****   LIABLE FOR ANY DIRECT, INDIRECT, INCIDENTAL, SPECIAL, EXEMPLARY, OR
  26:c:\avr toolchain\avr\include\util\delay.h ****   CONSEQUENTIAL DAMAGES (INCLUDING, BUT NOT LIMITED TO, PROCUREMENT OF
  27:c:\avr toolchain\avr\include\util\delay.h ****   SUBSTITUTE GOODS OR SERVICES; LOSS OF USE, DATA, OR PROFITS; OR BUSINESS
  28:c:\avr toolchain\avr\include\util\delay.h ****   INTERRUPTION) HOWEVER CAUSED AND ON ANY THEORY OF LIABILITY, WHETHER IN
  29:c:\avr toolchain\avr\include\util\delay.h ****   CONTRACT, STRICT LIABILITY, OR TORT (INCLUDING NEGLIGENCE OR OTHERWISE)
  30:c:\avr toolchain\avr\include\util\delay.h ****   ARISING IN ANY WAY OUT OF THE USE OF THIS SOFTWARE, EVEN IF ADVISED OF THE
  31:c:\avr toolchain\avr\include\util\delay.h ****   POSSIBILITY OF SUCH DAMAGE. */
  32:c:\avr toolchain\avr\include\util\delay.h **** 
  33:c:\avr toolchain\avr\include\util\delay.h **** /* $Id$ */
  34:c:\avr toolchain\avr\include\util\delay.h **** 
  35:c:\avr toolchain\avr\include\util\delay.h **** #ifndef _UTIL_DELAY_H_
  36:c:\avr toolchain\avr\include\util\delay.h **** #define _UTIL_DELAY_H_ 1
  37:c:\avr toolchain\avr\include\util\delay.h **** 
  38:c:\avr toolchain\avr\include\util\delay.h **** #ifndef __DOXYGEN__
  39:c:\avr toolchain\avr\include\util\delay.h **** #  ifndef __HAS_DELAY_CYCLES
  40:c:\avr toolchain\avr\include\util\delay.h **** #    define __HAS_DELAY_CYCLES 1
  41:c:\avr toolchain\avr\include\util\delay.h **** #  endif
  42:c:\avr toolchain\avr\include\util\delay.h **** #endif  /* __DOXYGEN__ */
  43:c:\avr toolchain\avr\include\util\delay.h **** 
  44:c:\avr toolchain\avr\include\util\delay.h **** #include <inttypes.h>
  45:c:\avr toolchain\avr\include\util\delay.h **** #include <util/delay_basic.h>
  46:c:\avr toolchain\avr\include\util\delay.h **** #include <math.h>
  47:c:\avr toolchain\avr\include\util\delay.h **** 
  48:c:\avr toolchain\avr\include\util\delay.h **** /** \file */
  49:c:\avr toolchain\avr\include\util\delay.h **** /** \defgroup util_delay <util/delay.h>: Convenience functions for busy-wait delay loops
  50:c:\avr toolchain\avr\include\util\delay.h ****     \code
  51:c:\avr toolchain\avr\include\util\delay.h ****     #define F_CPU 1000000UL  // 1 MHz
  52:c:\avr toolchain\avr\include\util\delay.h ****     //#define F_CPU 14.7456E6
  53:c:\avr toolchain\avr\include\util\delay.h ****     #include <util/delay.h>
  54:c:\avr toolchain\avr\include\util\delay.h ****     \endcode
  55:c:\avr toolchain\avr\include\util\delay.h **** 
  56:c:\avr toolchain\avr\include\util\delay.h ****     \note As an alternative method, it is possible to pass the
  57:c:\avr toolchain\avr\include\util\delay.h ****     F_CPU macro down to the compiler from the Makefile.
  58:c:\avr toolchain\avr\include\util\delay.h ****     Obviously, in that case, no \c \#define statement should be
  59:c:\avr toolchain\avr\include\util\delay.h ****     used.
  60:c:\avr toolchain\avr\include\util\delay.h **** 
  61:c:\avr toolchain\avr\include\util\delay.h ****     The functions in this header file are wrappers around the basic
  62:c:\avr toolchain\avr\include\util\delay.h ****     busy-wait functions from <util/delay_basic.h>.  They are meant as
  63:c:\avr toolchain\avr\include\util\delay.h ****     convenience functions where actual time values can be specified
GAS LISTING C:\Users\Rando\AppData\Local\Temp\ccJpR0Ln.s 			page 10


  64:c:\avr toolchain\avr\include\util\delay.h ****     rather than a number of cycles to wait for.  The idea behind is
  65:c:\avr toolchain\avr\include\util\delay.h ****     that compile-time constant expressions will be eliminated by
  66:c:\avr toolchain\avr\include\util\delay.h ****     compiler optimization so floating-point expressions can be used
  67:c:\avr toolchain\avr\include\util\delay.h ****     to calculate the number of delay cycles needed based on the CPU
  68:c:\avr toolchain\avr\include\util\delay.h ****     frequency passed by the macro F_CPU.
  69:c:\avr toolchain\avr\include\util\delay.h **** 
  70:c:\avr toolchain\avr\include\util\delay.h ****     \note In order for these functions to work as intended, compiler
  71:c:\avr toolchain\avr\include\util\delay.h ****     optimizations <em>must</em> be enabled, and the delay time
  72:c:\avr toolchain\avr\include\util\delay.h ****     <em>must</em> be an expression that is a known constant at
  73:c:\avr toolchain\avr\include\util\delay.h ****     compile-time.  If these requirements are not met, the resulting
  74:c:\avr toolchain\avr\include\util\delay.h ****     delay will be much longer (and basically unpredictable), and
  75:c:\avr toolchain\avr\include\util\delay.h ****     applications that otherwise do not use floating-point calculations
  76:c:\avr toolchain\avr\include\util\delay.h ****     will experience severe code bloat by the floating-point library
  77:c:\avr toolchain\avr\include\util\delay.h ****     routines linked into the application.
  78:c:\avr toolchain\avr\include\util\delay.h **** 
  79:c:\avr toolchain\avr\include\util\delay.h ****     The functions available allow the specification of microsecond, and
  80:c:\avr toolchain\avr\include\util\delay.h ****     millisecond delays directly, using the application-supplied macro
  81:c:\avr toolchain\avr\include\util\delay.h ****     F_CPU as the CPU clock frequency (in Hertz).
  82:c:\avr toolchain\avr\include\util\delay.h **** 
  83:c:\avr toolchain\avr\include\util\delay.h **** */
  84:c:\avr toolchain\avr\include\util\delay.h **** 
  85:c:\avr toolchain\avr\include\util\delay.h **** #if !defined(__DOXYGEN__)
  86:c:\avr toolchain\avr\include\util\delay.h **** static __inline__ void _delay_us(double __us) __attribute__((__always_inline__));
  87:c:\avr toolchain\avr\include\util\delay.h **** static __inline__ void _delay_ms(double __ms) __attribute__((__always_inline__));
  88:c:\avr toolchain\avr\include\util\delay.h **** #endif
  89:c:\avr toolchain\avr\include\util\delay.h **** 
  90:c:\avr toolchain\avr\include\util\delay.h **** #ifndef F_CPU
  91:c:\avr toolchain\avr\include\util\delay.h **** /* prevent compiler error by supplying a default */
  92:c:\avr toolchain\avr\include\util\delay.h **** # warning "F_CPU not defined for <util/delay.h>"
  93:c:\avr toolchain\avr\include\util\delay.h **** /** \ingroup util_delay
  94:c:\avr toolchain\avr\include\util\delay.h ****     \def F_CPU
  95:c:\avr toolchain\avr\include\util\delay.h ****     \brief CPU frequency in Hz
  96:c:\avr toolchain\avr\include\util\delay.h **** 
  97:c:\avr toolchain\avr\include\util\delay.h ****     The macro F_CPU specifies the CPU frequency to be considered by
  98:c:\avr toolchain\avr\include\util\delay.h ****     the delay macros.  This macro is normally supplied by the
  99:c:\avr toolchain\avr\include\util\delay.h ****     environment (e.g. from within a project header, or the project's
 100:c:\avr toolchain\avr\include\util\delay.h ****     Makefile).  The value 1 MHz here is only provided as a "vanilla"
 101:c:\avr toolchain\avr\include\util\delay.h ****     fallback if no such user-provided definition could be found.
 102:c:\avr toolchain\avr\include\util\delay.h **** 
 103:c:\avr toolchain\avr\include\util\delay.h ****     In terms of the delay functions, the CPU frequency can be given as
 104:c:\avr toolchain\avr\include\util\delay.h ****     a floating-point constant (e.g. 3.6864E6 for 3.6864 MHz).
 105:c:\avr toolchain\avr\include\util\delay.h ****     However, the macros in <util/setbaud.h> require it to be an
 106:c:\avr toolchain\avr\include\util\delay.h ****     integer value.
 107:c:\avr toolchain\avr\include\util\delay.h ****  */
 108:c:\avr toolchain\avr\include\util\delay.h **** # define F_CPU 1000000UL
 109:c:\avr toolchain\avr\include\util\delay.h **** #endif
 110:c:\avr toolchain\avr\include\util\delay.h **** 
 111:c:\avr toolchain\avr\include\util\delay.h **** #ifndef __OPTIMIZE__
 112:c:\avr toolchain\avr\include\util\delay.h **** # warning "Compiler optimizations disabled; functions from <util/delay.h> won't work as designed"
 113:c:\avr toolchain\avr\include\util\delay.h **** #endif
 114:c:\avr toolchain\avr\include\util\delay.h **** 
 115:c:\avr toolchain\avr\include\util\delay.h **** #if __HAS_DELAY_CYCLES && defined(__OPTIMIZE__) && \
 116:c:\avr toolchain\avr\include\util\delay.h ****   !defined(__DELAY_BACKWARD_COMPATIBLE__) &&	   \
 117:c:\avr toolchain\avr\include\util\delay.h ****   __STDC_HOSTED__
 118:c:\avr toolchain\avr\include\util\delay.h **** #  include <math.h>
 119:c:\avr toolchain\avr\include\util\delay.h **** #endif
 120:c:\avr toolchain\avr\include\util\delay.h **** 
GAS LISTING C:\Users\Rando\AppData\Local\Temp\ccJpR0Ln.s 			page 11


 121:c:\avr toolchain\avr\include\util\delay.h **** /**
 122:c:\avr toolchain\avr\include\util\delay.h ****    \ingroup util_delay
 123:c:\avr toolchain\avr\include\util\delay.h **** 
 124:c:\avr toolchain\avr\include\util\delay.h ****    Perform a delay of \c __ms milliseconds, using _delay_loop_2().
 125:c:\avr toolchain\avr\include\util\delay.h **** 
 126:c:\avr toolchain\avr\include\util\delay.h ****    The macro F_CPU is supposed to be defined to a
 127:c:\avr toolchain\avr\include\util\delay.h ****    constant defining the CPU clock frequency (in Hertz).
 128:c:\avr toolchain\avr\include\util\delay.h **** 
 129:c:\avr toolchain\avr\include\util\delay.h ****    The maximal possible delay is 262.14 ms / F_CPU in MHz.
 130:c:\avr toolchain\avr\include\util\delay.h **** 
 131:c:\avr toolchain\avr\include\util\delay.h ****    When the user request delay which exceed the maximum possible one,
 132:c:\avr toolchain\avr\include\util\delay.h ****    _delay_ms() provides a decreased resolution functionality. In this
 133:c:\avr toolchain\avr\include\util\delay.h ****    mode _delay_ms() will work with a resolution of 1/10 ms, providing
 134:c:\avr toolchain\avr\include\util\delay.h ****    delays up to 6.5535 seconds (independent from CPU frequency).  The
 135:c:\avr toolchain\avr\include\util\delay.h ****    user will not be informed about decreased resolution.
 136:c:\avr toolchain\avr\include\util\delay.h **** 
 137:c:\avr toolchain\avr\include\util\delay.h ****    If the avr-gcc toolchain has __builtin_avr_delay_cycles()
 138:c:\avr toolchain\avr\include\util\delay.h ****    support, maximal possible delay is 4294967.295 ms/ F_CPU in MHz. For
 139:c:\avr toolchain\avr\include\util\delay.h ****    values greater than the maximal possible delay, overflows results in
 140:c:\avr toolchain\avr\include\util\delay.h ****    no delay i.e., 0ms.
 141:c:\avr toolchain\avr\include\util\delay.h **** 
 142:c:\avr toolchain\avr\include\util\delay.h ****    Conversion of \c __ms into clock cycles may not always result in
 143:c:\avr toolchain\avr\include\util\delay.h ****    integer.  By default, the clock cycles rounded up to next
 144:c:\avr toolchain\avr\include\util\delay.h ****    integer. This ensures that the user gets at least \c __ms
 145:c:\avr toolchain\avr\include\util\delay.h ****    microseconds of delay.
 146:c:\avr toolchain\avr\include\util\delay.h **** 
 147:c:\avr toolchain\avr\include\util\delay.h ****    Alternatively, by defining the macro \c __DELAY_ROUND_DOWN__, or
 148:c:\avr toolchain\avr\include\util\delay.h ****    \c __DELAY_ROUND_CLOSEST__, before including this header file, the
 149:c:\avr toolchain\avr\include\util\delay.h ****    algorithm can be made to round down, or round to closest integer,
 150:c:\avr toolchain\avr\include\util\delay.h ****    respectively.
 151:c:\avr toolchain\avr\include\util\delay.h **** 
 152:c:\avr toolchain\avr\include\util\delay.h ****    \note
 153:c:\avr toolchain\avr\include\util\delay.h **** 
 154:c:\avr toolchain\avr\include\util\delay.h ****    The implementation of _delay_ms() based on
 155:c:\avr toolchain\avr\include\util\delay.h ****    __builtin_avr_delay_cycles() is not backward compatible with older
 156:c:\avr toolchain\avr\include\util\delay.h ****    implementations.  In order to get functionality backward compatible
 157:c:\avr toolchain\avr\include\util\delay.h ****    with previous versions, the macro \c "__DELAY_BACKWARD_COMPATIBLE__"
 158:c:\avr toolchain\avr\include\util\delay.h ****    must be defined before including this header file. Also, the
 159:c:\avr toolchain\avr\include\util\delay.h ****    backward compatible algorithm will be chosen if the code is
 160:c:\avr toolchain\avr\include\util\delay.h ****    compiled in a <em>freestanding environment</em> (GCC option
 161:c:\avr toolchain\avr\include\util\delay.h ****    \c -ffreestanding), as the math functions required for rounding are
 162:c:\avr toolchain\avr\include\util\delay.h ****    not available to the compiler then.
 163:c:\avr toolchain\avr\include\util\delay.h **** 
 164:c:\avr toolchain\avr\include\util\delay.h ****  */
 165:c:\avr toolchain\avr\include\util\delay.h **** void
 166:c:\avr toolchain\avr\include\util\delay.h **** _delay_ms(double __ms)
 167:c:\avr toolchain\avr\include\util\delay.h **** {
 168:c:\avr toolchain\avr\include\util\delay.h **** 	double __tmp ;
 169:c:\avr toolchain\avr\include\util\delay.h **** #if __HAS_DELAY_CYCLES && defined(__OPTIMIZE__) && \
 170:c:\avr toolchain\avr\include\util\delay.h ****   !defined(__DELAY_BACKWARD_COMPATIBLE__) &&	   \
 171:c:\avr toolchain\avr\include\util\delay.h ****   __STDC_HOSTED__
 172:c:\avr toolchain\avr\include\util\delay.h **** 	uint32_t __ticks_dc;
 173:c:\avr toolchain\avr\include\util\delay.h **** 	extern void __builtin_avr_delay_cycles(unsigned long);
 174:c:\avr toolchain\avr\include\util\delay.h **** 	__tmp = ((F_CPU) / 1e3) * __ms;
 175:c:\avr toolchain\avr\include\util\delay.h **** 
 176:c:\avr toolchain\avr\include\util\delay.h **** 	#if defined(__DELAY_ROUND_DOWN__)
 177:c:\avr toolchain\avr\include\util\delay.h **** 		__ticks_dc = (uint32_t)fabs(__tmp);
GAS LISTING C:\Users\Rando\AppData\Local\Temp\ccJpR0Ln.s 			page 12


 178:c:\avr toolchain\avr\include\util\delay.h **** 
 179:c:\avr toolchain\avr\include\util\delay.h **** 	#elif defined(__DELAY_ROUND_CLOSEST__)
 180:c:\avr toolchain\avr\include\util\delay.h **** 		__ticks_dc = (uint32_t)(fabs(__tmp)+0.5);
 181:c:\avr toolchain\avr\include\util\delay.h **** 
 182:c:\avr toolchain\avr\include\util\delay.h **** 	#else
 183:c:\avr toolchain\avr\include\util\delay.h **** 		//round up by default
 184:c:\avr toolchain\avr\include\util\delay.h **** 		__ticks_dc = (uint32_t)(ceil(fabs(__tmp)));
 185:c:\avr toolchain\avr\include\util\delay.h **** 	#endif
 186:c:\avr toolchain\avr\include\util\delay.h **** 
 187:c:\avr toolchain\avr\include\util\delay.h **** 	__builtin_avr_delay_cycles(__ticks_dc);
 369               		.loc 2 187 0
 370 0172 8FE3      		ldi r24,lo8(-25537)
 371 0174 9CE9      		ldi r25,hi8(-25537)
 372 0176 0197      	1:	sbiw r24,1
 373 0178 01F4      		brne 1b
 374 017a 00C0      		rjmp .
 375 017c 0000      		nop
 376               	.LVL43:
 377               	.LBE12:
 378               	.LBE11:
  79:src/nrf24l01.c **** 	_delay_ms(10);
  80:src/nrf24l01.c **** 	PORTB |= (1 << PORTB7);
 379               		.loc 1 80 0
 380 017e 2F9A      		sbi 0x5,7
 381               	.LVL44:
 382               	.LBB13:
 383               	.LBB14:
 384               		.loc 2 187 0
 385 0180 9FEF      		ldi r25,lo8(63999)
 386 0182 29EF      		ldi r18,hi8(63999)
 387 0184 80E0      		ldi r24,hlo8(63999)
 388 0186 9150      	1:	subi r25,1
 389 0188 2040      		sbci r18,0
 390 018a 8040      		sbci r24,0
 391 018c 01F4      		brne 1b
 392 018e 00C0      		rjmp .
 393 0190 0000      		nop
 394               	.LVL45:
 395               	.LBE14:
 396               	.LBE13:
  81:src/nrf24l01.c **** 	_delay_ms(20);
  82:src/nrf24l01.c **** 	PORTB &= ~(1 << PORTB7);
 397               		.loc 1 82 0
 398 0192 2F98      		cbi 0x5,7
 399               	.LVL46:
 400               	.LBB15:
 401               	.LBB16:
 402               		.loc 2 187 0
 403 0194 8FE3      		ldi r24,lo8(-25537)
 404 0196 9CE9      		ldi r25,hi8(-25537)
 405 0198 0197      	1:	sbiw r24,1
 406 019a 01F4      		brne 1b
 407 019c 00C0      		rjmp .
 408 019e 0000      		nop
 409               	.LVL47:
 410               	/* epilogue start */
 411               	.LBE16:
GAS LISTING C:\Users\Rando\AppData\Local\Temp\ccJpR0Ln.s 			page 13


 412               	.LBE15:
  83:src/nrf24l01.c **** 	_delay_ms(10);
  84:src/nrf24l01.c **** }
 413               		.loc 1 84 0
 414 01a0 DF91      		pop r29
 415 01a2 CF91      		pop r28
 416 01a4 1F91      		pop r17
 417               	.LVL48:
 418 01a6 0F91      		pop r16
 419 01a8 FF90      		pop r15
 420 01aa 0895      		ret
 421               		.cfi_endproc
 422               	.LFE8:
 423               		.size	nrf24l01_transmit, .-nrf24l01_transmit
 424               	.global	nrf24l01_read_register
 425               		.type	nrf24l01_read_register, @function
 426               	nrf24l01_read_register:
 427               	.LFB9:
  85:src/nrf24l01.c **** 
  86:src/nrf24l01.c **** void nrf24l01_read_register(uint8_t reg, uint8_t* data, uint8_t bytecount) {
 428               		.loc 1 86 0
 429               		.cfi_startproc
 430               	.LVL49:
 431 01ac FF92      		push r15
 432               	.LCFI21:
 433               		.cfi_def_cfa_offset 3
 434               		.cfi_offset 15, -2
 435 01ae 0F93      		push r16
 436               	.LCFI22:
 437               		.cfi_def_cfa_offset 4
 438               		.cfi_offset 16, -3
 439 01b0 1F93      		push r17
 440               	.LCFI23:
 441               		.cfi_def_cfa_offset 5
 442               		.cfi_offset 17, -4
 443 01b2 CF93      		push r28
 444               	.LCFI24:
 445               		.cfi_def_cfa_offset 6
 446               		.cfi_offset 28, -5
 447 01b4 DF93      		push r29
 448               	.LCFI25:
 449               		.cfi_def_cfa_offset 7
 450               		.cfi_offset 29, -6
 451               	/* prologue: function */
 452               	/* frame size = 0 */
 453               	/* stack size = 5 */
 454               	.L__stack_usage = 5
 455 01b6 C82F      		mov r28,r24
 456 01b8 F62E      		mov r15,r22
 457 01ba 072F      		mov r16,r23
 458 01bc 142F      		mov r17,r20
  87:src/nrf24l01.c **** 	SPI_unset_cs();
 459               		.loc 1 87 0
 460 01be 0E94 0000 		call SPI_unset_cs
 461               	.LVL50:
  88:src/nrf24l01.c **** 	SPI_send(reg);
 462               		.loc 1 88 0
GAS LISTING C:\Users\Rando\AppData\Local\Temp\ccJpR0Ln.s 			page 14


 463 01c2 8C2F      		mov r24,r28
 464 01c4 0E94 0000 		call SPI_send
 465               	.LVL51:
 466               	.LBB17:
  89:src/nrf24l01.c **** 	for(int i = 0; i < bytecount; i++) {
 467               		.loc 1 89 0
 468 01c8 1123      		tst r17
 469 01ca 01F0      		breq .L20
 470 01cc CF2D      		mov r28,r15
 471               	.LVL52:
 472 01ce D02F      		mov r29,r16
 473 01d0 CE01      		movw r24,r28
 474 01d2 810F      		add r24,r17
 475 01d4 911D      		adc r25,__zero_reg__
 476 01d6 8C01      		movw r16,r24
 477               	.LVL53:
 478               	.L19:
  90:src/nrf24l01.c **** 		SPI_send(NOP);
 479               		.loc 1 90 0 discriminator 3
 480 01d8 8FEF      		ldi r24,lo8(-1)
 481 01da 0E94 0000 		call SPI_send
 482               	.LVL54:
  91:src/nrf24l01.c **** 		data[i] = SPDR;
 483               		.loc 1 91 0 discriminator 3
 484 01de 8EB5      		in r24,0x2e
 485 01e0 8993      		st Y+,r24
 486               	.LVL55:
  89:src/nrf24l01.c **** 	for(int i = 0; i < bytecount; i++) {
 487               		.loc 1 89 0 discriminator 3
 488 01e2 C017      		cp r28,r16
 489 01e4 D107      		cpc r29,r17
 490 01e6 01F4      		brne .L19
 491               	.LVL56:
 492               	.L20:
 493               	/* epilogue start */
 494               	.LBE17:
  92:src/nrf24l01.c **** 	}
  93:src/nrf24l01.c **** 	SPI_set_cs();
  94:src/nrf24l01.c **** }
 495               		.loc 1 94 0
 496 01e8 DF91      		pop r29
 497 01ea CF91      		pop r28
 498 01ec 1F91      		pop r17
 499               	.LVL57:
 500 01ee 0F91      		pop r16
 501 01f0 FF90      		pop r15
  93:src/nrf24l01.c **** }
 502               		.loc 1 93 0
 503 01f2 0C94 0000 		jmp SPI_set_cs
 504               	.LVL58:
 505               		.cfi_endproc
 506               	.LFE9:
 507               		.size	nrf24l01_read_register, .-nrf24l01_read_register
 508               	.global	nrf24l01_reset_interrupts
 509               		.type	nrf24l01_reset_interrupts, @function
 510               	nrf24l01_reset_interrupts:
 511               	.LFB10:
GAS LISTING C:\Users\Rando\AppData\Local\Temp\ccJpR0Ln.s 			page 15


  95:src/nrf24l01.c **** 
  96:src/nrf24l01.c **** void nrf24l01_reset_interrupts() {
 512               		.loc 1 96 0
 513               		.cfi_startproc
 514 01f6 CF93      		push r28
 515               	.LCFI26:
 516               		.cfi_def_cfa_offset 3
 517               		.cfi_offset 28, -2
 518 01f8 DF93      		push r29
 519               	.LCFI27:
 520               		.cfi_def_cfa_offset 4
 521               		.cfi_offset 29, -3
 522 01fa 1F92      		push __zero_reg__
 523               	.LCFI28:
 524               		.cfi_def_cfa_offset 5
 525 01fc CDB7      		in r28,__SP_L__
 526 01fe DEB7      		in r29,__SP_H__
 527               	.LCFI29:
 528               		.cfi_def_cfa_register 28
 529               	/* prologue: function */
 530               	/* frame size = 1 */
 531               	/* stack size = 3 */
 532               	.L__stack_usage = 3
  97:src/nrf24l01.c **** 	uint8_t val[1];
  98:src/nrf24l01.c **** 	val[0] = (1 << MAX_RT) | (1 << TX_DS) | (1 << RX_DR);
 533               		.loc 1 98 0
 534 0200 80E7      		ldi r24,lo8(112)
 535 0202 8983      		std Y+1,r24
  99:src/nrf24l01.c **** 	nrf24l01_write_register(STATUS,val,1);
 536               		.loc 1 99 0
 537 0204 41E0      		ldi r20,lo8(1)
 538 0206 BE01      		movw r22,r28
 539 0208 6F5F      		subi r22,-1
 540 020a 7F4F      		sbci r23,-1
 541 020c 87E0      		ldi r24,lo8(7)
 542 020e 0E94 0000 		call nrf24l01_write_register
 543               	.LVL59:
 544               	/* epilogue start */
 100:src/nrf24l01.c **** }
 545               		.loc 1 100 0
 546 0212 0F90      		pop __tmp_reg__
 547 0214 DF91      		pop r29
 548 0216 CF91      		pop r28
 549 0218 0895      		ret
 550               		.cfi_endproc
 551               	.LFE10:
 552               		.size	nrf24l01_reset_interrupts, .-nrf24l01_reset_interrupts
 553               	.Letext0:
 554               		.file 3 "c:\\avr toolchain\\avr\\include\\stdint.h"
 555               		.file 4 "./include/spi.h"